 PhysXCommon_64

 Timestamp is 642449e8 (Wed Mar 29 16:23:36 2023)

 Preferred load address is 0000000180000000

 Start         Length     Name                   Class
 0001:00000000 000032f0H .text$di                CODE
 0001:000032f0 001cfbb0H .text$mn                CODE
 0001:001d2ea0 00000040H .text$mn$00             CODE
 0001:001d2ee0 00000680H .text$x                 CODE
 0001:001d3560 0000000fH .text$yd                CODE
 0002:00000000 00000288H .idata$5                DATA
 0002:00000288 00000038H .00cfg                  DATA
 0002:000002c0 00000008H .CRT$XCA                DATA
 0002:000002c8 000018b0H .CRT$XCU                DATA
 0002:00001b78 00000008H .CRT$XCZ                DATA
 0002:00001b80 00000008H .CRT$XIA                DATA
 0002:00001b88 00000018H .CRT$XIC                DATA
 0002:00001ba0 00000008H .CRT$XIZ                DATA
 0002:00001ba8 00000008H .CRT$XPA                DATA
 0002:00001bb0 00000010H .CRT$XPX                DATA
 0002:00001bc0 00000008H .CRT$XPXA               DATA
 0002:00001bc8 00000008H .CRT$XPZ                DATA
 0002:00001bd0 00000008H .CRT$XTA                DATA
 0002:00001bd8 00000008H .CRT$XTZ                DATA
 0002:00001be0 00000000H .gehcont$y              DATA
 0002:00001be0 00000000H .gfids$y                DATA
 0002:00001be0 00011a20H .rdata                  DATA
 0002:00013600 00000000H .rdata$CastGuardVftablesA DATA
 0002:00013600 00000000H .rdata$CastGuardVftablesC DATA
 0002:00013600 0000043cH .rdata$r                DATA
 0002:00013a3c 00000234H .rdata$voltmd           DATA
 0002:00013c70 00000440H .rdata$zzzdbg           DATA
 0002:000140b0 00000008H .rtc$IAA                DATA
 0002:000140b8 00000008H .rtc$IZZ                DATA
 0002:000140c0 00000008H .rtc$TAA                DATA
 0002:000140c8 00000008H .rtc$TZZ                DATA
 0002:000140d0 00014c10H .xdata                  DATA
 0002:00028ce0 00000084H .xdata$x                DATA
 0002:00028d64 00000020H .didat$2                DATA
 0002:00028d84 00000024H .didat$3                DATA
 0002:00028da8 000000c8H .didat$4                DATA
 0002:00028e70 00000410H .didat$6                DATA
 0002:00029280 000000d0H .didat$7                DATA
 0002:00029350 0000c478H .edata                  DATA
 0002:000357c8 00000014H .idata$2                DATA
 0002:000357dc 00000014H .idata$3                DATA
 0002:000357f0 00000288H .idata$4                DATA
 0002:00035a78 000005caH .idata$6                DATA
 0003:00000000 00001c40H .data                   DATA
 0003:00001c40 000010e0H .data$r                 DATA
 0003:00002d20 000000f0H .data$rs                DATA
 0003:00002e10 000000d0H .didat$5                DATA
 0003:00002ee0 000043dcH .bss                    DATA
 0004:00000000 0000c2a0H .pdata                  DATA
 0005:00000000 0000236cH _RDATA                  DATA
 0006:00000000 000000a0H .rsrc$01                DATA
 0006:000000a0 000004b0H .rsrc$02                DATA

  Address         Publics by Value              Rva+Base               Lib:Object

 0000:00000000       __AbsoluteZero             0000000000000000     <absolute>
 0000:00000000       ___safe_se_handler_count   0000000000000000     <absolute>
 0000:00000000       ___safe_se_handler_table   0000000000000000     <absolute>
 0000:00000000       __arm64x_extra_rfe_table   0000000000000000     <absolute>
 0000:00000000       __arm64x_extra_rfe_table_size 0000000000000000     <absolute>
 0000:00000000       __arm64x_native_entrypoint 0000000000000000     <absolute>
 0000:00000000       __arm64x_redirection_metadata 0000000000000000     <absolute>
 0000:00000000       __arm64x_redirection_metadata_count 0000000000000000     <absolute>
 0000:00000000       __dynamic_value_reloc_table 0000000000000000     <absolute>
 0000:00000000       __enclave_config           0000000000000000     <absolute>
 0000:00000000       __guard_check_icall_a64n_fptr 0000000000000000     <absolute>
 0000:00000000       __guard_eh_cont_count      0000000000000000     <absolute>
 0000:00000000       __guard_eh_cont_table      0000000000000000     <absolute>
 0000:00000000       __guard_fids_count         0000000000000000     <absolute>
 0000:00000000       __guard_fids_table         0000000000000000     <absolute>
 0000:00000000       __guard_iat_count          0000000000000000     <absolute>
 0000:00000000       __guard_iat_table          0000000000000000     <absolute>
 0000:00000000       __guard_longjmp_count      0000000000000000     <absolute>
 0000:00000000       __guard_longjmp_table      0000000000000000     <absolute>
 0000:00000000       __hybrid_auxiliary_iat     0000000000000000     <absolute>
 0000:00000000       __hybrid_auxiliary_iat_copy 0000000000000000     <absolute>
 0000:00000000       __hybrid_code_map          0000000000000000     <absolute>
 0000:00000000       __hybrid_code_map_count    0000000000000000     <absolute>
 0000:00000000       __x64_code_ranges_to_entry_points 0000000000000000     <absolute>
 0000:00000000       __x64_code_ranges_to_entry_points_count 0000000000000000     <absolute>
 0000:00000100       __guard_flags              0000000000000100     <absolute>
 0000:00000000       __ImageBase                0000000180000000     <linker-defined>
 0001:000032f0       ??0PtrTable@Cm@physx@@QEAA@W4PxEMPTY@2@@Z 00000001800042f0 f i CmPtrTable.obj
 0001:00003310       ??0PtrTable@Cm@physx@@QEAA@XZ 0000000180004310 f   CmPtrTable.obj
 0001:00003320       ??1AABBTreeBuildNode@Gu@physx@@QEAA@XZ 0000000180004320 f   GuMeshFactory.obj
 0001:00003320       ??1BigConvexDataBuilder@physx@@QEAA@XZ 0000000180004320 f   GuCookingBigConvexDataBuilder.obj
 0001:00003320       ??1Box@Gu@physx@@QEAA@XZ   0000000180004320 f   GuBox.obj
 0001:00003320       ??1HeightFieldData@Gu@physx@@QEAA@XZ 0000000180004320 f   GuCCTSweepTests.obj
 0001:00003320       ??1PtrTable@Cm@physx@@QEAA@XZ 0000000180004320 f   CmPtrTable.obj
 0001:00003320       ?build@CompanionPrunerIncremental@@UEAAXXZ 0000000180004320 f   GuSecondaryPruner.obj
 0001:00003320       ?checkTreeLeaf@IncrementalAABBTree@Gu@physx@@QEAAXPEAVIncrementalAABBTreeNode@23@I@Z 0000000180004320 f   GuIncrementalAABBTree.obj
 0001:00003320       ?execute@?$PxThreadT@V?$PxReflectionAllocator@VPxThreadImpl@physx@@@physx@@@physx@@UEAAXXZ 0000000180004320 f   GuSDF.obj
 0001:00003320       ?execute@PxRunnable@physx@@UEAAXXZ 0000000180004320 f   GuSDF.obj
 0001:00003320       ?merge@BucketPruner@Gu@physx@@UEAAXPEBX@Z 0000000180004320 f   GuBucketPruner.obj
 0001:00003320       ?merge@IncrementalAABBPruner@Gu@physx@@UEAAXPEBX@Z 0000000180004320 f   GuIncrementalAABBPruner.obj
 0001:00003320       ?onMeshIndexFormatChange@TriangleMeshBuilder@physx@@UEAAXXZ 0000000180004320 f   GuCookingTriangleMesh.obj
 0001:00003320       ?profile@Callback@RTree@Gu@physx@@UEAAXXZ 0000000180004320 f   GuMidphaseRTree.obj
 0001:00003320       ?purge@BucketPruner@Gu@physx@@UEAAXXZ 0000000180004320 f   GuBucketPruner.obj
 0001:00003320       ?requiresObjects@ConvexMesh@Gu@physx@@UEAAXAEAVPxProcessPxBaseCallback@3@@Z 0000000180004320 f   GuConvexMesh.obj
 0001:00003320       ?requiresObjects@HeightField@Gu@physx@@UEAAXAEAVPxProcessPxBaseCallback@3@@Z 0000000180004320 f   GuHeightField.obj
 0001:00003320       ?requiresObjects@SoftBodyMesh@Gu@physx@@UEAAXAEAVPxProcessPxBaseCallback@3@@Z 0000000180004320 f   GuTetrahedronMesh.obj
 0001:00003320       ?requiresObjects@TriangleMesh@Gu@physx@@UEAAXAEAVPxProcessPxBaseCallback@3@@Z 0000000180004320 f   GuTriangleMesh.obj
 0001:00003320       ?swapIndex@CompanionPrunerAABBTree@@UEAAXII@Z 0000000180004320 f   GuSecondaryPruner.obj
 0001:00003320       ?swapIndex@CompanionPrunerBucket@@UEAAXII@Z 0000000180004320 f   GuSecondaryPruner.obj
 0001:00003320       ?timeStampChange@CompanionPrunerAABBTree@@UEAAXXZ 0000000180004320 f   GuSecondaryPruner.obj
 0001:00003320       ?timeStampChange@CompanionPrunerBucket@@UEAAXXZ 0000000180004320 f   GuSecondaryPruner.obj
 0001:00003320       ?visualize@BasePruner@Gu@physx@@UEBAXAEAVPxRenderOutput@3@II@Z 0000000180004320 f   GuIncrementalAABBPruner.obj
 0001:00003320       _guard_check_icall_nop     0000000180004320 f   LIBCMT:guard_support.obj
 0001:00003330       ??4AABBTreeBounds@Gu@physx@@QEAAAEAV012@AEBV012@@Z 0000000180004330 f i GuMeshFactory.obj
 0001:00003330       ??4CmModuleUpdateLoader@Cm@physx@@QEAAAEAV012@AEBV012@@Z 0000000180004330 f i CmWindowsModuleUpdateLoader.obj
 0001:00003330       ??4PtrTable@Cm@physx@@QEAAAEAU012@AEBU012@@Z 0000000180004330 f i CmPtrTable.obj
 0001:00003340       ?add@PtrTable@Cm@physx@@QEAAXPEAXAEAVPtrTableStorageManager@23@@Z 0000000180004340 f   CmPtrTable.obj
 0001:00003450       ?clear@PtrTable@Cm@physx@@QEAAXAEAVPtrTableStorageManager@23@@Z 0000000180004450 f   CmPtrTable.obj
 0001:000034c0       ?exportExtraData@PtrTable@Cm@physx@@QEAAXAEAVPxSerializationContext@3@@Z 00000001800044c0 f   CmPtrTable.obj
 0001:00003510       ?find@PtrTable@Cm@physx@@QEBAIPEBX@Z 0000000180004510 f   CmPtrTable.obj
 0001:00003540       ?getBinaryMetaData@PtrTable@Cm@physx@@SAXAEAVPxOutputStream@3@@Z 0000000180004540 f   CmPtrTable.obj
 0001:00003730       ?getCount@PtrTable@Cm@physx@@QEBAIXZ 0000000180004730 f i CmPtrTable.obj
 0001:00003740       ?getPtrs@PtrTable@Cm@physx@@QEAAPEAPEAXXZ 0000000180004740 f i CmPtrTable.obj
 0001:00003740       ?getPtrs@PtrTable@Cm@physx@@QEBAPEBQEAXXZ 0000000180004740 f i CmPtrTable.obj
 0001:00003750       ?importExtraData@PtrTable@Cm@physx@@QEAAXAEAVPxDeserializationContext@3@@Z 0000000180004750 f   CmPtrTable.obj
 0001:00003780       ?realloc@PtrTable@Cm@physx@@AEAAXIIAEAVPtrTableStorageManager@23@@Z 0000000180004780 f   CmPtrTable.obj
 0001:00003810       ?replaceWithLast@PtrTable@Cm@physx@@QEAAXIAEAVPtrTableStorageManager@23@@Z 0000000180004810 f   CmPtrTable.obj
 0001:00003910       ??_ECollection@Cm@physx@@UEAAPEAXI@Z 0000000180004910 f i CmCollection.obj
 0001:00003910       ??_GCollection@Cm@physx@@UEAAPEAXI@Z 0000000180004910 f i CmCollection.obj
 0001:000039c0       ??_EPxCollection@physx@@MEAAPEAXI@Z 00000001800049c0 f i CmCollection.obj
 0001:000039c0       ??_GPxCollection@physx@@MEAAPEAXI@Z 00000001800049c0 f i CmCollection.obj
 0001:000039f0       ?add@Collection@Cm@physx@@UEAAXAEAVPxBase@3@_K@Z 00000001800049f0 f   CmCollection.obj
 0001:00003ae0       ?add@Collection@Cm@physx@@UEAAXAEAVPxCollection@3@@Z 0000000180004ae0 f   CmCollection.obj
 0001:00003c80       ?addId@Collection@Cm@physx@@UEAAXAEAVPxBase@3@_K@Z 0000000180004c80 f   CmCollection.obj
 0001:00003db0       ?contains@Collection@Cm@physx@@UEBA_NAEAVPxBase@3@@Z 0000000180004db0 f   CmCollection.obj
 0001:00003e60       ?create@?$PxHashBase@V?$PxPair@$$CB_KPEAVPxBase@physx@@@physx@@_KU?$PxHash@_K@2@UGetKey@?$PxHashMapBase@_KPEAVPxBase@physx@@U?$PxHash@_K@2@VPxAllocator@2@@2@VPxAllocator@2@$00@physx@@QEAAPEAV?$PxPair@$$CB_KPEAVPxBase@physx@@@2@AEB_KAEA_N@Z 0000000180004e60 f i CmCollection.obj
 0001:00003e60       ?create@?$PxHashBase@V?$PxPair@QEAVPxBase@physx@@_K@physx@@PEAVPxBase@2@U?$PxHash@PEAVPxBase@physx@@@2@UGetKey@?$PxHashMapBase@PEAVPxBase@physx@@_KU?$PxHash@PEAVPxBase@physx@@@2@VPxAllocator@2@@2@VPxAllocator@2@$00@physx@@QEAAPEAV?$PxPair@QEAVPxBase@physx@@_K@2@AEBQEAVPxBase@2@AEA_N@Z 0000000180004e60 f i CmCollection.obj
 0001:00003ff0       ?erase@?$PxHashBase@V?$PxPair@$$CB_KPEAVPxBase@physx@@@physx@@_KU?$PxHash@_K@2@UGetKey@?$PxHashMapBase@_KPEAVPxBase@physx@@U?$PxHash@_K@2@VPxAllocator@2@@2@VPxAllocator@2@$00@physx@@QEAA_NAEB_K@Z 0000000180004ff0 f i CmCollection.obj
 0001:00003ff0       ?erase@?$PxHashBase@V?$PxPair@QEAVPxBase@physx@@_K@physx@@PEAVPxBase@2@U?$PxHash@PEAVPxBase@physx@@@2@UGetKey@?$PxHashMapBase@PEAVPxBase@physx@@_KU?$PxHash@PEAVPxBase@physx@@@2@VPxAllocator@2@@2@VPxAllocator@2@$00@physx@@QEAA_NAEBQEAVPxBase@2@@Z 0000000180004ff0 f i CmCollection.obj
 0001:000041a0       ?find@?$PxHashMapBase@_KPEAVPxBase@physx@@U?$PxHash@_K@2@VPxAllocator@2@@physx@@QEBAPEBV?$PxPair@$$CB_KPEAVPxBase@physx@@@2@AEB_K@Z 00000001800051a0 f i CmCollection.obj
 0001:00004240       ?find@Collection@Cm@physx@@UEBAPEAVPxBase@3@_K@Z 0000000180005240 f   CmCollection.obj
 0001:00004270       ?getId@Collection@Cm@physx@@UEBA_KAEBVPxBase@3@@Z 0000000180005270 f   CmCollection.obj
 0001:00004320       ?getIds@Collection@Cm@physx@@UEBAIPEA_KII@Z 0000000180005320 f   CmCollection.obj
 0001:000043f0       ?getNbIds@Collection@Cm@physx@@UEBAIXZ 00000001800053f0 f   CmCollection.obj
 0001:00004400       ?getNbObjects@Collection@Cm@physx@@UEBAIXZ 0000000180005400 f   CmCollection.obj
 0001:00004410       ?getObject@Collection@Cm@physx@@UEBAAEAVPxBase@3@I@Z 0000000180005410 f   CmCollection.obj
 0001:00004420       ?getObjects@Collection@Cm@physx@@UEBAIPEAPEAVPxBase@3@II@Z 0000000180005420 f   CmCollection.obj
 0001:00004460       ?release@Collection@Cm@physx@@UEAAXXZ 0000000180005460 f i CmCollection.obj
 0001:00004480       ?remove@Collection@Cm@physx@@UEAAXAEAVPxBase@3@@Z 0000000180005480 f   CmCollection.obj
 0001:00004570       ?remove@Collection@Cm@physx@@UEAAXAEAVPxCollection@3@@Z 0000000180005570 f   CmCollection.obj
 0001:00004680       ?removeId@Collection@Cm@physx@@UEAAX_K@Z 0000000180005680 f   CmCollection.obj
 0001:00004700       ?reserveInternal@?$PxHashBase@V?$PxPair@$$CB_KPEAVPxBase@physx@@@physx@@_KU?$PxHash@_K@2@UGetKey@?$PxHashMapBase@_KPEAVPxBase@physx@@U?$PxHash@_K@2@VPxAllocator@2@@2@VPxAllocator@2@$00@physx@@AEAAXI@Z 0000000180005700 f i CmCollection.obj
 0001:00004700       ?reserveInternal@?$PxHashBase@V?$PxPair@QEAVPxBase@physx@@_K@physx@@PEAVPxBase@2@U?$PxHash@PEAVPxBase@physx@@@2@UGetKey@?$PxHashMapBase@PEAVPxBase@physx@@_KU?$PxHash@PEAVPxBase@physx@@@2@VPxAllocator@2@@2@VPxAllocator@2@$00@physx@@AEAAXI@Z 0000000180005700 f i CmCollection.obj
 0001:000048e0       PxCreateCollection         00000001800058e0 f   CmCollection.obj
 0001:000049e0       ??0RadixSort@Cm@physx@@QEAA@XZ 00000001800059e0 f   CmRadixSort.obj
 0001:00004a10       ??0RadixSortBuffered@Cm@physx@@QEAA@XZ 0000000180005a10 f   CmRadixSort.obj
 0001:00004a40       ??1RadixSort@Cm@physx@@UEAA@XZ 0000000180005a40 f   CmRadixSort.obj
 0001:00004a50       ??1RadixSortBuffered@Cm@physx@@UEAA@XZ 0000000180005a50 f   CmRadixSort.obj
 0001:00004a80       ??_ERadixSort@Cm@physx@@UEAAPEAXI@Z 0000000180005a80 f i CmRadixSort.obj
 0001:00004b10       ??_ERadixSortBuffered@Cm@physx@@UEAAPEAXI@Z 0000000180005b10 f i CmRadixSort.obj
 0001:00004c00       ?CheckResize@RadixSortBuffered@Cm@physx@@AEAAXI@Z 0000000180005c00 f i CmRadixSort.obj
 0001:00004c40       ?GetNbHits@RadixSort@Cm@physx@@QEBAIXZ 0000000180005c40 f i CmRadixSort.obj
 0001:00004c50       ?GetNbTotalCalls@RadixSort@Cm@physx@@QEBAIXZ 0000000180005c50 f i CmRadixSort.obj
 0001:00004c60       ?GetRanks@RadixSort@Cm@physx@@QEBAPEBIXZ 0000000180005c60 f i CmRadixSort.obj
 0001:00004c60       ?getHeightField@HeightFieldUtil@Gu@physx@@QEBAAEBVHeightField@23@XZ 0000000180005c60 f i GuCCTSweepTests.obj
 0001:00004c60       ?getSimulationMesh@SoftBodyMesh@Gu@physx@@UEAAPEAVPxTetrahedronMesh@3@XZ 0000000180005c60 f i GuTetrahedronMesh.obj
 0001:00004c60       ?getSimulationMesh@SoftBodyMesh@Gu@physx@@UEBAPEBVPxTetrahedronMesh@3@XZ 0000000180005c60 f i GuTetrahedronMesh.obj
 0001:00004c70       ?GetRecyclable@RadixSort@Cm@physx@@QEBAPEAIXZ 0000000180005c70 f i CmRadixSort.obj
 0001:00004c70       ?GetValencies@BigConvexData@physx@@QEBAPEBUValency@Gu@2@XZ 0000000180005c70 f i GuMetaData.obj
 0001:00004c70       ?getCollisionMesh@SoftBodyMesh@Gu@physx@@UEAAPEAVPxTetrahedronMesh@3@XZ 0000000180005c70 f i GuTetrahedronMesh.obj
 0001:00004c70       ?getCollisionMesh@SoftBodyMesh@Gu@physx@@UEBAPEBVPxTetrahedronMesh@3@XZ 0000000180005c70 f i GuTetrahedronMesh.obj
 0001:00004c70       ?getHeightFieldGeometry@HeightFieldUtil@Gu@physx@@QEBAAEBVPxHeightFieldGeometry@3@XZ 0000000180005c70 f i GuCCTSweepTests.obj
 0001:00004c70       ?getObjects@PruningPool@Gu@physx@@QEBAPEAUPrunerPayload@23@XZ 0000000180005c70 f i GuIncrementalAABBPrunerCore.obj
 0001:00004c70       ?getPos@AABBTreeBuildNode@Gu@physx@@QEBAPEBV123@XZ 0000000180005c70 f i GuMeshFactory.obj
 0001:00004c70       ?getVertices@TetrahedronMesh@Gu@physx@@UEBAPEBV?$PxVec3T@M@3@XZ 0000000180005c70 f i GuTetrahedronMesh.obj
 0001:00004c70       ?getVertices@TriangleMesh@Gu@physx@@UEBAPEBV?$PxVec3T@M@3@XZ 0000000180005c70 f i GuTriangleMesh.obj
 0001:00004c80       ?Resize@RadixSortBuffered@Cm@physx@@AEAA_NI@Z 0000000180005c80 f   CmRadixSort.obj
 0001:00004d70       ?SetBuffers@RadixSort@Cm@physx@@QEAA_NPEAI00PEAPEAI@Z 0000000180005d70 f   CmRadixSort.obj
 0001:00004db0       ?Sort@RadixSort@Cm@physx@@QEAAAEAV123@PEBIIW4RadixHint@23@@Z 0000000180005db0 f   CmRadixSort.obj
 0001:00005460       ?Sort@RadixSort@Cm@physx@@QEAAAEAV123@PEBMI@Z 0000000180006460 f   CmRadixSort.obj
 0001:00005c00       ?Sort@RadixSortBuffered@Cm@physx@@QEAAAEAV123@PEBIIW4RadixHint@23@@Z 0000000180006c00 f   CmRadixSort.obj
 0001:00005ca0       ?Sort@RadixSortBuffered@Cm@physx@@QEAAAEAV123@PEBMI@Z 0000000180006ca0 f   CmRadixSort.obj
 0001:00005d30       ?invalidateRanks@RadixSort@Cm@physx@@QEAAXXZ 0000000180006d30 f i CmRadixSort.obj
 0001:00005d40       ?reset@RadixSortBuffered@Cm@physx@@QEAAXXZ 0000000180006d40 f   CmRadixSort.obj
 0001:00005dc0       ?ReadHeader@Cm@physx@@YA_NEEEEAEAIAEA_NAEAVPxInputStream@2@@Z 0000000180006dc0 f   CmSerialize.obj
 0001:00005f20       ?ReadIndices@Cm@physx@@YAXGIPEAGAEAVPxInputStream@2@_N@Z 0000000180006f20 f   CmSerialize.obj
 0001:00006070       ?StoreIndices@Cm@physx@@YAXGIPEBGAEAVPxOutputStream@2@_N@Z 0000000180007070 f   CmSerialize.obj
 0001:00006160       ?WriteHeader@Cm@physx@@YA_NEEEEI_NAEAVPxOutputStream@2@@Z 0000000180007160 f   CmSerialize.obj
 0001:00006290       ?computeMaxIndex@physx@@YAGPEBGI@Z 0000000180007290 f   CmSerialize.obj
 0001:000062c0       ?computeMaxIndex@physx@@YAIPEBII@Z 00000001800072c0 f   CmSerialize.obj
 0001:000062f0       ?readByteBuffer@physx@@YAXPEAEIAEAVPxInputStream@1@@Z 00000001800072f0 f   CmSerialize.obj
 0001:000062f0       ?writeByteBuffer@physx@@YAXPEBEIAEAVPxOutputStream@1@@Z 00000001800072f0 f   CmSerialize.obj
 0001:00006310       ?readChunk@physx@@YAXAEAC000AEAVPxInputStream@1@@Z 0000000180007310 f   CmSerialize.obj
 0001:00006390       ?readDword@physx@@YAI_NAEAVPxInputStream@1@@Z 0000000180007390 f   CmSerialize.obj
 0001:000063f0       ?readFloat@physx@@YAM_NAEAVPxInputStream@1@@Z 00000001800073f0 f   CmSerialize.obj
 0001:00006450       ?readFloatBuffer@physx@@YA_NPEAMI_NAEAVPxInputStream@1@@Z 0000000180007450 f   CmSerialize.obj
 0001:000064d0       ?readHeader@physx@@YA_NCCCCAEAIAEA_NAEAVPxInputStream@1@@Z 00000001800074d0 f   CmSerialize.obj
 0001:00006620       ?readIndices@physx@@YAXIIPEAIAEAVPxInputStream@1@_N@Z 0000000180007620 f   CmSerialize.obj
 0001:00006750       ?readWord@physx@@YAG_NAEAVPxInputStream@1@@Z 0000000180007750 f   CmSerialize.obj
 0001:00006790       ?readWordBuffer@physx@@YAXPEAGI_NAEAVPxInputStream@1@@Z 0000000180007790 f   CmSerialize.obj
 0001:00006800       ?storeIndices@physx@@YAXIIPEBIAEAVPxOutputStream@1@_N@Z 0000000180007800 f   CmSerialize.obj
 0001:00006990       ?writeDword@physx@@YAXI_NAEAVPxOutputStream@1@@Z 0000000180007990 f   CmSerialize.obj
 0001:000069e0       ?writeFloat@physx@@YAXM_NAEAVPxOutputStream@1@@Z 00000001800079e0 f   CmSerialize.obj
 0001:00006a30       ?writeFloatBuffer@physx@@YAXPEBMI_NAEAVPxOutputStream@1@@Z 0000000180007a30 f   CmSerialize.obj
 0001:00006ad0       ?writeHeader@physx@@YA_NCCCCI_NAEAVPxOutputStream@1@@Z 0000000180007ad0 f   CmSerialize.obj
 0001:00006c00       ?writeWord@physx@@YAXG_NAEAVPxOutputStream@1@@Z 0000000180007c00 f   CmSerialize.obj
 0001:00006c40       ?writeWordBuffer@physx@@YAXPEBGI_NAEAVPxOutputStream@1@@Z 0000000180007c40 f   CmSerialize.obj
 0001:00006cc0       ??0PxRenderOutput@physx@@QEAA@AEAVPxRenderBuffer@1@@Z 0000000180007cc0 f i CmVisualization.obj
 0001:00006d10       ??0PxRenderOutput@physx@@QEAA@AEBV01@@Z 0000000180007d10 f i CmVisualization.obj
 0001:00006db0       ??6PxRenderOutput@physx@@QEAAAEAV01@AEBV?$PxMat44T@M@1@@Z 0000000180007db0 f i CmVisualization.obj
 0001:00006e20       ??6PxRenderOutput@physx@@QEAAAEAV01@AEBV?$PxTransformT@M@1@@Z 0000000180007e20 f i CmVisualization.obj
 0001:00006fa0       ??6PxRenderOutput@physx@@QEAAAEAV01@AEBV?$PxVec3T@M@1@@Z 0000000180007fa0 f i CmVisualization.obj
 0001:00007290       ??6PxRenderOutput@physx@@QEAAAEAV01@I@Z 0000000180008290 f i CmVisualization.obj
 0001:000072a0       ??6PxRenderOutput@physx@@QEAAAEAV01@W4Primitive@01@@Z 00000001800082a0 f i CmVisualization.obj
 0001:000072b0       ?outputCapsule@PxRenderOutput@physx@@QEAAAEAV12@MMAEBV?$PxMat44T@M@2@@Z 00000001800082b0 f i CmVisualization.obj
 0001:00007df0       ?outputSegment@PxRenderOutput@physx@@QEAAXAEBV?$PxVec3T@M@2@0@Z 0000000180008df0 f i CmVisualization.obj
 0001:00007e60       ?renderOutputDebugArrow@Cm@physx@@YAXAEAVPxRenderOutput@2@AEBUPxDebugArrow@2@@Z 0000000180008e60 f   CmVisualization.obj
 0001:00008200       ?renderOutputDebugBasis@Cm@physx@@YAXAEAVPxRenderOutput@2@AEBUPxDebugBasis@2@@Z 0000000180009200 f   CmVisualization.obj
 0001:00008790       ?renderOutputDebugBox@Cm@physx@@YAXAEAVPxRenderOutput@2@AEBVPxBounds3@2@@Z 0000000180009790 f   CmVisualization.obj
 0001:00008a00       ?renderOutputDebugCircle@Cm@physx@@YAXAEAVPxRenderOutput@2@IM@Z 0000000180009a00 f   CmVisualization.obj
 0001:00008ae0       ?reservePoints@PxRenderOutput@physx@@QEAAPEAUPxDebugPoint@2@I@Z 0000000180009ae0 f i CmVisualization.obj
 0001:00008af0       ?reserveSegments@PxRenderOutput@physx@@QEAAPEAUPxDebugLine@2@I@Z 0000000180009af0 f i CmVisualization.obj
 0001:00008b00       ?visualizeAngularLimit@Cm@physx@@YAXAEAVPxRenderOutput@2@MAEBV?$PxTransformT@M@2@MM_N@Z 0000000180009b00 f   CmVisualization.obj
 0001:00008ca0       ?visualizeDoubleCone@Cm@physx@@YAXAEAVPxRenderOutput@2@MAEBV?$PxTransformT@M@2@M_N@Z 0000000180009ca0 f   CmVisualization.obj
 0001:00008ed0       ?visualizeJointFrames@Cm@physx@@YAXAEAVPxRenderOutput@2@MAEBV?$PxTransformT@M@2@1@Z 0000000180009ed0 f   CmVisualization.obj
 0001:000099d0       ?visualizeLimitCone@Cm@physx@@YAXAEAVPxRenderOutput@2@MAEBV?$PxTransformT@M@2@MM_N@Z 000000018000a9d0 f   CmVisualization.obj
 0001:00009c10       ?visualizeLinearLimit@Cm@physx@@YAXAEAVPxRenderOutput@2@MAEBV?$PxTransformT@M@2@1M_N@Z 000000018000ac10 f   CmVisualization.obj
 0001:0000a210       ??0CmModuleUpdateLoader@Cm@physx@@QEAA@PEBD@Z 000000018000b210 f   CmWindowsModuleUpdateLoader.obj
 0001:0000a250       ??1CmModuleUpdateLoader@Cm@physx@@QEAA@XZ 000000018000b250 f   CmWindowsModuleUpdateLoader.obj
 0001:0000a280       ?LoadModule@CmModuleUpdateLoader@Cm@physx@@QEAAPEAUHINSTANCE__@@PEBD0@Z 000000018000b280 f   CmWindowsModuleUpdateLoader.obj
 0001:0000a2f0       __local_stdio_printf_options 000000018000b2f0 f i CmWindowsModuleUpdateLoader.obj
 0001:0000a300       printf                     000000018000b300 f i CmWindowsModuleUpdateLoader.obj
 0001:0000a360       ?commonDelayHook@@YAP6A_JXZIPEAUDelayLoadInfo@@@Z 000000018000b360 f   CmWindowsDelayLoadHook.obj
 0001:0000a440       PxSetPhysXCommonDelayLoadHook 000000018000b440 f   CmWindowsDelayLoadHook.obj
 0001:0000a450       ??0?$PxQuatT@M@physx@@QEAA@AEBV?$PxMat33T@M@1@@Z 000000018000b450 f i GuBox.obj
 0001:0000a650       ??0Box@Gu@physx@@QEAA@AEBV012@@Z 000000018000b650 f i GuBox.obj
 0001:0000a650       ??4Box@Gu@physx@@QEAAAEBV012@AEBV012@@Z 000000018000b650 f i GuBox.obj
 0001:0000a6b0       ??0Box@Gu@physx@@QEAA@AEBV?$PxVec3T@M@2@0AEBV?$PxMat33T@M@2@@Z 000000018000b6b0 f i GuBox.obj
 0001:0000a720       ??$forward@_K@std@@YA$$QEA_KAEA_K@Z 000000018000b720 f i libvcruntime:undname.obj
 0001:0000a720       ??0AABBTreeBuildNode@Gu@physx@@QEAA@XZ 000000018000b720 f i GuMeshFactory.obj
 0001:0000a720       ??0BigConvexData@physx@@QEAA@W4PxEMPTY@1@@Z 000000018000b720 f i GuMetaData.obj
 0001:0000a720       ??0Box@Gu@physx@@QEAA@XZ   000000018000b720 f i GuBox.obj
 0001:0000a720       ??0HeightFieldData@Gu@physx@@QEAA@W4PxEMPTY@2@@Z 000000018000b720 f i GuCCTSweepTests.obj
 0001:0000a720       ?getAABB@AABBTreeBuildNode@Gu@physx@@QEBAAEBVPxBounds3@3@XZ 000000018000b720 f i GuMeshFactory.obj
 0001:0000a720       ?getPaddedBounds@HeightFieldData@Gu@physx@@QEBAAEBVCenterExtentsPadded@23@XZ 000000018000b720 f i GuCCTSweepTests.obj
 0001:0000a730       ?computeAABBExtent@Box@Gu@physx@@QEBA?AV?$PxVec3T@M@3@XZ 000000018000b730 f i GuBox.obj
 0001:0000a7f0       ?computeBoxPoints@Box@Gu@physx@@QEBAXPEIAV?$PxVec3T@M@3@@Z 000000018000b7f0 f i GuBox.obj
 0001:0000a830       ?computeOBBPoints@Gu@physx@@YAXPEIAV?$PxVec3T@M@2@AEBV32@1111@Z 000000018000b830 f   GuBox.obj
 0001:0000aab0       ?create@Box@Gu@physx@@QEAAXAEBVCapsule@23@@Z 000000018000bab0 f   GuBox.obj
 0001:0000ace0       ?getBoxEdges@Gu@physx@@YAPEBEXZ 000000018000bce0 f   GuBox.obj
 0001:0000acf0       ?getTransform@Box@Gu@physx@@QEBA?AV?$PxTransformT@M@3@XZ 000000018000bcf0 f i GuBox.obj
 0001:0000ad50       ?isValid@Box@Gu@physx@@QEBA_NXZ 000000018000bd50 f i GuBox.obj
 0001:0000ad70       ?rotate@Box@Gu@physx@@QEBA?AV?$PxVec3T@M@3@AEBV43@@Z 000000018000bd70 f i GuBox.obj
 0001:0000ae00       ?rotateInv@Box@Gu@physx@@QEBA?AV?$PxVec3T@M@3@AEBV43@@Z 000000018000be00 f i GuBox.obj
 0001:0000ae90       ?setAxes@Box@Gu@physx@@QEAAXAEBV?$PxVec3T@M@3@00@Z 000000018000be90 f i GuBox.obj
 0001:0000aed0       ?setEmpty@Box@Gu@physx@@QEAAXXZ 000000018000bed0 f i GuBox.obj
 0001:0000af10       ?transform@Box@Gu@physx@@QEBA?AV?$PxVec3T@M@3@AEBV43@@Z 000000018000bf10 f i GuBox.obj
 0001:0000afb0       ?PxComputeBasisVectors@physx@@YAXAEBV?$PxVec3T@M@1@0AEAV21@11@Z 000000018000bfb0 f i GuCapsule.obj
 0001:0000b150       ?computeBoxAroundCapsule@Gu@physx@@YAXAEBVCapsule@12@AEAVBox@12@@Z 000000018000c150 f   GuCapsule.obj
 0001:0000b2a0       ??0HeightFieldData@Gu@physx@@QEAA@$$QEAU012@@Z 000000018000c2a0 f i GuCCTSweepTests.obj
 0001:0000b2a0       ??0HeightFieldData@Gu@physx@@QEAA@AEBU012@@Z 000000018000c2a0 f i GuCCTSweepTests.obj
 0001:0000b2a0       ??4HeightFieldData@Gu@physx@@QEAAAEAU012@$$QEAU012@@Z 000000018000c2a0 f i GuCCTSweepTests.obj
 0001:0000b2a0       ??4HeightFieldData@Gu@physx@@QEAAAEAU012@AEBU012@@Z 000000018000c2a0 f i GuCCTSweepTests.obj
 0001:0000b300       ??0HeightFieldData@Gu@physx@@QEAA@XZ 000000018000c300 f i GuCCTSweepTests.obj
 0001:0000b310       ??0HeightFieldTraceUtil@Gu@physx@@QEAA@AEBVPxHeightFieldGeometry@2@@Z 000000018000c310 f i GuCCTSweepTests.obj
 0001:0000b310       ??0HeightFieldUtil@Gu@physx@@QEAA@AEBVPxHeightFieldGeometry@2@@Z 000000018000c310 f i GuCCTSweepTests.obj
 0001:0000b350       ??4AABBTreeBuildParams@Gu@physx@@QEAAAEAV012@AEBV012@@Z 000000018000c350 f i GuMeshFactory.obj
 0001:0000b350       ??4HeightFieldTraceUtil@Gu@physx@@QEAAAEAV012@$$QEAV012@@Z 000000018000c350 f i GuCCTSweepTests.obj
 0001:0000b350       ??4HeightFieldTraceUtil@Gu@physx@@QEAAAEAV012@AEBV012@@Z 000000018000c350 f i GuCCTSweepTests.obj
 0001:0000b350       ??4HeightFieldUtil@Gu@physx@@QEAAAEAV012@AEBV012@@Z 000000018000c350 f i GuCCTSweepTests.obj
 0001:0000b370       ??4HeightFieldUtil@Gu@physx@@QEAAAEAV012@$$QEAV012@@Z 000000018000c370 f i GuCCTSweepTests.obj
 0001:0000b3d0       ??_EEntityReport@Gu@physx@@UEAAPEAXI@Z 000000018000c3d0 f i GuSweepsHF.obj
 0001:0000b3d0       ??_EOverlapCallback@PxBVH@physx@@UEAAPEAXI@Z 000000018000c3d0 f i GuQuerySystem.obj
 0001:0000b3d0       ??_EOverlapReport@Gu@physx@@UEAAPEAXI@Z 000000018000c3d0 f i GuCCTSweepTests.obj
 0001:0000b3d0       ??_ERaycastCallback@PxBVH@physx@@UEAAPEAXI@Z 000000018000c3d0 f i GuQuerySystem.obj
 0001:0000b3d0       ??_ERemapCallback@RTreeCooker@physx@@UEAAPEAXI@Z 000000018000c3d0 f i GuCookingTriangleMesh.obj
 0001:0000b3d0       ??_GEntityReport@Gu@physx@@UEAAPEAXI@Z 000000018000c3d0 f i GuSweepsHF.obj
 0001:0000b3d0       ??_GOverlapCallback@PxBVH@physx@@UEAAPEAXI@Z 000000018000c3d0 f i GuQuerySystem.obj
 0001:0000b3d0       ??_GOverlapReport@Gu@physx@@UEAAPEAXI@Z 000000018000c3d0 f i GuCCTSweepTests.obj
 0001:0000b3d0       ??_GRaycastCallback@PxBVH@physx@@UEAAPEAXI@Z 000000018000c3d0 f i GuQuerySystem.obj
 0001:0000b3d0       ??_GRemapCallback@RTreeCooker@physx@@UEAAPEAXI@Z 000000018000c3d0 f i GuCookingTriangleMesh.obj
 0001:0000b400       ??_H@YAXPEAX_K1P6APEAX0@Z@Z 000000018000c400 f i GuCCTSweepTests.obj
 0001:0000b450       ?ceilUp@HeightFieldTraceUtil@Gu@physx@@SAMM@Z 000000018000c450 f i GuCCTSweepTests.obj
 0001:0000b490       ?floorDown@HeightFieldTraceUtil@Gu@physx@@SAMM@Z 000000018000c490 f i GuCCTSweepTests.obj
 0001:0000b4d0       ?getHeightAtShapePoint@HeightFieldUtil@Gu@physx@@QEBAMMM@Z 000000018000c4d0 f i GuCCTSweepTests.obj
 0001:0000b530       ?getHeightInternal2@HeightField@Gu@physx@@QEBAMIMM@Z 000000018000c530 f i GuCCTSweepTests.obj
 0001:0000b6a0       ?getNormalAtShapePoint@HeightFieldUtil@Gu@physx@@QEBA?AV?$PxVec3T@M@3@MM@Z 000000018000c6a0 f i GuCCTSweepTests.obj
 0001:0000b760       ?getNormal_2@HeightField@Gu@physx@@QEBA?AV?$PxVec3T@M@3@IMMMMM@Z 000000018000c760 f i GuCCTSweepTests.obj
 0001:0000b880       ?getOneOverColumnScale@HeightFieldUtil@Gu@physx@@QEBAMXZ 000000018000c880 f i GuCCTSweepTests.obj
 0001:0000b890       ?getOneOverHeightScale@HeightFieldUtil@Gu@physx@@QEBAMXZ 000000018000c890 f i GuCCTSweepTests.obj
 0001:0000b8a0       ?getOneOverRowScale@HeightFieldUtil@Gu@physx@@QEBAMXZ 000000018000c8a0 f i GuCCTSweepTests.obj
 0001:0000b8b0       ?hf2shapen@HeightFieldUtil@Gu@physx@@QEBA?AV?$PxVec3T@M@3@AEBV43@@Z 000000018000c8b0 f i GuCCTSweepTests.obj
 0001:0000b8b0       ?shape2hfp@HeightFieldUtil@Gu@physx@@QEBA?AV?$PxVec3T@M@3@AEBV43@@Z 000000018000c8b0 f i GuCCTSweepTests.obj
 0001:0000b8f0       ?hf2shapep@HeightFieldUtil@Gu@physx@@QEBA?AV?$PxVec3T@M@3@AEBV43@@Z 000000018000c8f0 f i GuCCTSweepTests.obj
 0001:0000b930       ?hf2worldn@HeightFieldUtil@Gu@physx@@QEBA?AV?$PxVec3T@M@3@AEBV?$PxTransformT@M@3@AEBV43@@Z 000000018000c930 f i GuCCTSweepTests.obj
 0001:0000baa0       ?hf2worldp@HeightFieldUtil@Gu@physx@@QEBA?AV?$PxVec3T@M@3@AEBV?$PxTransformT@M@3@AEBV43@@Z 000000018000caa0 f i GuCCTSweepTests.obj
 0001:0000bc20       ?overlapAABBTriangles0to1@HeightFieldUtil@Gu@physx@@QEBAXAEBV?$PxTransformT@M@3@AEBVPxBounds3@3@AEAVOverlapReport@23@I@Z 000000018000cc20 f i GuCCTSweepTests.obj
 0001:0000bfc0       ?overlapAABBTriangles@HeightFieldUtil@Gu@physx@@QEBAXAEBV?$PxTransformT@M@3@0AEBVPxBounds3@3@AEAVOverlapReport@23@I@Z 000000018000cfc0 f i GuCCTSweepTests.obj
 0001:0000c5e0       ?overlapAABBTriangles@HeightFieldUtil@Gu@physx@@QEBAXAEBV?$PxTransformT@M@3@AEBVPxBounds3@3@AEAVOverlapReport@23@I@Z 000000018000d5e0 f i GuCCTSweepTests.obj
 0001:0000ccc0       ?sweepBoxTriangles_Precise@Gu@physx@@YA_NIPEBVPxTriangle@2@_NAEBVPxBoxGeometry@2@AEBV?$PxTransformT@M@2@AEBV?$PxVec3T@M@2@MAEAUPxGeomSweepHit@2@PEBIMV?$PxFlags@W4Enum@PxHitFlag@physx@@G@2@@Z 000000018000dcc0 f   GuCCTSweepTests.obj
 0001:0000da40       ?sweepBox_BoxGeom_Precise@@YA_NAEBVPxGeometry@physx@@AEBV?$PxTransformT@M@2@AEBVPxBoxGeometry@2@1AEBVBox@Gu@2@AEBV?$PxVec3T@M@2@MAEAUPxGeomSweepHit@2@V?$PxFlags@W4Enum@PxHitFlag@physx@@G@2@MPEAUPxQueryThreadContext@2@@Z 000000018000ea40 f   GuCCTSweepTests.obj
 0001:0000dc00       ?sweepBox_CapsuleGeom_Precise@@YA_NAEBVPxGeometry@physx@@AEBV?$PxTransformT@M@2@AEBVPxBoxGeometry@2@1AEBVBox@Gu@2@AEBV?$PxVec3T@M@2@MAEAUPxGeomSweepHit@2@V?$PxFlags@W4Enum@PxHitFlag@physx@@G@2@MPEAUPxQueryThreadContext@2@@Z 000000018000ec00 f   GuCCTSweepTests.obj
 0001:0000dfd0       ?sweepBox_HeightFieldGeom_Precise@@YA_NAEBVPxGeometry@physx@@AEBV?$PxTransformT@M@2@AEBVPxBoxGeometry@2@1AEBVBox@Gu@2@AEBV?$PxVec3T@M@2@MAEAUPxGeomSweepHit@2@V?$PxFlags@W4Enum@PxHitFlag@physx@@G@2@MPEAUPxQueryThreadContext@2@@Z 000000018000efd0 f   GuCCTSweepTests.obj
 0001:0000e7f0       ?sweepBox_SphereGeom_Precise@@YA_NAEBVPxGeometry@physx@@AEBV?$PxTransformT@M@2@AEBVPxBoxGeometry@2@1AEBVBox@Gu@2@AEBV?$PxVec3T@M@2@MAEAUPxGeomSweepHit@2@V?$PxFlags@W4Enum@PxHitFlag@physx@@G@2@MPEAUPxQueryThreadContext@2@@Z 000000018000f7f0 f   GuCCTSweepTests.obj
 0001:0000ead0       ?sweepCapsule_BoxGeom_Precise@@YA_NAEBVPxGeometry@physx@@AEBV?$PxTransformT@M@2@AEBVPxCapsuleGeometry@2@1AEBVCapsule@Gu@2@AEBV?$PxVec3T@M@2@MAEAUPxGeomSweepHit@2@V?$PxFlags@W4Enum@PxHitFlag@physx@@G@2@MPEAUPxQueryThreadContext@2@@Z 000000018000fad0 f   GuCCTSweepTests.obj
 0001:0000f130       ??0?$CacheMap@UCachedEdge@Gu@physx@@$0IA@@Gu@physx@@QEAA@XZ 0000000180010130 f i GuGeometryQuery.obj
 0001:0000f1f0       ??0?$CacheMap@UCachedVertex@Gu@physx@@$0IA@@Gu@physx@@QEAA@XZ 00000001800101f0 f i GuGeometryQuery.obj
 0001:0000f2b0       ??0MultiplePersistentContactManifold@Gu@physx@@QEAA@XZ 00000001800102b0 f i GuGeometryQuery.obj
 0001:0000f300       ??0PCMMeshContactGeneration@Gu@physx@@QEAA@AEBT__m128@@0AEBVPxTransformV@aos@2@1AEAVMultiplePersistentContactManifold@12@AEAVPxContactBuffer@2@PEAV?$PxInlineArray@I$0DMA@V?$PxReflectionAllocator@I@physx@@@2@PEAVPxRenderOutput@2@@Z 0000000180010300 f i GuGeometryQuery.obj
 0001:0000fc20       ??0PolygonalBox@Gu@physx@@QEAA@AEBV012@@Z 0000000180010c20 f i GuGeometryQuery.obj
 0001:0000fea0       ??4MultiplePersistentContactManifold@Gu@physx@@QEAAAEAV012@$$QEAV012@@Z 0000000180010ea0 f i GuGeometryQuery.obj
 0001:000101b0       ??4MultiplePersistentContactManifold@Gu@physx@@QEAAAEAV012@AEBV012@@Z 00000001800111b0 f i GuGeometryQuery.obj
 0001:000101d0       ??_E?$SupportLocalImpl@VBoxV@Gu@physx@@@Gu@physx@@UEAAPEAXI@Z 00000001800111d0 f i GuGeometryQuery.obj
 0001:000101d0       ??_E?$SupportLocalImpl@VConvexHullNoScaleV@Gu@physx@@@Gu@physx@@UEAAPEAXI@Z 00000001800111d0 f i GuMTD.obj
 0001:000101d0       ??_E?$SupportLocalImpl@VConvexHullV@Gu@physx@@@Gu@physx@@UEAAPEAXI@Z 00000001800111d0 f i GuGeometryQuery.obj
 0001:000101d0       ??_E?$SupportLocalImpl@VTriangleV@Gu@physx@@@Gu@physx@@UEAAPEAXI@Z 00000001800111d0 f i GuPCMContactConvexCommon.obj
 0001:000101d0       ??_G?$SupportLocalImpl@VBoxV@Gu@physx@@@Gu@physx@@UEAAPEAXI@Z 00000001800111d0 f i GuGeometryQuery.obj
 0001:000101d0       ??_G?$SupportLocalImpl@VConvexHullNoScaleV@Gu@physx@@@Gu@physx@@UEAAPEAXI@Z 00000001800111d0 f i GuMTD.obj
 0001:000101d0       ??_G?$SupportLocalImpl@VConvexHullV@Gu@physx@@@Gu@physx@@UEAAPEAXI@Z 00000001800111d0 f i GuGeometryQuery.obj
 0001:000101d0       ??_G?$SupportLocalImpl@VTriangleV@Gu@physx@@@Gu@physx@@UEAAPEAXI@Z 00000001800111d0 f i GuPCMContactConvexCommon.obj
 0001:00010200       ??_ESupportLocal@Gu@physx@@UEAAPEAXI@Z 0000000180011200 f i GuGeometryQuery.obj
 0001:00010200       ??_GSupportLocal@Gu@physx@@UEAAPEAXI@Z 0000000180011200 f i GuGeometryQuery.obj
 0001:00010230       ?clearManifold@MultiplePersistentContactManifold@Gu@physx@@QEAAXXZ 0000000180011230 f i GuGeometryQuery.obj
 0001:00010290       ?computeGeomBounds@PxGeometryQuery@physx@@SAXAEAVPxBounds3@2@AEBVPxGeometry@2@AEBV?$PxTransformT@M@2@MMV?$PxFlags@W4Enum@PxGeometryQueryFlag@physx@@I@2@@Z 0000000180011290 f   GuGeometryQuery.obj
 0001:00010310       ?computePenetration@PxGeometryQuery@physx@@SA_NAEAV?$PxVec3T@M@2@AEAMAEBVPxGeometry@2@AEBV?$PxTransformT@M@2@23V?$PxFlags@W4Enum@PxGeometryQueryFlag@physx@@I@2@@Z 0000000180011310 f   GuGeometryQuery.obj
 0001:00010430       ?doSupport@?$SupportLocalImpl@VBoxV@Gu@physx@@@Gu@physx@@UEBA?AT__m128@@AEBT4@@Z 0000000180011430 f i GuGeometryQuery.obj
 0001:00010460       ?doSupport@?$SupportLocalImpl@VBoxV@Gu@physx@@@Gu@physx@@UEBAXAEBT__m128@@AEAT4@1@Z 0000000180011460 f i GuGeometryQuery.obj
 0001:000104b0       ?doSupport@?$SupportLocalImpl@VConvexHullV@Gu@physx@@@Gu@physx@@UEBA?AT__m128@@AEBT4@@Z 00000001800114b0 f i GuGeometryQuery.obj
 0001:00010590       ?doSupport@?$SupportLocalImpl@VConvexHullV@Gu@physx@@@Gu@physx@@UEBAXAEBT__m128@@AEAT4@1@Z 0000000180011590 f i GuGeometryQuery.obj
 0001:000108f0       ?generateTriangleContacts@PxGeometryQuery@physx@@SA_NAEBVPxGeometry@2@AEBV?$PxTransformT@M@2@QEBV?$PxVec3T@M@2@IMMMAEAVPxContactBuffer@2@@Z 00000001800118f0 f   GuGeometryQuery.obj
 0001:00012280       ?getEmptyManifold@MultiplePersistentContactManifold@Gu@physx@@QEAAPEAVSinglePersistentContactManifold@23@XZ 0000000180013280 f i GuGeometryQuery.obj
 0001:000122a0       ?getManifold@MultiplePersistentContactManifold@Gu@physx@@QEAAPEAVSinglePersistentContactManifold@23@I@Z 00000001800132a0 f i GuGeometryQuery.obj
 0001:000122c0       ?getUniqueID@PxCustomGeometry@physx@@SAIXZ 00000001800132c0 f   GuGeometryQuery.obj
 0001:000122e0       ?getWorldBounds@PxGeometryQuery@physx@@SA?AVPxBounds3@2@AEBVPxGeometry@2@AEBV?$PxTransformT@M@2@M@Z 00000001800132e0 f   GuGeometryQuery.obj
 0001:00012350       ?hillClimbing@ConvexHullV@Gu@physx@@QEBAIAEBT__m128@@@Z 0000000180013350 f i GuGeometryQuery.obj
 0001:00012580       ?initialize@MultiplePersistentContactManifold@Gu@physx@@QEAAXXZ 0000000180013580 f i GuGeometryQuery.obj
 0001:000125e0       ?invalidate@MultiplePersistentContactManifold@Gu@physx@@QEAAIAEBVPxTransformV@aos@3@AEBT__m128@@1@Z 00000001800135e0 f i GuGeometryQuery.obj
 0001:00012650       ?invalidate@MultiplePersistentContactManifold@Gu@physx@@QEAAIAEBVPxTransformV@aos@3@AEBT__m128@@@Z 0000000180013650 f i GuGeometryQuery.obj
 0001:000126c0       ?isUnit@?$PxQuatT@M@physx@@QEBA_NXZ 00000001800136c0 f i GuGeometryQuery.obj
 0001:00012780       ?isValid@PxGeometryQuery@physx@@SA_NAEBVPxGeometry@2@@Z 0000000180013780 f   GuGeometryQuery.obj
 0001:00012a70       ?maxTransformPositionDelta@MultiplePersistentContactManifold@Gu@physx@@QEAA?AT__m128@@AEBT4@@Z 0000000180013a70 f i GuGeometryQuery.obj
 0001:00012ab0       ?maxTransformQuatDelta@MultiplePersistentContactManifold@Gu@physx@@QEAA?AT__m128@@AEBT4@@Z 0000000180013ab0 f i GuGeometryQuery.obj
 0001:00012af0       ?overlap@PxGeometryQuery@physx@@SA_NAEBVPxGeometry@2@AEBV?$PxTransformT@M@2@01V?$PxFlags@W4Enum@PxGeometryQueryFlag@physx@@I@2@PEAUPxQueryThreadContext@2@@Z 0000000180013af0 f   GuGeometryQuery.obj
 0001:00012bc0       ?pointDistance@PxGeometryQuery@physx@@SAMAEBV?$PxVec3T@M@2@AEBVPxGeometry@2@AEBV?$PxTransformT@M@2@PEAV32@PEAIV?$PxFlags@W4Enum@PxGeometryQueryFlag@physx@@I@2@@Z 0000000180013bc0 f   GuGeometryQuery.obj
 0001:00013340       ?populateVerts@?$SupportLocalImpl@VBoxV@Gu@physx@@@Gu@physx@@UEBAXPEBEIPEBV?$PxVec3T@M@3@PEAT__m128@@@Z 0000000180014340 f i GuGeometryQuery.obj
 0001:00013380       ?populateVerts@?$SupportLocalImpl@VConvexHullV@Gu@physx@@@Gu@physx@@UEBAXPEBEIPEBV?$PxVec3T@M@3@PEAT__m128@@@Z 0000000180014380 f i GuGeometryQuery.obj
 0001:000133e0       ?raycast@PxGeometryQuery@physx@@SAIAEBV?$PxVec3T@M@2@0AEBVPxGeometry@2@AEBV?$PxTransformT@M@2@MV?$PxFlags@W4Enum@PxHitFlag@physx@@G@2@IPEIAUPxGeomRaycastHit@2@IV?$PxFlags@W4Enum@PxGeometryQueryFlag@physx@@I@2@PEAUPxQueryThreadContext@2@@Z 00000001800143e0 f   GuGeometryQuery.obj
 0001:000134e0       ?reduceManifoldContactsInDifferentPatches@MultiplePersistentContactManifold@Gu@physx@@QEAAIPEAPEAUPCMContactPatch@23@IPEAVMeshPersistentContact@23@IAEBT__m128@@@Z 00000001800144e0 f i GuGeometryQuery.obj
 0001:00013650       ?refineContactPatchConnective@MultiplePersistentContactManifold@Gu@physx@@QEAAXPEAPEAUPCMContactPatch@23@IPEAVMeshPersistentContact@23@AEBT__m128@@@Z 0000000180014650 f i GuGeometryQuery.obj
 0001:00013740       ?refreshManifold@MultiplePersistentContactManifold@Gu@physx@@QEAAXAEBVPxMatTransformV@aos@3@AEBT__m128@@1@Z 0000000180014740 f i GuGeometryQuery.obj
 0001:00013840       ?setRelativeTransform@MultiplePersistentContactManifold@Gu@physx@@QEAAXAEBVPxTransformV@aos@3@@Z 0000000180014840 f i GuGeometryQuery.obj
 0001:00013850       ?supportVertexIndex@ConvexHullV@Gu@physx@@QEBAIAEBT__m128@@@Z 0000000180014850 f i GuGeometryQuery.obj
 0001:00013ad0       ?sweep@PxGeometryQuery@physx@@SA_NAEBV?$PxVec3T@M@2@MAEBVPxGeometry@2@AEBV?$PxTransformT@M@2@12AEAUPxGeomSweepHit@2@V?$PxFlags@W4Enum@PxHitFlag@physx@@G@2@MV?$PxFlags@W4Enum@PxGeometryQueryFlag@physx@@I@2@PEAUPxQueryThreadContext@2@@Z 0000000180014ad0 f   GuGeometryQuery.obj
 0001:00013f60       ?toBuffer@MultiplePersistentContactManifold@Gu@physx@@QEAAXPEIAE@Z 0000000180014f60 f i GuGeometryQuery.obj
 0001:00014040       ?computeBoxPoints@Gu@physx@@YAXAEBVPxBounds3@2@PEIAV?$PxVec3T@M@2@@Z 0000000180015040 f   GuInternal.obj
 0001:000140e0       ?computeSweptBox@Gu@physx@@YAXAEAVBox@12@AEBV?$PxVec3T@M@2@1AEBV?$PxMat33T@M@2@1M@Z 00000001800150e0 f   GuInternal.obj
 0001:00014620       ?getPlane@Gu@physx@@YA?AVPxPlane@2@AEBV?$PxTransformT@M@2@@Z 0000000180015620 f   GuInternal.obj
 0001:00014aa0       ??_ECallbackRaycast@RTree@Gu@physx@@UEAAPEAXI@Z 0000000180015aa0 f i GuMidphaseRTree.obj
 0001:00014aa0       ??_ECallbackRefit@RTree@Gu@physx@@UEAAPEAXI@Z 0000000180015aa0 f i GuTriangleMeshRTree.obj
 0001:00014aa0       ??_EPxInsertionCallback@physx@@MEAAPEAXI@Z 0000000180015aa0 f i GuMeshFactory.obj
 0001:00014aa0       ??_GCallbackRaycast@RTree@Gu@physx@@UEAAPEAXI@Z 0000000180015aa0 f i GuMidphaseRTree.obj
 0001:00014aa0       ??_GCallbackRefit@RTree@Gu@physx@@UEAAPEAXI@Z 0000000180015aa0 f i GuTriangleMeshRTree.obj
 0001:00014aa0       ??_GPxInsertionCallback@physx@@MEAAPEAXI@Z 0000000180015aa0 f i GuMeshFactory.obj
 0001:00014ad0       ??$copy@V?$PxReflectionAllocator@USlab@NodeAllocator@Gu@physx@@@physx@@@?$PxArray@USlab@NodeAllocator@Gu@physx@@V?$PxReflectionAllocator@USlab@NodeAllocator@Gu@physx@@@4@@physx@@IEAAXAEBV01@@Z 0000000180015ad0 f i GuMeshFactory.obj
 0001:00014b90       ??0AABBTreeBounds@Gu@physx@@QEAA@XZ 0000000180015b90 f i GuMeshFactory.obj
 0001:00014ba0       ??0AABBTreeBuildNode@Gu@physx@@QEAA@AEBV012@@Z 0000000180015ba0 f i GuMeshFactory.obj
 0001:00014ba0       ??4AABBTreeBuildNode@Gu@physx@@QEAAAEAV012@AEBV012@@Z 0000000180015ba0 f i GuMeshFactory.obj
 0001:00014be0       ??0AABBTreeBuildParams@Gu@physx@@QEAA@IIPEBVAABBTreeBounds@12@W4BVHBuildStrategy@12@@Z 0000000180015be0 f i GuMeshFactory.obj
 0001:00014c00       ??0MeshFactory@Gu@physx@@QEAA@XZ 0000000180015c00 f   GuMeshFactory.obj
 0001:00014e00       ??0NodeAllocator@Gu@physx@@QEAA@AEBV012@@Z 0000000180015e00 f i GuMeshFactory.obj
 0001:00014e40       ??0TriangleMeshData@Gu@physx@@QEAA@XZ 0000000180015e40 f i GuMeshFactory.obj
 0001:00014f50       ??1AABBTreeBounds@Gu@physx@@QEAA@XZ 0000000180015f50 f i GuMeshFactory.obj
 0001:00014f60       ??1AABBTreeBuildParams@Gu@physx@@QEAA@XZ 0000000180015f60 f i GuMeshFactory.obj
 0001:00014f60       ?reset@AABBTreeBuildParams@Gu@physx@@QEAAXXZ 0000000180015f60 f i GuMeshFactory.obj
 0001:00014fb0       ??1CollisionMeshMappingData@Gu@physx@@UEAA@XZ 0000000180015fb0 f i GuMeshFactory.obj
 0001:000150f0       ??1MeshDataBase@Gu@physx@@UEAA@XZ 00000001800160f0 f i GuMeshFactory.obj
 0001:00015230       ??1MeshFactory@Gu@physx@@MEAA@XZ 0000000180016230 f   GuMeshFactory.obj
 0001:00015360       ??1RTreeTriangleData@Gu@physx@@UEAA@XZ 0000000180016360 f i GuMeshFactory.obj
 0001:000153d0       ??1SoftBodyCollisionData@Gu@physx@@UEAA@XZ 00000001800163d0 f i GuMeshFactory.obj
 0001:00015500       ??1SoftBodySimulationData@Gu@physx@@UEAA@XZ 0000000180016500 f i GuMeshFactory.obj
 0001:00015610       ??1TetrahedronMeshData@Gu@physx@@QEAA@XZ 0000000180016610 f i GuMeshFactory.obj
 0001:000156a0       ??1TriangleMeshData@Gu@physx@@UEAA@XZ 00000001800166a0 f i GuMeshFactory.obj
 0001:000157d0       ??4NodeAllocator@Gu@physx@@QEAAAEAV012@AEBV012@@Z 00000001800167d0 f i GuMeshFactory.obj
 0001:00015880       ??_EMeshFactory@Gu@physx@@MEAAPEAXI@Z 0000000180016880 f i GuMeshFactory.obj
 0001:00015990       ??_FAABBTreeBuildParams@Gu@physx@@QEAAXXZ 0000000180016990 f i GuMeshFactory.obj
 0001:000159b0       ??_EBV4TriangleData@Gu@physx@@UEAAPEAXI@Z 00000001800169b0 f i GuMeshFactory.obj
 0001:000159b0       ??_GBV4TriangleData@Gu@physx@@UEAAPEAXI@Z 00000001800169b0 f i GuMeshFactory.obj
 0001:00015a40       ??_ECollisionMeshMappingData@Gu@physx@@UEAAPEAXI@Z 0000000180016a40 f i GuMeshFactory.obj
 0001:00015a40       ??_GCollisionMeshMappingData@Gu@physx@@UEAAPEAXI@Z 0000000180016a40 f i GuMeshFactory.obj
 0001:00015ab0       ??_EMeshDataBase@Gu@physx@@UEAAPEAXI@Z 0000000180016ab0 f i GuMeshFactory.obj
 0001:00015ab0       ??_GMeshDataBase@Gu@physx@@UEAAPEAXI@Z 0000000180016ab0 f i GuMeshFactory.obj
 0001:00015b20       ??_EPxCollisionMeshMappingData@physx@@UEAAPEAXI@Z 0000000180016b20 f i GuMeshFactory.obj
 0001:00015b20       ??_GPxCollisionMeshMappingData@physx@@UEAAPEAXI@Z 0000000180016b20 f i GuMeshFactory.obj
 0001:00015b70       ??_ERTreeTriangleData@Gu@physx@@UEAAPEAXI@Z 0000000180016b70 f i GuMeshFactory.obj
 0001:00015b70       ??_GRTreeTriangleData@Gu@physx@@UEAAPEAXI@Z 0000000180016b70 f i GuMeshFactory.obj
 0001:00015c20       ??_ESoftBodyCollisionData@Gu@physx@@UEAAPEAXI@Z 0000000180016c20 f i GuMeshFactory.obj
 0001:00015c20       ??_GSoftBodyCollisionData@Gu@physx@@UEAAPEAXI@Z 0000000180016c20 f i GuMeshFactory.obj
 0001:00015c90       ??_ESoftBodySimulationData@Gu@physx@@UEAAPEAXI@Z 0000000180016c90 f i GuMeshFactory.obj
 0001:00015c90       ??_GSoftBodySimulationData@Gu@physx@@UEAAPEAXI@Z 0000000180016c90 f i GuMeshFactory.obj
 0001:00015d00       ??_ETriangleMeshData@Gu@physx@@UEAAPEAXI@Z 0000000180016d00 f i GuMeshFactory.obj
 0001:00015d00       ??_GTriangleMeshData@Gu@physx@@UEAAPEAXI@Z 0000000180016d00 f i GuMeshFactory.obj
 0001:00015d70       ??_V@YAXPEAX_K@Z           0000000180016d70 f i LIBCMT:delete_array_size.obj
 0001:00015d70       ?__global_delete@@YAXPEAX_K@Z 0000000180016d70 f i GuMeshFactory.obj
 0001:00015d80       ?addBVH@MeshFactory@Gu@physx@@QEAAXPEAVBVH@23@_N@Z 0000000180016d80 f   GuMeshFactory.obj
 0001:00015e20       ?addConvexMesh@MeshFactory@Gu@physx@@QEAAXPEAVConvexMesh@23@_N@Z 0000000180016e20 f   GuMeshFactory.obj
 0001:00015ec0       ?addFactoryListener@MeshFactory@Gu@physx@@QEAAXAEAVMeshFactoryListener@23@@Z 0000000180016ec0 f   GuMeshFactory.obj
 0001:00015f30       ?addHeightField@MeshFactory@Gu@physx@@QEAAXPEAVHeightField@23@_N@Z 0000000180016f30 f   GuMeshFactory.obj
 0001:00015fd0       ?addSoftBodyMesh@MeshFactory@Gu@physx@@QEAAXPEAVSoftBodyMesh@23@_N@Z 0000000180016fd0 f   GuMeshFactory.obj
 0001:00016070       ?addTetrahedronMesh@MeshFactory@Gu@physx@@QEAAXPEAVTetrahedronMesh@23@_N@Z 0000000180017070 f   GuMeshFactory.obj
 0001:00016110       ?addTriangleMesh@MeshFactory@Gu@physx@@QEAAXPEAVTriangleMesh@23@_N@Z 0000000180017110 f   GuMeshFactory.obj
 0001:000161b0       ?allocate@?$PxArray@USlab@NodeAllocator@Gu@physx@@V?$PxReflectionAllocator@USlab@NodeAllocator@Gu@physx@@@4@@physx@@IEAAPEAUSlab@NodeAllocator@Gu@2@I@Z 00000001800171b0 f i GuMeshFactory.obj
 0001:00016250       ?allocateAdjacencies@TriangleMeshData@Gu@physx@@QEAAPEAIXZ 0000000180017250 f i GuMeshFactory.obj
 0001:000162c0       ?allocateExtraTrigData@TriangleMeshData@Gu@physx@@QEAAPEAEXZ 00000001800172c0 f i GuMeshFactory.obj
 0001:00016330       ?allocateFaceRemap@TriangleMeshData@Gu@physx@@QEAAPEAIXZ 0000000180017330 f i GuMeshFactory.obj
 0001:000163a0       ?allocateGridModelData@SoftBodySimulationData@Gu@physx@@QEAAXIIIIIII@Z 00000001800173a0 f i GuMeshFactory.obj
 0001:00016610       ?allocateMaterials@TetrahedronMeshData@Gu@physx@@QEAAPEAGXZ 0000000180017610 f i GuMeshFactory.obj
 0001:00016680       ?allocateMaterials@TriangleMeshData@Gu@physx@@QEAAPEAGXZ 0000000180017680 f i GuMeshFactory.obj
 0001:000166f0       ?allocateTetrahedrons@TetrahedronMeshData@Gu@physx@@QEAAXII@Z 00000001800176f0 f i GuMeshFactory.obj
 0001:00016780       ?allocateTriangles@TriangleMeshData@Gu@physx@@QEAAPEAXI_NI@Z 0000000180017780 f i GuMeshFactory.obj
 0001:00016870       ?allocateVertices@MeshDataBase@Gu@physx@@QEAAPEAV?$PxVec3T@M@3@I@Z 0000000180017870 f i GuMeshFactory.obj
 0001:000168e0       ?allocateVertices@TetrahedronMeshData@Gu@physx@@QEAAPEAV?$PxVec3T@M@3@II@Z 00000001800178e0 f i GuMeshFactory.obj
 0001:00016980       ?allocatemappingData@CollisionMeshMappingData@Gu@physx@@QEAAXIIII@Z 0000000180017980 f i GuMeshFactory.obj
 0001:00016b50       ?create@?$PxHashBase@PEAVBVH@Gu@physx@@PEAV123@U?$PxHash@PEAVBVH@Gu@physx@@@3@UGetKey@?$PxHashSetBase@PEAVBVH@Gu@physx@@U?$PxHash@PEAVBVH@Gu@physx@@@3@VPxAllocator@3@$00@3@VPxAllocator@3@$00@physx@@QEAAPEAPEAVBVH@Gu@2@AEBQEAV342@AEA_N@Z 0000000180017b50 f i GuMeshFactory.obj
 0001:00016b50       ?create@?$PxHashBase@PEAVConvexMesh@Gu@physx@@PEAV123@U?$PxHash@PEAVConvexMesh@Gu@physx@@@3@UGetKey@?$PxHashSetBase@PEAVConvexMesh@Gu@physx@@U?$PxHash@PEAVConvexMesh@Gu@physx@@@3@VPxAllocator@3@$00@3@VPxAllocator@3@$00@physx@@QEAAPEAPEAVConvexMesh@Gu@2@AEBQEAV342@AEA_N@Z 0000000180017b50 f i GuMeshFactory.obj
 0001:00016b50       ?create@?$PxHashBase@PEAVHeightField@Gu@physx@@PEAV123@U?$PxHash@PEAVHeightField@Gu@physx@@@3@UGetKey@?$PxHashSetBase@PEAVHeightField@Gu@physx@@U?$PxHash@PEAVHeightField@Gu@physx@@@3@VPxAllocator@3@$00@3@VPxAllocator@3@$00@physx@@QEAAPEAPEAVHeightField@Gu@2@AEBQEAV342@AEA_N@Z 0000000180017b50 f i GuMeshFactory.obj
 0001:00016b50       ?create@?$PxHashBase@PEAVSoftBodyMesh@Gu@physx@@PEAV123@U?$PxHash@PEAVSoftBodyMesh@Gu@physx@@@3@UGetKey@?$PxHashSetBase@PEAVSoftBodyMesh@Gu@physx@@U?$PxHash@PEAVSoftBodyMesh@Gu@physx@@@3@VPxAllocator@3@$00@3@VPxAllocator@3@$00@physx@@QEAAPEAPEAVSoftBodyMesh@Gu@2@AEBQEAV342@AEA_N@Z 0000000180017b50 f i GuMeshFactory.obj
 0001:00016b50       ?create@?$PxHashBase@PEAVTetrahedronMesh@Gu@physx@@PEAV123@U?$PxHash@PEAVTetrahedronMesh@Gu@physx@@@3@UGetKey@?$PxHashSetBase@PEAVTetrahedronMesh@Gu@physx@@U?$PxHash@PEAVTetrahedronMesh@Gu@physx@@@3@VPxAllocator@3@$00@3@VPxAllocator@3@$00@physx@@QEAAPEAPEAVTetrahedronMesh@Gu@2@AEBQEAV342@AEA_N@Z 0000000180017b50 f i GuMeshFactory.obj
 0001:00016b50       ?create@?$PxHashBase@PEAVTriangleMesh@Gu@physx@@PEAV123@U?$PxHash@PEAVTriangleMesh@Gu@physx@@@3@UGetKey@?$PxHashSetBase@PEAVTriangleMesh@Gu@physx@@U?$PxHash@PEAVTriangleMesh@Gu@physx@@@3@VPxAllocator@3@$00@3@VPxAllocator@3@$00@physx@@QEAAPEAPEAVTriangleMesh@Gu@2@AEBQEAV342@AEA_N@Z 0000000180017b50 f i GuMeshFactory.obj
 0001:00016ce0       ?createBVH@MeshFactory@Gu@physx@@IEAAPEAVPxBVH@3@AEAVBVHData@23@@Z 0000000180017ce0 f   GuMeshFactory.obj
 0001:00016e20       ?createBVH@MeshFactory@Gu@physx@@QEAAPEAVPxBVH@3@AEAVPxInputStream@3@@Z 0000000180017e20 f   GuMeshFactory.obj
 0001:00016f70       ?createBVH@MeshFactory@Gu@physx@@QEAAPEAVPxBVH@3@PEAX@Z 0000000180017f70 f   GuMeshFactory.obj
 0001:00016f80       ?createConvexMesh@MeshFactory@Gu@physx@@IEAAPEAVPxConvexMesh@3@AEAUConvexHullInitData@23@@Z 0000000180017f80 f   GuMeshFactory.obj
 0001:000170c0       ?createConvexMesh@MeshFactory@Gu@physx@@QEAAPEAVPxConvexMesh@3@AEAVPxInputStream@3@@Z 00000001800180c0 f   GuMeshFactory.obj
 0001:00017210       ?createConvexMesh@MeshFactory@Gu@physx@@QEAAPEAVPxConvexMesh@3@PEAX@Z 0000000180018210 f   GuMeshFactory.obj
 0001:00017220       ?createHeightField@MeshFactory@Gu@physx@@QEAAPEAVPxHeightField@3@AEAVPxInputStream@3@@Z 0000000180018220 f   GuMeshFactory.obj
 0001:00017370       ?createHeightField@MeshFactory@Gu@physx@@QEAAPEAVPxHeightField@3@PEAX@Z 0000000180018370 f   GuMeshFactory.obj
 0001:000174b0       ?createSoftBodyMesh@MeshFactory@Gu@physx@@IEAAPEAVPxSoftBodyMesh@3@AEAVSoftBodyMeshData@23@@Z 00000001800184b0 f   GuMeshFactory.obj
 0001:000175f0       ?createSoftBodyMesh@MeshFactory@Gu@physx@@QEAAPEAVPxSoftBodyMesh@3@AEAVPxInputStream@3@@Z 00000001800185f0 f   GuMeshFactory.obj
 0001:00017bb0       ?createSoftBodyMesh@MeshFactory@Gu@physx@@QEAAPEAVPxSoftBodyMesh@3@PEAX@Z 0000000180018bb0 f   GuMeshFactory.obj
 0001:00017bc0       ?createTetrahedronMesh@MeshFactory@Gu@physx@@IEAAPEAVPxTetrahedronMesh@3@AEAVTetrahedronMeshData@23@@Z 0000000180018bc0 f   GuMeshFactory.obj
 0001:00017cf0       ?createTetrahedronMesh@MeshFactory@Gu@physx@@QEAAPEAVPxTetrahedronMesh@3@AEAVPxInputStream@3@@Z 0000000180018cf0 f   GuMeshFactory.obj
 0001:00017d50       ?createTetrahedronMesh@MeshFactory@Gu@physx@@QEAAPEAVPxTetrahedronMesh@3@PEAX@Z 0000000180018d50 f   GuMeshFactory.obj
 0001:00017d60       ?createTriangleMesh@MeshFactory@Gu@physx@@IEAAPEAVPxTriangleMesh@3@AEAVTriangleMeshData@23@@Z 0000000180018d60 f   GuMeshFactory.obj
 0001:00017f20       ?createTriangleMesh@MeshFactory@Gu@physx@@QEAAPEAVPxTriangleMesh@3@AEAVPxInputStream@3@@Z 0000000180018f20 f   GuMeshFactory.obj
 0001:00017f80       ?createTriangleMesh@MeshFactory@Gu@physx@@QEAAPEAVPxTriangleMesh@3@PEAX@Z 0000000180018f80 f   GuMeshFactory.obj
 0001:00017f90       ?erase@?$PxHashBase@PEAVBVH@Gu@physx@@PEAV123@U?$PxHash@PEAVBVH@Gu@physx@@@3@UGetKey@?$PxHashSetBase@PEAVBVH@Gu@physx@@U?$PxHash@PEAVBVH@Gu@physx@@@3@VPxAllocator@3@$00@3@VPxAllocator@3@$00@physx@@QEAA_NAEBQEAVBVH@Gu@2@@Z 0000000180018f90 f i GuMeshFactory.obj
 0001:00017f90       ?erase@?$PxHashBase@PEAVConvexMesh@Gu@physx@@PEAV123@U?$PxHash@PEAVConvexMesh@Gu@physx@@@3@UGetKey@?$PxHashSetBase@PEAVConvexMesh@Gu@physx@@U?$PxHash@PEAVConvexMesh@Gu@physx@@@3@VPxAllocator@3@$00@3@VPxAllocator@3@$00@physx@@QEAA_NAEBQEAVConvexMesh@Gu@2@@Z 0000000180018f90 f i GuMeshFactory.obj
 0001:00017f90       ?erase@?$PxHashBase@PEAVHeightField@Gu@physx@@PEAV123@U?$PxHash@PEAVHeightField@Gu@physx@@@3@UGetKey@?$PxHashSetBase@PEAVHeightField@Gu@physx@@U?$PxHash@PEAVHeightField@Gu@physx@@@3@VPxAllocator@3@$00@3@VPxAllocator@3@$00@physx@@QEAA_NAEBQEAVHeightField@Gu@2@@Z 0000000180018f90 f i GuMeshFactory.obj
 0001:00017f90       ?erase@?$PxHashBase@PEAVSoftBodyMesh@Gu@physx@@PEAV123@U?$PxHash@PEAVSoftBodyMesh@Gu@physx@@@3@UGetKey@?$PxHashSetBase@PEAVSoftBodyMesh@Gu@physx@@U?$PxHash@PEAVSoftBodyMesh@Gu@physx@@@3@VPxAllocator@3@$00@3@VPxAllocator@3@$00@physx@@QEAA_NAEBQEAVSoftBodyMesh@Gu@2@@Z 0000000180018f90 f i GuMeshFactory.obj
 0001:00017f90       ?erase@?$PxHashBase@PEAVTetrahedronMesh@Gu@physx@@PEAV123@U?$PxHash@PEAVTetrahedronMesh@Gu@physx@@@3@UGetKey@?$PxHashSetBase@PEAVTetrahedronMesh@Gu@physx@@U?$PxHash@PEAVTetrahedronMesh@Gu@physx@@@3@VPxAllocator@3@$00@3@VPxAllocator@3@$00@physx@@QEAA_NAEBQEAVTetrahedronMesh@Gu@2@@Z 0000000180018f90 f i GuMeshFactory.obj
 0001:00017f90       ?erase@?$PxHashBase@PEAVTriangleMesh@Gu@physx@@PEAV123@U?$PxHash@PEAVTriangleMesh@Gu@physx@@@3@UGetKey@?$PxHashSetBase@PEAVTriangleMesh@Gu@physx@@U?$PxHash@PEAVTriangleMesh@Gu@physx@@@3@VPxAllocator@3@$00@3@VPxAllocator@3@$00@physx@@QEAA_NAEBQEAVTriangleMesh@Gu@2@@Z 0000000180018f90 f i GuMeshFactory.obj
 0001:00018110       ?getBVHs@MeshFactory@Gu@physx@@QEBAIPEAPEAVPxBVH@3@II@Z 0000000180019110 f   GuMeshFactory.obj
 0001:000181b0       ?getBounds@AABBTreeBounds@Gu@physx@@QEAAPEAVPxBounds3@3@XZ 00000001800191b0 f i GuMeshFactory.obj
 0001:000181b0       ?getBounds@AABBTreeBounds@Gu@physx@@QEBAPEBVPxBounds3@3@XZ 00000001800191b0 f i GuMeshFactory.obj
 0001:000181c0       ?getConvexMeshes@MeshFactory@Gu@physx@@QEBAIPEAPEAVPxConvexMesh@3@II@Z 00000001800191c0 f   GuMeshFactory.obj
 0001:00018260       ?getHeightFields@MeshFactory@Gu@physx@@QEBAIPEAPEAVPxHeightField@3@II@Z 0000000180019260 f   GuMeshFactory.obj
 0001:00018300       ?getNbBVHs@MeshFactory@Gu@physx@@QEBAIXZ 0000000180019300 f   GuMeshFactory.obj
 0001:00018340       ?getNbConvexMeshes@MeshFactory@Gu@physx@@QEBAIXZ 0000000180019340 f   GuMeshFactory.obj
 0001:00018380       ?getNbHeightFields@MeshFactory@Gu@physx@@QEBAIXZ 0000000180019380 f   GuMeshFactory.obj
 0001:000183c0       ?getNbPrimitives@AABBTreeBuildNode@Gu@physx@@QEBAIXZ 00000001800193c0 f i GuMeshFactory.obj
 0001:000183c0       ?getNbRuntimePrimitives@AABBTreeBuildNode@Gu@physx@@QEBAIXZ 00000001800193c0 f i GuMeshFactory.obj
 0001:000183d0       ?getNbSoftBodyMeshes@MeshFactory@Gu@physx@@QEBAIXZ 00000001800193d0 f   GuMeshFactory.obj
 0001:00018410       ?getNbTetrahedronMeshes@MeshFactory@Gu@physx@@QEBAIXZ 0000000180019410 f   GuMeshFactory.obj
 0001:00018450       ?getNbTriangleMeshes@MeshFactory@Gu@physx@@QEBAIXZ 0000000180019450 f   GuMeshFactory.obj
 0001:00018490       ?getNeg@AABBTreeBuildNode@Gu@physx@@QEBAPEBV123@XZ 0000000180019490 f i GuMeshFactory.obj
 0001:000184b0       ?getPrimitives@AABBTreeBuildNode@Gu@physx@@QEAAPEAIPEAI@Z 00000001800194b0 f i GuMeshFactory.obj
 0001:000184b0       ?getPrimitives@AABBTreeBuildNode@Gu@physx@@QEBAPEBIPEBI@Z 00000001800194b0 f i GuMeshFactory.obj
 0001:000184c0       ?getSoftBodyMeshes@MeshFactory@Gu@physx@@QEBAIPEAPEAVPxSoftBodyMesh@3@II@Z 00000001800194c0 f   GuMeshFactory.obj
 0001:00018560       ?getTetrahedronMeshes@MeshFactory@Gu@physx@@QEBAIPEAPEAVPxTetrahedronMesh@3@II@Z 0000000180019560 f   GuMeshFactory.obj
 0001:000185f0       ?getTriangleMeshes@MeshFactory@Gu@physx@@QEBAIPEAPEAVPxTriangleMesh@3@II@Z 00000001800195f0 f   GuMeshFactory.obj
 0001:00018680       ?growAndPushBack@?$PxArray@PEAVMeshFactoryListener@Gu@physx@@V?$PxReflectionAllocator@PEAVMeshFactoryListener@Gu@physx@@@3@@physx@@IEAAAEAPEAVMeshFactoryListener@Gu@2@AEBQEAV342@@Z 0000000180019680 f i GuMeshFactory.obj
 0001:000187a0       ?isLeaf@AABBTreeBuildNode@Gu@physx@@QEBA_NXZ 00000001800197a0 f i GuMeshFactory.obj
 0001:0001a180       ?moveFrom@AABBTreeBounds@Gu@physx@@QEAAXAEAV123@@Z 000000018001b180 f i GuMeshFactory.obj
 0001:0001a190       ?notifyFactoryListener@MeshFactory@Gu@physx@@QEAAXPEBVPxBase@3@G@Z 000000018001b190 f   GuMeshFactory.obj
 0001:0001a200       ?notifyListenersAdd@MeshFactory@Gu@physx@@IEAAXPEBVPxBase@3@@Z 000000018001b200 f   GuMeshFactory.obj
 0001:0001a250       ?notifyListenersRemove@MeshFactory@Gu@physx@@IEAAXPEBVPxBase@3@@Z 000000018001b250 f   GuMeshFactory.obj
 0001:0001a2a0       ?ownsMemory@AABBTreeBounds@Gu@physx@@QEBA_NXZ 000000018001b2a0 f i GuMeshFactory.obj
 0001:0001a580       ?recreate@?$PxArray@USlab@NodeAllocator@Gu@physx@@V?$PxReflectionAllocator@USlab@NodeAllocator@Gu@physx@@@4@@physx@@IEAAXI@Z 000000018001b580 f i GuMeshFactory.obj
 0001:0001a630       ?release@CollisionMeshMappingData@Gu@physx@@UEAAXXZ 000000018001b630 f i GuMeshFactory.obj
 0001:0001a650       ?release@MeshFactory@Gu@physx@@QEAAXXZ 000000018001b650 f   GuMeshFactory.obj
 0001:0001a750       ?remove@MeshFactory@Gu@physx@@QEAA_NAEAVPxBase@3@@Z 000000018001b750 f   GuMeshFactory.obj
 0001:0001a7a0       ?removeBVH@MeshFactory@Gu@physx@@QEAA_NAEAVPxBVH@3@@Z 000000018001b7a0 f   GuMeshFactory.obj
 0001:0001a830       ?removeConvexMesh@MeshFactory@Gu@physx@@QEAA_NAEAVPxConvexMesh@3@@Z 000000018001b830 f   GuMeshFactory.obj
 0001:0001a8c0       ?removeFactoryListener@MeshFactory@Gu@physx@@QEAAXAEAVMeshFactoryListener@23@@Z 000000018001b8c0 f   GuMeshFactory.obj
 0001:0001a950       ?removeHeightField@MeshFactory@Gu@physx@@QEAA_NAEAVPxHeightField@3@@Z 000000018001b950 f   GuMeshFactory.obj
 0001:0001a9e0       ?removeSoftBodyMesh@MeshFactory@Gu@physx@@QEAA_NAEAVPxSoftBodyMesh@3@@Z 000000018001b9e0 f   GuMeshFactory.obj
 0001:0001aa70       ?removeTetrahedronMesh@MeshFactory@Gu@physx@@QEAA_NAEAVPxTetrahedronMesh@3@@Z 000000018001ba70 f   GuMeshFactory.obj
 0001:0001ab00       ?removeTriangleMesh@MeshFactory@Gu@physx@@QEAA_NAEAVPxTriangleMesh@3@@Z 000000018001bb00 f   GuMeshFactory.obj
 0001:0001ab90       ?reserveInternal@?$PxHashBase@PEAVBVH@Gu@physx@@PEAV123@U?$PxHash@PEAVBVH@Gu@physx@@@3@UGetKey@?$PxHashSetBase@PEAVBVH@Gu@physx@@U?$PxHash@PEAVBVH@Gu@physx@@@3@VPxAllocator@3@$00@3@VPxAllocator@3@$00@physx@@AEAAXI@Z 000000018001bb90 f i GuMeshFactory.obj
 0001:0001ab90       ?reserveInternal@?$PxHashBase@PEAVConvexMesh@Gu@physx@@PEAV123@U?$PxHash@PEAVConvexMesh@Gu@physx@@@3@UGetKey@?$PxHashSetBase@PEAVConvexMesh@Gu@physx@@U?$PxHash@PEAVConvexMesh@Gu@physx@@@3@VPxAllocator@3@$00@3@VPxAllocator@3@$00@physx@@AEAAXI@Z 000000018001bb90 f i GuMeshFactory.obj
 0001:0001ab90       ?reserveInternal@?$PxHashBase@PEAVHeightField@Gu@physx@@PEAV123@U?$PxHash@PEAVHeightField@Gu@physx@@@3@UGetKey@?$PxHashSetBase@PEAVHeightField@Gu@physx@@U?$PxHash@PEAVHeightField@Gu@physx@@@3@VPxAllocator@3@$00@3@VPxAllocator@3@$00@physx@@AEAAXI@Z 000000018001bb90 f i GuMeshFactory.obj
 0001:0001ab90       ?reserveInternal@?$PxHashBase@PEAVSoftBodyMesh@Gu@physx@@PEAV123@U?$PxHash@PEAVSoftBodyMesh@Gu@physx@@@3@UGetKey@?$PxHashSetBase@PEAVSoftBodyMesh@Gu@physx@@U?$PxHash@PEAVSoftBodyMesh@Gu@physx@@@3@VPxAllocator@3@$00@3@VPxAllocator@3@$00@physx@@AEAAXI@Z 000000018001bb90 f i GuMeshFactory.obj
 0001:0001ab90       ?reserveInternal@?$PxHashBase@PEAVTetrahedronMesh@Gu@physx@@PEAV123@U?$PxHash@PEAVTetrahedronMesh@Gu@physx@@@3@UGetKey@?$PxHashSetBase@PEAVTetrahedronMesh@Gu@physx@@U?$PxHash@PEAVTetrahedronMesh@Gu@physx@@@3@VPxAllocator@3@$00@3@VPxAllocator@3@$00@physx@@AEAAXI@Z 000000018001bb90 f i GuMeshFactory.obj
 0001:0001ab90       ?reserveInternal@?$PxHashBase@PEAVTriangleMesh@Gu@physx@@PEAV123@U?$PxHash@PEAVTriangleMesh@Gu@physx@@@3@UGetKey@?$PxHashSetBase@PEAVTriangleMesh@Gu@physx@@U?$PxHash@PEAVTriangleMesh@Gu@physx@@@3@VPxAllocator@3@$00@3@VPxAllocator@3@$00@physx@@AEAAXI@Z 000000018001bb90 f i GuMeshFactory.obj
 0001:0001ad60       ?setBounds@AABBTreeBounds@Gu@physx@@QEAAXPEAVPxBounds3@3@@Z 000000018001bd60 f i GuMeshFactory.obj
 0001:0001ad70       ?setNbRunTimePrimitives@AABBTreeBuildNode@Gu@physx@@QEAAXI@Z 000000018001bd70 f i GuMeshFactory.obj
 0001:0001ad80       ?takeOwnership@AABBTreeBounds@Gu@physx@@QEAAXXZ 000000018001bd80 f i GuMeshFactory.obj
 0001:0001ad90       getInsertionCallback       000000018001bd90 f   GuMeshFactory.obj
 0001:0001ada0       ??4BigConvexData@physx@@QEAAAEAV01@AEBV01@@Z 000000018001bda0 f i GuMetaData.obj
 0001:0001adc0       ?GetAdjacentVerts@BigConvexData@physx@@QEBAPEBEXZ 000000018001bdc0 f i GuMetaData.obj
 0001:0001adc0       ?getSoftBodyAuxData@SoftBodyMesh@Gu@physx@@UEAAPEAVPxSoftBodyAuxData@3@XZ 000000018001bdc0 f i GuTetrahedronMesh.obj
 0001:0001adc0       ?getSoftBodyAuxData@SoftBodyMesh@Gu@physx@@UEBAPEBVPxSoftBodyAuxData@3@XZ 000000018001bdc0 f i GuTetrahedronMesh.obj
 0001:0001adc0       ?getTransforms@PruningPool@Gu@physx@@QEAAPEAV?$PxTransformT@M@3@XZ 000000018001bdc0 f i GuIncrementalAABBPrunerCore.obj
 0001:0001adc0       ?getTransforms@PruningPool@Gu@physx@@QEBAPEBV?$PxTransformT@M@3@XZ 000000018001bdc0 f i GuIncrementalAABBPrunerCore.obj
 0001:0001adc0       ?getTriangles@TriangleMesh@Gu@physx@@UEBAPEBXXZ 000000018001bdc0 f i GuTriangleMesh.obj
 0001:0001add0       ?GetNbNeighbors@BigConvexData@physx@@QEBAGI@Z 000000018001bdd0 f i GuMetaData.obj
 0001:0001add0       ?GetValency@BigConvexData@physx@@QEBAGI@Z 000000018001bdd0 f i GuMetaData.obj
 0001:0001ade0       ?GetNbSamples@BigConvexData@physx@@QEBAIXZ 000000018001bde0 f i GuMetaData.obj
 0001:0001adf0       ?GetNbVerts@BigConvexData@physx@@QEBAIXZ 000000018001bdf0 f i GuMetaData.obj
 0001:0001adf0       ?getNbVertices@TetrahedronMesh@Gu@physx@@UEBAIXZ 000000018001bdf0 f i GuTetrahedronMesh.obj
 0001:0001adf0       ?getNbVertices@TriangleMesh@Gu@physx@@UEBAIXZ 000000018001bdf0 f i GuTriangleMesh.obj
 0001:0001adf0       ?length@pcharNode@@UEBAHXZ 000000018001bdf0 f i libvcruntime:undname.obj
 0001:0001adf0       ?raw_length@pcharNode@@UEBAHXZ 000000018001bdf0 f i libvcruntime:undname.obj
 0001:0001ae00       ?GetNeighbors@BigConvexData@physx@@QEBAPEBEI@Z 000000018001be00 f i GuMetaData.obj
 0001:0001ae10       ?GetOffset@BigConvexData@physx@@QEBAGI@Z 000000018001be10 f i GuMetaData.obj
 0001:0001ae20       ?GetSubdiv@BigConvexData@physx@@QEBAIXZ 000000018001be20 f i GuMetaData.obj
 0001:0001ae30       ?getBinaryMetaData@BV4Tree@Gu@physx@@SAXAEAVPxOutputStream@3@@Z 000000018001be30 f   GuMetaData.obj
 0001:0001b3d0       ?getBinaryMetaData@BV4TriangleMesh@Gu@physx@@SAXAEAVPxOutputStream@3@@Z 000000018001c3d0 f   GuMetaData.obj
 0001:0001b750       ?getBinaryMetaData@BigConvexData@physx@@SAXAEAVPxOutputStream@2@@Z 000000018001c750 f   GuMetaData.obj
 0001:0001ba10       ?getBinaryMetaData@ConvexMesh@Gu@physx@@SAXAEAVPxOutputStream@3@@Z 000000018001ca10 f   GuMetaData.obj
 0001:0001c0a0       ?getBinaryMetaData@HeightField@Gu@physx@@SAXAEAVPxOutputStream@3@@Z 000000018001d0a0 f   GuMetaData.obj
 0001:0001c490       ?getBinaryMetaData@RTree@Gu@physx@@SAXAEAVPxOutputStream@3@@Z 000000018001d490 f   GuMetaData.obj
 0001:0001c7c0       ?getBinaryMetaData@RTreeTriangleMesh@Gu@physx@@SAXAEAVPxOutputStream@3@@Z 000000018001d7c0 f   GuMetaData.obj
 0001:0001c8a0       ?getBinaryMetaData@TriangleMesh@Gu@physx@@SAXAEAVPxOutputStream@3@@Z 000000018001d8a0 f   GuMetaData.obj
 0001:0001e3e0       ?doSupport@?$SupportLocalImpl@VConvexHullNoScaleV@Gu@physx@@@Gu@physx@@UEBA?AT__m128@@AEBT4@@Z 000000018001f3e0 f i GuMTD.obj
 0001:0001e430       ?doSupport@?$SupportLocalImpl@VConvexHullNoScaleV@Gu@physx@@@Gu@physx@@UEBAXAEBT__m128@@AEAT4@1@Z 000000018001f430 f i GuMTD.obj
 0001:0001e5b0       ?populateVerts@?$SupportLocalImpl@VConvexHullNoScaleV@Gu@physx@@@Gu@physx@@UEBAXPEBEIPEBV?$PxVec3T@M@3@PEAT__m128@@@Z 000000018001f5b0 f i GuMTD.obj
 0001:0001e5f0       ?getInternalData@TriangleMesh@Gu@physx@@UEBA_NAEAUPxTriangleMeshInternalData@3@_N@Z 000000018001f5f0 f   GuTriangleMesh.obj
 0001:0001e5f0       ?isDynamic@Pruner@Gu@physx@@UEBA_NXZ 000000018001f5f0 f   GuIncrementalAABBPruner.obj
 0001:00020390       ??$gjk@U?$LocalConvex@VCapsuleV@Gu@physx@@@Gu@physx@@U?$LocalConvex@VConvexHullV@Gu@physx@@@23@@Gu@physx@@YA?AW4GjkStatus@01@AEBU?$LocalConvex@VCapsuleV@Gu@physx@@@01@AEBU?$LocalConvex@VConvexHullV@Gu@physx@@@01@AEBT__m128@@2AEAT5@333@Z 0000000180021390 f i GuMTD.obj
 0001:000210f0       ??0SeparatingAxes@Gu@physx@@QEAA@$$QEAV012@@Z 00000001800220f0 f i GuMTD.obj
 0001:000210f0       ??0SeparatingAxes@Gu@physx@@QEAA@AEBV012@@Z 00000001800220f0 f i GuMTD.obj
 0001:00021200       ??0SeparatingAxes@Gu@physx@@QEAA@XZ 0000000180022200 f i GuMTD.obj
 0001:00021210       ??4SeparatingAxes@Gu@physx@@QEAAAEAV012@$$QEAV012@@Z 0000000180022210 f i GuMTD.obj
 0001:00021210       ??4SeparatingAxes@Gu@physx@@QEAAAEAV012@AEBV012@@Z 0000000180022210 f i GuMTD.obj
 0001:00021320       ??_E?$LocalConvex@UCustomConvexV@@@Gu@physx@@UEAAPEAXI@Z 0000000180022320 f i GuGjkQuery.obj
 0001:00021320       ??_E?$LocalConvex@UPointConvexV@@@Gu@physx@@UEAAPEAXI@Z 0000000180022320 f i GuGjkQuery.obj
 0001:00021320       ??_E?$LocalConvex@VBoxV@Gu@physx@@@Gu@physx@@UEAAPEAXI@Z 0000000180022320 f i GuSweepTests.obj
 0001:00021320       ??_E?$LocalConvex@VCapsuleV@Gu@physx@@@Gu@physx@@UEAAPEAXI@Z 0000000180022320 f i GuMTD.obj
 0001:00021320       ??_E?$LocalConvex@VConvexHullNoScaleV@Gu@physx@@@Gu@physx@@UEAAPEAXI@Z 0000000180022320 f i GuPCMContactBoxConvex.obj
 0001:00021320       ??_E?$LocalConvex@VConvexHullV@Gu@physx@@@Gu@physx@@UEAAPEAXI@Z 0000000180022320 f i GuMTD.obj
 0001:00021320       ??_E?$LocalConvex@VTetrahedronV@Gu@physx@@@Gu@physx@@UEAAPEAXI@Z 0000000180022320 f i GuCookingTetrahedronMesh.obj
 0001:00021320       ??_E?$LocalConvex@VTriangleV@Gu@physx@@@Gu@physx@@UEAAPEAXI@Z 0000000180022320 f i GuSweepTests.obj
 0001:00021320       ??_EGjkConvex@Gu@physx@@UEAAPEAXI@Z 0000000180022320 f i GuMTD.obj
 0001:00021320       ??_G?$LocalConvex@UCustomConvexV@@@Gu@physx@@UEAAPEAXI@Z 0000000180022320 f i GuGjkQuery.obj
 0001:00021320       ??_G?$LocalConvex@UPointConvexV@@@Gu@physx@@UEAAPEAXI@Z 0000000180022320 f i GuGjkQuery.obj
 0001:00021320       ??_G?$LocalConvex@VBoxV@Gu@physx@@@Gu@physx@@UEAAPEAXI@Z 0000000180022320 f i GuSweepTests.obj
 0001:00021320       ??_G?$LocalConvex@VCapsuleV@Gu@physx@@@Gu@physx@@UEAAPEAXI@Z 0000000180022320 f i GuMTD.obj
 0001:00021320       ??_G?$LocalConvex@VConvexHullNoScaleV@Gu@physx@@@Gu@physx@@UEAAPEAXI@Z 0000000180022320 f i GuPCMContactBoxConvex.obj
 0001:00021320       ??_G?$LocalConvex@VConvexHullV@Gu@physx@@@Gu@physx@@UEAAPEAXI@Z 0000000180022320 f i GuMTD.obj
 0001:00021320       ??_G?$LocalConvex@VTetrahedronV@Gu@physx@@@Gu@physx@@UEAAPEAXI@Z 0000000180022320 f i GuCookingTetrahedronMesh.obj
 0001:00021320       ??_G?$LocalConvex@VTriangleV@Gu@physx@@@Gu@physx@@UEAAPEAXI@Z 0000000180022320 f i GuSweepTests.obj
 0001:00021320       ??_GGjkConvex@Gu@physx@@UEAAPEAXI@Z 0000000180022320 f i GuMTD.obj
 0001:000254a0       ?getAxes@SeparatingAxes@Gu@physx@@QEBAPEBV?$PxVec3T@M@3@XZ 00000001800264a0 f i GuMTD.obj
 0001:000254b0       ?getCenter@?$LocalConvex@UCustomConvexV@@@Gu@physx@@UEBA?AT__m128@@XZ 00000001800264b0 f i GuGjkQuery.obj
 0001:000254b0       ?getCenter@?$LocalConvex@UPointConvexV@@@Gu@physx@@UEBA?AT__m128@@XZ 00000001800264b0 f i GuGjkQuery.obj
 0001:000254b0       ?getCenter@?$LocalConvex@VBoxV@Gu@physx@@@Gu@physx@@UEBA?AT__m128@@XZ 00000001800264b0 f i GuSweepTests.obj
 0001:000254b0       ?getCenter@?$LocalConvex@VCapsuleV@Gu@physx@@@Gu@physx@@UEBA?AT__m128@@XZ 00000001800264b0 f i GuMTD.obj
 0001:000254b0       ?getCenter@?$LocalConvex@VConvexHullNoScaleV@Gu@physx@@@Gu@physx@@UEBA?AT__m128@@XZ 00000001800264b0 f i GuPCMContactBoxConvex.obj
 0001:000254b0       ?getCenter@?$LocalConvex@VConvexHullV@Gu@physx@@@Gu@physx@@UEBA?AT__m128@@XZ 00000001800264b0 f i GuMTD.obj
 0001:000254b0       ?getCenter@?$LocalConvex@VTetrahedronV@Gu@physx@@@Gu@physx@@UEBA?AT__m128@@XZ 00000001800264b0 f i GuCookingTetrahedronMesh.obj
 0001:000254b0       ?getCenter@?$LocalConvex@VTriangleV@Gu@physx@@@Gu@physx@@UEBA?AT__m128@@XZ 00000001800264b0 f i GuSweepTests.obj
 0001:000254c0       ?getCount@BuildStats@Gu@physx@@QEBAIXZ 00000001800264c0 f i GuBV4Build.obj
 0001:000254c0       ?getNbActiveObjects@PruningPool@Gu@physx@@QEBAIXZ 00000001800264c0 f i GuIncrementalAABBPrunerCore.obj
 0001:000254c0       ?getNumAxes@SeparatingAxes@Gu@physx@@QEBAIXZ 00000001800264c0 f i GuMTD.obj
 0001:000254d0       ?getSweepMargin@?$LocalConvex@VCapsuleV@Gu@physx@@@Gu@physx@@UEBA?AT__m128@@XZ 00000001800264d0 f i GuMTD.obj
 0001:000254d0       ?getSweepMargin@?$RelativeConvex@VCapsuleV@Gu@physx@@@Gu@physx@@UEBA?AT__m128@@XZ 00000001800264d0 f i GuCCDSweepPrimitives.obj
 0001:000254e0       ?getSweepMargin@?$LocalConvex@UCustomConvexV@@@Gu@physx@@UEBA?AT__m128@@XZ 00000001800264e0 f i GuGjkQuery.obj
 0001:000254e0       ?getSweepMargin@?$LocalConvex@UPointConvexV@@@Gu@physx@@UEBA?AT__m128@@XZ 00000001800264e0 f i GuGjkQuery.obj
 0001:000254e0       ?getSweepMargin@?$LocalConvex@VBoxV@Gu@physx@@@Gu@physx@@UEBA?AT__m128@@XZ 00000001800264e0 f i GuSweepTests.obj
 0001:000254e0       ?getSweepMargin@?$LocalConvex@VConvexHullNoScaleV@Gu@physx@@@Gu@physx@@UEBA?AT__m128@@XZ 00000001800264e0 f i GuPCMContactBoxConvex.obj
 0001:000254e0       ?getSweepMargin@?$LocalConvex@VConvexHullV@Gu@physx@@@Gu@physx@@UEBA?AT__m128@@XZ 00000001800264e0 f i GuMTD.obj
 0001:000254e0       ?getSweepMargin@?$RelativeConvex@UCustomConvexV@@@Gu@physx@@UEBA?AT__m128@@XZ 00000001800264e0 f i GuGjkQuery.obj
 0001:000254e0       ?getSweepMargin@?$RelativeConvex@VBoxV@Gu@physx@@@Gu@physx@@UEBA?AT__m128@@XZ 00000001800264e0 f i GuOverlapTests.obj
 0001:000254e0       ?getSweepMargin@?$RelativeConvex@VConvexHullNoScaleV@Gu@physx@@@Gu@physx@@UEBA?AT__m128@@XZ 00000001800264e0 f i GuPCMContactConvexConvex.obj
 0001:000254e0       ?getSweepMargin@?$RelativeConvex@VConvexHullV@Gu@physx@@@Gu@physx@@UEBA?AT__m128@@XZ 00000001800264e0 f i GuOverlapTests.obj
 0001:00025500       ?getSweepMargin@GjkConvex@Gu@physx@@UEBA?AT__m128@@XZ 0000000180026500 f i GuMTD.obj
 0001:00025520       ?pointConvexDistance@@YA_NAEAV?$PxVec3T@M@physx@@0AEAMAEBV12@PEBVConvexMesh@Gu@2@AEBVPxMeshScale@2@AEBV?$PxTransformT@M@2@@Z 0000000180026520 f   GuMTD.obj
 0001:00026280       ?reset@SeparatingAxes@Gu@physx@@QEAAXXZ 0000000180027280 f i GuMTD.obj
 0001:00026290       ?support@?$LocalConvex@VCapsuleV@Gu@physx@@@Gu@physx@@UEBA?AT__m128@@AEBT4@@Z 0000000180027290 f i GuMTD.obj
 0001:000262f0       ?support@?$LocalConvex@VCapsuleV@Gu@physx@@@Gu@physx@@UEBA?AT__m128@@AEBT4@AEAH@Z 00000001800272f0 f i GuMTD.obj
 0001:00026360       ?support@?$LocalConvex@VConvexHullV@Gu@physx@@@Gu@physx@@UEBA?AT__m128@@AEBT4@@Z 0000000180027360 f i GuMTD.obj
 0001:00026440       ?support@?$LocalConvex@VConvexHullV@Gu@physx@@@Gu@physx@@UEBA?AT__m128@@AEBT4@AEAH@Z 0000000180027440 f i GuMTD.obj
 0001:00026510       ?support@GjkConvex@Gu@physx@@UEBA?AT__m128@@AEBT4@@Z 0000000180027510 f i GuMTD.obj
 0001:00026530       ?support@GjkConvex@Gu@physx@@UEBA?AT__m128@@AEBT4@AEAH@Z 0000000180027530 f i GuMTD.obj
 0001:00026550       ?supportPoint@?$LocalConvex@VCapsuleV@Gu@physx@@@Gu@physx@@UEBA?AT__m128@@H@Z 0000000180027550 f i GuMTD.obj
 0001:00026580       ?supportPoint@?$LocalConvex@VConvexHullV@Gu@physx@@@Gu@physx@@UEBA?AT__m128@@H@Z 0000000180027580 f i GuMTD.obj
 0001:000265d0       ?supportPoint@GjkConvex@Gu@physx@@UEBA?AT__m128@@H@Z 00000001800275d0 f i GuMTD.obj
 0001:000265f0       ?supportPoint@?$RelativeConvex@VBoxV@Gu@physx@@@Gu@physx@@UEBA?AT__m128@@H@Z 00000001800275f0 f i GuOverlapTests.obj
 0001:00026660       ?support@?$RelativeConvex@VBoxV@Gu@physx@@@Gu@physx@@UEBA?AT__m128@@AEBT4@@Z 0000000180027660 f i GuOverlapTests.obj
 0001:000266e0       ?support@?$RelativeConvex@VBoxV@Gu@physx@@@Gu@physx@@UEBA?AT__m128@@AEBT4@AEAH@Z 00000001800276e0 f i GuOverlapTests.obj
 0001:00026770       ?getCenter@?$RelativeConvex@UCustomConvexV@@@Gu@physx@@UEBA?AT__m128@@XZ 0000000180027770 f i GuGjkQuery.obj
 0001:00026770       ?getCenter@?$RelativeConvex@VBoxV@Gu@physx@@@Gu@physx@@UEBA?AT__m128@@XZ 0000000180027770 f i GuOverlapTests.obj
 0001:00026770       ?getCenter@?$RelativeConvex@VCapsuleV@Gu@physx@@@Gu@physx@@UEBA?AT__m128@@XZ 0000000180027770 f i GuCCDSweepPrimitives.obj
 0001:00026770       ?getCenter@?$RelativeConvex@VConvexHullNoScaleV@Gu@physx@@@Gu@physx@@UEBA?AT__m128@@XZ 0000000180027770 f i GuPCMContactConvexConvex.obj
 0001:00026770       ?getCenter@?$RelativeConvex@VConvexHullV@Gu@physx@@@Gu@physx@@UEBA?AT__m128@@XZ 0000000180027770 f i GuOverlapTests.obj
 0001:00026770       ?getCenter@?$RelativeConvex@VTriangleV@Gu@physx@@@Gu@physx@@UEBA?AT__m128@@XZ 0000000180027770 f i GuCCDSweepPrimitives.obj
 0001:000267b0       ??_E?$RelativeConvex@UCustomConvexV@@@Gu@physx@@UEAAPEAXI@Z 00000001800277b0 f i GuGjkQuery.obj
 0001:000267b0       ??_E?$RelativeConvex@VBoxV@Gu@physx@@@Gu@physx@@UEAAPEAXI@Z 00000001800277b0 f i GuOverlapTests.obj
 0001:000267b0       ??_E?$RelativeConvex@VCapsuleV@Gu@physx@@@Gu@physx@@UEAAPEAXI@Z 00000001800277b0 f i GuCCDSweepPrimitives.obj
 0001:000267b0       ??_E?$RelativeConvex@VConvexHullNoScaleV@Gu@physx@@@Gu@physx@@UEAAPEAXI@Z 00000001800277b0 f i GuPCMContactConvexConvex.obj
 0001:000267b0       ??_E?$RelativeConvex@VConvexHullV@Gu@physx@@@Gu@physx@@UEAAPEAXI@Z 00000001800277b0 f i GuOverlapTests.obj
 0001:000267b0       ??_E?$RelativeConvex@VTriangleV@Gu@physx@@@Gu@physx@@UEAAPEAXI@Z 00000001800277b0 f i GuCCDSweepPrimitives.obj
 0001:000267b0       ??_G?$RelativeConvex@UCustomConvexV@@@Gu@physx@@UEAAPEAXI@Z 00000001800277b0 f i GuGjkQuery.obj
 0001:000267b0       ??_G?$RelativeConvex@VBoxV@Gu@physx@@@Gu@physx@@UEAAPEAXI@Z 00000001800277b0 f i GuOverlapTests.obj
 0001:000267b0       ??_G?$RelativeConvex@VCapsuleV@Gu@physx@@@Gu@physx@@UEAAPEAXI@Z 00000001800277b0 f i GuCCDSweepPrimitives.obj
 0001:000267b0       ??_G?$RelativeConvex@VConvexHullNoScaleV@Gu@physx@@@Gu@physx@@UEAAPEAXI@Z 00000001800277b0 f i GuPCMContactConvexConvex.obj
 0001:000267b0       ??_G?$RelativeConvex@VConvexHullV@Gu@physx@@@Gu@physx@@UEAAPEAXI@Z 00000001800277b0 f i GuOverlapTests.obj
 0001:000267b0       ??_G?$RelativeConvex@VTriangleV@Gu@physx@@@Gu@physx@@UEAAPEAXI@Z 00000001800277b0 f i GuCCDSweepPrimitives.obj
 0001:00028910       ?supportPoint@?$RelativeConvex@VConvexHullV@Gu@physx@@@Gu@physx@@UEBA?AT__m128@@H@Z 0000000180029910 f i GuOverlapTests.obj
 0001:00028990       ?support@?$RelativeConvex@VConvexHullV@Gu@physx@@@Gu@physx@@UEBA?AT__m128@@AEBT4@@Z 0000000180029990 f i GuOverlapTests.obj
 0001:00028ac0       ?support@?$RelativeConvex@VConvexHullV@Gu@physx@@@Gu@physx@@UEBA?AT__m128@@AEBT4@AEAH@Z 0000000180029ac0 f i GuOverlapTests.obj
 0001:00028c90       ??$gjk@U?$RelativeConvex@VBoxV@Gu@physx@@@Gu@physx@@U?$LocalConvex@VConvexHullV@Gu@physx@@@23@@Gu@physx@@YA?AW4GjkStatus@01@AEBU?$RelativeConvex@VBoxV@Gu@physx@@@01@AEBU?$LocalConvex@VConvexHullV@Gu@physx@@@01@AEBT__m128@@2AEAT5@333@Z 0000000180029c90 f i GuOverlapTests.obj
 0001:00029a40       ??$gjk@U?$RelativeConvex@VConvexHullV@Gu@physx@@@Gu@physx@@U?$LocalConvex@VConvexHullV@Gu@physx@@@23@@Gu@physx@@YA?AW4GjkStatus@01@AEBU?$RelativeConvex@VConvexHullV@Gu@physx@@@01@AEBU?$LocalConvex@VConvexHullV@Gu@physx@@@01@AEBT__m128@@2AEAT5@333@Z 000000018002aa40 f i GuOverlapTests.obj
 0001:0002a8c0       ?ComputeCubemapNearestOffset@physx@@YAIAEBV?$PxVec3T@M@1@I@Z 000000018002b8c0 f i GuOverlapTests.obj
 0001:0002a9c0       ?getOverlapFuncTable@Gu@physx@@YAPEAY0L@Q6A_NAEBVPxGeometry@2@AEBV?$PxTransformT@M@2@01PEAUTriggerCache@12@PEAUPxQueryThreadContext@2@@ZXZ 000000018002b9c0 f   GuOverlapTests.obj
 0001:0002c580       ?registerHeightFields@Gu@physx@@YAXXZ 000000018002d580 f   GuOverlapTests.obj
 0001:0002c5d0       ?raycast_box@@YAIAEBVPxGeometry@physx@@AEBV?$PxTransformT@M@2@AEBV?$PxVec3T@M@2@2MV?$PxFlags@W4Enum@PxHitFlag@physx@@G@2@IPEIAUPxGeomRaycastHit@2@IPEAUPxQueryThreadContext@2@@Z 000000018002d5d0 f   GuRaycastTests.obj
 0001:0002cc00       ?raycast_sphere@@YAIAEBVPxGeometry@physx@@AEBV?$PxTransformT@M@2@AEBV?$PxVec3T@M@2@2MV?$PxFlags@W4Enum@PxHitFlag@physx@@G@2@IPEIAUPxGeomRaycastHit@2@IPEAUPxQueryThreadContext@2@@Z 000000018002dc00 f   GuRaycastTests.obj
 0001:0002cd90       ?raycast_capsule@@YAIAEBVPxGeometry@physx@@AEBV?$PxTransformT@M@2@AEBV?$PxVec3T@M@2@2MV?$PxFlags@W4Enum@PxHitFlag@physx@@G@2@IPEIAUPxGeomRaycastHit@2@IPEAUPxQueryThreadContext@2@@Z 000000018002dd90 f   GuRaycastTests.obj
 0001:0002d2f0       ?raycast_plane@@YAIAEBVPxGeometry@physx@@AEBV?$PxTransformT@M@2@AEBV?$PxVec3T@M@2@2MV?$PxFlags@W4Enum@PxHitFlag@physx@@G@2@IPEIAUPxGeomRaycastHit@2@IPEAUPxQueryThreadContext@2@@Z 000000018002e2f0 f   GuRaycastTests.obj
 0001:0002d460       ?raycast_convexMesh@@YAIAEBVPxGeometry@physx@@AEBV?$PxTransformT@M@2@AEBV?$PxVec3T@M@2@2MV?$PxFlags@W4Enum@PxHitFlag@physx@@G@2@IPEIAUPxGeomRaycastHit@2@IPEAUPxQueryThreadContext@2@@Z 000000018002e460 f   GuRaycastTests.obj
 0001:0002df60       ?getMidphaseID@RTreeTriangleMesh@Gu@physx@@UEBA?AW4Enum@PxMeshMidPhase@3@XZ 000000018002ef60 f   GuTriangleMeshRTree.obj
 0001:0002df60       ?getMidphaseID@RTreeTriangleMeshBuilder@physx@@UEBA?AW4Enum@PxMeshMidPhase@2@XZ 000000018002ef60 f   GuCookingTriangleMesh.obj
 0001:0002df60       ?getTetrahedraRemap@TetrahedronMesh@Gu@physx@@UEBAPEBIXZ 000000018002ef60 f   GuTetrahedronMesh.obj
 0001:0002df60       ?raycast_hairsystem@@YAIAEBVPxGeometry@physx@@AEBV?$PxTransformT@M@2@AEBV?$PxVec3T@M@2@2MV?$PxFlags@W4Enum@PxHitFlag@physx@@G@2@IPEIAUPxGeomRaycastHit@2@IPEAUPxQueryThreadContext@2@@Z 000000018002ef60 f   GuRaycastTests.obj
 0001:0002df60       ?raycast_particlesystem@@YAIAEBVPxGeometry@physx@@AEBV?$PxTransformT@M@2@AEBV?$PxVec3T@M@2@2MV?$PxFlags@W4Enum@PxHitFlag@physx@@G@2@IPEIAUPxGeomRaycastHit@2@IPEAUPxQueryThreadContext@2@@Z 000000018002ef60 f   GuRaycastTests.obj
 0001:0002df60       ?raycast_softbody@@YAIAEBVPxGeometry@physx@@AEBV?$PxTransformT@M@2@AEBV?$PxVec3T@M@2@2MV?$PxFlags@W4Enum@PxHitFlag@physx@@G@2@IPEIAUPxGeomRaycastHit@2@IPEAUPxQueryThreadContext@2@@Z 000000018002ef60 f   GuRaycastTests.obj
 0001:0002df70       ?raycast_triangleMesh@@YAIAEBVPxGeometry@physx@@AEBV?$PxTransformT@M@2@AEBV?$PxVec3T@M@2@2MV?$PxFlags@W4Enum@PxHitFlag@physx@@G@2@IPEIAUPxGeomRaycastHit@2@IPEAUPxQueryThreadContext@2@@Z 000000018002ef70 f   GuRaycastTests.obj
 0001:0002f350       ??Dphysx@@YA?AV?$PxMat34T@M@0@AEBVPxMeshScale@0@AEBV?$PxTransformT@M@0@@Z 0000000180030350 f i GuRaycastTests.obj
 0001:0002fe40       ?getRaycastFuncTable@Gu@physx@@YAAEAY0L@Q6AIAEBVPxGeometry@2@AEBV?$PxTransformT@M@2@AEBV?$PxVec3T@M@2@2MV?$PxFlags@W4Enum@PxHitFlag@physx@@G@2@IPEIAUPxGeomRaycastHit@2@IPEAUPxQueryThreadContext@2@@ZXZ 0000000180030e40 f   GuRaycastTests.obj
 0001:0002fe50       ?raycast_heightField@@YAIAEBVPxGeometry@physx@@AEBV?$PxTransformT@M@2@AEBV?$PxVec3T@M@2@2MV?$PxFlags@W4Enum@PxHitFlag@physx@@G@2@IPEIAUPxGeomRaycastHit@2@IPEAUPxQueryThreadContext@2@@Z 0000000180030e50 f   GuRaycastTests.obj
 0001:00030590       ?registerHeightFields_Raycasts@@YAXXZ 0000000180031590 f   GuRaycastTests.obj
 0001:000305a0       ??Dphysx@@YA?AV?$PxMat34T@M@0@AEBV?$PxTransformT@M@0@AEBVPxMeshScale@0@@Z 00000001800315a0 f i GuSweepMTD.obj
 0001:00030af0       ??_E?$MeshHitCallback@UPxGeomRaycastHit@physx@@@Gu@physx@@UEAAPEAXI@Z 0000000180031af0 f i GuSweepMTD.obj
 0001:00030af0       ??_G?$MeshHitCallback@UPxGeomRaycastHit@physx@@@Gu@physx@@UEAAPEAXI@Z 0000000180031af0 f i GuSweepMTD.obj
 0001:00030b20       ??_EMeshMTDGenerationCallback@@UEAAPEAXI@Z 0000000180031b20 f i GuSweepMTD.obj
 0001:00030b20       ??_GMeshMTDGenerationCallback@@UEAAPEAXI@Z 0000000180031b20 f i GuSweepMTD.obj
 0001:00030b50       ??_EMidPhaseQueryLocalReport@@UEAAPEAXI@Z 0000000180031b50 f i GuSweepMTD.obj
 0001:00030b50       ??_ERTreeCookerRemap@@UEAAPEAXI@Z 0000000180031b50 f i GuCookingTriangleMesh.obj
 0001:00030b50       ??_GMidPhaseQueryLocalReport@@UEAAPEAXI@Z 0000000180031b50 f i GuSweepMTD.obj
 0001:00030b50       ??_GRTreeCookerRemap@@UEAAPEAXI@Z 0000000180031b50 f i GuCookingTriangleMesh.obj
 0001:00030b80       ?allocate@?$PxArray@IV?$PxReflectionAllocator@I@physx@@@physx@@IEAAPEAII@Z 0000000180031b80 f i GuSweepMTD.obj
 0001:00030c20       ?computeBox_HeightFieldMTD@Gu@physx@@YA_NAEBVPxHeightFieldGeometry@2@AEBV?$PxTransformT@M@2@AEBVBox@12@1M_NAEAUPxGeomSweepHit@2@@Z 0000000180031c20 f   GuSweepMTD.obj
 0001:000319f0       ?computeBox_TriangleMeshMTD@Gu@physx@@YA_NAEBVPxTriangleMeshGeometry@2@AEBV?$PxTransformT@M@2@AEBVBox@12@1M_NAEAUPxGeomSweepHit@2@@Z 00000001800329f0 f   GuSweepMTD.obj
 0001:00032a60       ?computeCapsule_CapsuleMTD@Gu@physx@@YA_NAEBVCapsule@12@0AEAUPxGeomSweepHit@2@@Z 0000000180033a60 f   GuSweepMTD.obj
 0001:00032ca0       ?computeCapsule_HeightFieldMTD@Gu@physx@@YA_NAEBVPxHeightFieldGeometry@2@AEBV?$PxTransformT@M@2@AEAVCapsuleV@12@M_NAEAUPxGeomSweepHit@2@@Z 0000000180033ca0 f   GuSweepMTD.obj
 0001:00033470       ?computeCapsule_TriangleMeshMTD@Gu@physx@@YA_NAEBVPxTriangleMeshGeometry@2@AEBV?$PxTransformT@M@2@AEAVCapsuleV@12@M_NAEAUPxGeomSweepHit@2@@Z 0000000180034470 f   GuSweepMTD.obj
 0001:00033d20       ?computeConvex_HeightFieldMTD@Gu@physx@@YA_NAEBVPxHeightFieldGeometry@2@AEBV?$PxTransformT@M@2@AEBVPxConvexMeshGeometry@2@1M_NAEAUPxGeomSweepHit@2@@Z 0000000180034d20 f   GuSweepMTD.obj
 0001:00034ff0       ?computeConvex_TriangleMeshMTD@Gu@physx@@YA_NAEBVPxTriangleMeshGeometry@2@AEBV?$PxTransformT@M@2@AEBVPxConvexMeshGeometry@2@1M_NAEAUPxGeomSweepHit@2@@Z 0000000180035ff0 f   GuSweepMTD.obj
 0001:00036610       ?computePlane_BoxMTD@Gu@physx@@YA_NAEBVPxPlane@2@AEBVBox@12@AEAUPxGeomSweepHit@2@@Z 0000000180037610 f   GuSweepMTD.obj
 0001:000368b0       ?computePlane_CapsuleMTD@Gu@physx@@YA_NAEBVPxPlane@2@AEBVCapsule@12@AEAUPxGeomSweepHit@2@@Z 00000001800378b0 f   GuSweepMTD.obj
 0001:000369c0       ?computePlane_ConvexMTD@Gu@physx@@YA_NAEBVPxPlane@2@AEBVPxConvexMeshGeometry@2@AEBV?$PxTransformT@M@2@AEAUPxGeomSweepHit@2@@Z 00000001800379c0 f   GuSweepMTD.obj
 0001:00037580       ?computeSphere_CapsuleMTD@Gu@physx@@YA_NAEBVSphere@12@AEBVCapsule@12@AEAUPxGeomSweepHit@2@@Z 0000000180038580 f   GuSweepMTD.obj
 0001:00037730       ?computeSphere_SphereMTD@Gu@physx@@YA_NAEBVSphere@12@0AEAUPxGeomSweepHit@2@@Z 0000000180038730 f   GuSweepMTD.obj
 0001:00037820       ?getInverse@?$PxMat33T@M@physx@@QEBA?BV12@XZ 0000000180038820 f i GuSweepMTD.obj
 0001:00037a70       ?growAndPushBack@?$PxArray@IV?$PxReflectionAllocator@I@physx@@@physx@@IEAAAEAIAEBI@Z 0000000180038a70 f i GuSweepMTD.obj
 0001:00037b30       ?init@FastVertex2ShapeScaling@Cm@physx@@QEAAXAEBV?$PxVec3T@M@3@AEBV?$PxQuatT@M@3@@Z 0000000180038b30 f i GuSweepMTD.obj
 0001:00038440       ?processHit@MeshMTDGenerationCallback@@UEAA_NAEBUPxGeomRaycastHit@physx@@AEBV?$PxVec3T@M@3@11AEAMPEBI@Z 0000000180039440 f i GuSweepMTD.obj
 0001:00038490       ?recreate@?$PxArray@IV?$PxReflectionAllocator@I@physx@@@physx@@IEAAXI@Z 0000000180039490 f i GuSweepMTD.obj
 0001:00038530       ?reportTouchedTris@MidPhaseQueryLocalReport@@UEAA_NIPEBI@Z 0000000180039530 f i GuSweepMTD.obj
 0001:000385a0       ??$gjkPenetration@U?$LocalConvex@VCapsuleV@Gu@physx@@@Gu@physx@@U?$LocalConvex@VConvexHullV@Gu@physx@@@23@@Gu@physx@@YA?AW4GjkStatus@01@AEBU?$LocalConvex@VCapsuleV@Gu@physx@@@01@AEBU?$LocalConvex@VConvexHullV@Gu@physx@@@01@AEBT__m128@@2_NPEIAE4AEAEAEAUGjkOutput@01@@Z 00000001800395a0 f i GuSweepSharedTests.obj
 0001:00038610       ??$gjkPenetration@U?$LocalConvex@VCapsuleV@Gu@physx@@@Gu@physx@@U?$LocalConvex@VConvexHullV@Gu@physx@@@23@@Gu@physx@@YA?AW4GjkStatus@01@AEBU?$LocalConvex@VCapsuleV@Gu@physx@@@01@AEBU?$LocalConvex@VConvexHullV@Gu@physx@@@01@AEBT__m128@@2_NPEIAE4PEIAT5@5AEAEAEAUGjkOutput@01@@Z 0000000180039610 f i GuSweepSharedTests.obj
 0001:00039b40       ??$gjkPenetration@U?$RelativeConvex@VBoxV@Gu@physx@@@Gu@physx@@U?$LocalConvex@VConvexHullV@Gu@physx@@@23@@Gu@physx@@YA?AW4GjkStatus@01@AEBU?$RelativeConvex@VBoxV@Gu@physx@@@01@AEBU?$LocalConvex@VConvexHullV@Gu@physx@@@01@AEBT__m128@@2_NPEIAE4AEAEAEAUGjkOutput@01@@Z 000000018003ab40 f i GuSweepSharedTests.obj
 0001:00039bb0       ??$gjkPenetration@U?$RelativeConvex@VBoxV@Gu@physx@@@Gu@physx@@U?$LocalConvex@VConvexHullV@Gu@physx@@@23@@Gu@physx@@YA?AW4GjkStatus@01@AEBU?$RelativeConvex@VBoxV@Gu@physx@@@01@AEBU?$LocalConvex@VConvexHullV@Gu@physx@@@01@AEBT__m128@@2_NPEIAE4PEIAT5@5AEAEAEAUGjkOutput@01@@Z 000000018003abb0 f i GuSweepSharedTests.obj
 0001:0003b130       ??$gjkPenetration@U?$RelativeConvex@VConvexHullV@Gu@physx@@@Gu@physx@@U?$LocalConvex@VConvexHullV@Gu@physx@@@23@@Gu@physx@@YA?AW4GjkStatus@01@AEBU?$RelativeConvex@VConvexHullV@Gu@physx@@@01@AEBU?$LocalConvex@VConvexHullV@Gu@physx@@@01@AEBT__m128@@2_NPEIAE4AEAEAEAUGjkOutput@01@@Z 000000018003c130 f i GuSweepSharedTests.obj
 0001:0003b1a0       ??$gjkPenetration@U?$RelativeConvex@VConvexHullV@Gu@physx@@@Gu@physx@@U?$LocalConvex@VConvexHullV@Gu@physx@@@23@@Gu@physx@@YA?AW4GjkStatus@01@AEBU?$RelativeConvex@VConvexHullV@Gu@physx@@@01@AEBU?$LocalConvex@VConvexHullV@Gu@physx@@@01@AEBT__m128@@2_NPEIAE4PEIAT5@5AEAEAEAUGjkOutput@01@@Z 000000018003c1a0 f i GuSweepSharedTests.obj
 0001:0003c7f0       ??$gjkRaycast@U?$LocalConvex@VCapsuleV@Gu@physx@@@Gu@physx@@U?$LocalConvex@VConvexHullV@Gu@physx@@@23@@Gu@physx@@YA_NAEBU?$LocalConvex@VCapsuleV@Gu@physx@@@01@AEBU?$LocalConvex@VConvexHullV@Gu@physx@@@01@AEBT__m128@@222AEAT4@33M@Z 000000018003d7f0 f i GuSweepSharedTests.obj
 0001:0003d540       ??$gjkRaycast@U?$RelativeConvex@VBoxV@Gu@physx@@@Gu@physx@@U?$LocalConvex@VConvexHullV@Gu@physx@@@23@@Gu@physx@@YA_NAEBU?$RelativeConvex@VBoxV@Gu@physx@@@01@AEBU?$LocalConvex@VConvexHullV@Gu@physx@@@01@AEBT__m128@@222AEAT4@33M@Z 000000018003e540 f i GuSweepSharedTests.obj
 0001:0003e330       ??$gjkRaycast@U?$RelativeConvex@VConvexHullV@Gu@physx@@@Gu@physx@@U?$LocalConvex@VConvexHullV@Gu@physx@@@23@@Gu@physx@@YA_NAEBU?$RelativeConvex@VConvexHullV@Gu@physx@@@01@AEBU?$LocalConvex@VConvexHullV@Gu@physx@@@01@AEBT__m128@@222AEAT4@33M@Z 000000018003f330 f i GuSweepSharedTests.obj
 0001:0003f110       ??$gjkRaycastPenetration@U?$RelativeConvex@VConvexHullV@Gu@physx@@@Gu@physx@@U?$LocalConvex@VConvexHullV@Gu@physx@@@23@@Gu@physx@@YA_NAEBU?$RelativeConvex@VConvexHullV@Gu@physx@@@01@AEBU?$LocalConvex@VConvexHullV@Gu@physx@@@01@AEBT__m128@@222AEAT4@33M_N@Z 0000000180040110 f i GuSweepSharedTests.obj
 0001:0003fce0       ?sweepBox_ConvexGeom@@YA_NAEBVPxGeometry@physx@@AEBV?$PxTransformT@M@2@AEBVPxBoxGeometry@2@1AEBVBox@Gu@2@AEBV?$PxVec3T@M@2@MAEAUPxGeomSweepHit@2@V?$PxFlags@W4Enum@PxHitFlag@physx@@G@2@MPEAUPxQueryThreadContext@2@@Z 0000000180040ce0 f   GuSweepSharedTests.obj
 0001:00040af0       ?sweepBox_PlaneGeom@@YA_NAEBVPxGeometry@physx@@AEBV?$PxTransformT@M@2@AEBVPxBoxGeometry@2@1AEBVBox@Gu@2@AEBV?$PxVec3T@M@2@MAEAUPxGeomSweepHit@2@V?$PxFlags@W4Enum@PxHitFlag@physx@@G@2@MPEAUPxQueryThreadContext@2@@Z 0000000180041af0 f   GuSweepSharedTests.obj
 0001:00040ee0       ?sweepCapsuleTriangles@Gu@physx@@YA_NIPEBVPxTriangle@2@_NAEBVPxCapsuleGeometry@2@AEBV?$PxTransformT@M@2@AEBV?$PxVec3T@M@2@MAEAUPxGeomSweepHit@2@PEBIMV?$PxFlags@W4Enum@PxHitFlag@physx@@G@2@@Z 0000000180041ee0 f   GuSweepSharedTests.obj
 0001:000410d0       ?sweepCapsule_CapsuleGeom@@YA_NAEBVPxGeometry@physx@@AEBV?$PxTransformT@M@2@AEBVPxCapsuleGeometry@2@1AEBVCapsule@Gu@2@AEBV?$PxVec3T@M@2@MAEAUPxGeomSweepHit@2@V?$PxFlags@W4Enum@PxHitFlag@physx@@G@2@MPEAUPxQueryThreadContext@2@@Z 00000001800420d0 f   GuSweepSharedTests.obj
 0001:000412b0       ?sweepCapsule_ConvexGeom@@YA_NAEBVPxGeometry@physx@@AEBV?$PxTransformT@M@2@AEBVPxCapsuleGeometry@2@1AEBVCapsule@Gu@2@AEBV?$PxVec3T@M@2@MAEAUPxGeomSweepHit@2@V?$PxFlags@W4Enum@PxHitFlag@physx@@G@2@MPEAUPxQueryThreadContext@2@@Z 00000001800422b0 f   GuSweepSharedTests.obj
 0001:00041fd0       ?sweepCapsule_PlaneGeom@@YA_NAEBVPxGeometry@physx@@AEBV?$PxTransformT@M@2@AEBVPxCapsuleGeometry@2@1AEBVCapsule@Gu@2@AEBV?$PxVec3T@M@2@MAEAUPxGeomSweepHit@2@V?$PxFlags@W4Enum@PxHitFlag@physx@@G@2@MPEAUPxQueryThreadContext@2@@Z 0000000180042fd0 f   GuSweepSharedTests.obj
 0001:000422b0       ?sweepCapsule_SphereGeom@@YA_NAEBVPxGeometry@physx@@AEBV?$PxTransformT@M@2@AEBVPxCapsuleGeometry@2@1AEBVCapsule@Gu@2@AEBV?$PxVec3T@M@2@MAEAUPxGeomSweepHit@2@V?$PxFlags@W4Enum@PxHitFlag@physx@@G@2@MPEAUPxQueryThreadContext@2@@Z 00000001800432b0 f   GuSweepSharedTests.obj
 0001:00042450       ?sweepConvex_BoxGeom@@YA_NAEBVPxGeometry@physx@@AEBV?$PxTransformT@M@2@AEBVPxConvexMeshGeometry@2@1AEBV?$PxVec3T@M@2@MAEAUPxGeomSweepHit@2@V?$PxFlags@W4Enum@PxHitFlag@physx@@G@2@MPEAUPxQueryThreadContext@2@@Z 0000000180043450 f   GuSweepSharedTests.obj
 0001:00042670       ?sweepConvex_CapsuleGeom@@YA_NAEBVPxGeometry@physx@@AEBV?$PxTransformT@M@2@AEBVPxConvexMeshGeometry@2@1AEBV?$PxVec3T@M@2@MAEAUPxGeomSweepHit@2@V?$PxFlags@W4Enum@PxHitFlag@physx@@G@2@MPEAUPxQueryThreadContext@2@@Z 0000000180043670 f   GuSweepSharedTests.obj
 0001:000428a0       ?sweepConvex_ConvexGeom@@YA_NAEBVPxGeometry@physx@@AEBV?$PxTransformT@M@2@AEBVPxConvexMeshGeometry@2@1AEBV?$PxVec3T@M@2@MAEAUPxGeomSweepHit@2@V?$PxFlags@W4Enum@PxHitFlag@physx@@G@2@MPEAUPxQueryThreadContext@2@@Z 00000001800438a0 f   GuSweepSharedTests.obj
 0001:00043870       ?sweepConvex_PlaneGeom@@YA_NAEBVPxGeometry@physx@@AEBV?$PxTransformT@M@2@AEBVPxConvexMeshGeometry@2@1AEBV?$PxVec3T@M@2@MAEAUPxGeomSweepHit@2@V?$PxFlags@W4Enum@PxHitFlag@physx@@G@2@MPEAUPxQueryThreadContext@2@@Z 0000000180044870 f   GuSweepSharedTests.obj
 0001:00043cb0       ?sweepConvex_SphereGeom@@YA_NAEBVPxGeometry@physx@@AEBV?$PxTransformT@M@2@AEBVPxConvexMeshGeometry@2@1AEBV?$PxVec3T@M@2@MAEAUPxGeomSweepHit@2@V?$PxFlags@W4Enum@PxHitFlag@physx@@G@2@MPEAUPxQueryThreadContext@2@@Z 0000000180044cb0 f   GuSweepSharedTests.obj
 0001:000448c0       ?sweepCapsule_BoxGeom@@YA_NAEBVPxGeometry@physx@@AEBV?$PxTransformT@M@2@AEBVPxCapsuleGeometry@2@1AEBVCapsule@Gu@2@AEBV?$PxVec3T@M@2@MAEAUPxGeomSweepHit@2@V?$PxFlags@W4Enum@PxHitFlag@physx@@G@2@MPEAUPxQueryThreadContext@2@@Z 00000001800458c0 f   GuSweepTests.obj
 0001:00045170       ?sweepBox_SphereGeom@@YA_NAEBVPxGeometry@physx@@AEBV?$PxTransformT@M@2@AEBVPxBoxGeometry@2@1AEBVBox@Gu@2@AEBV?$PxVec3T@M@2@MAEAUPxGeomSweepHit@2@V?$PxFlags@W4Enum@PxHitFlag@physx@@G@2@MPEAUPxQueryThreadContext@2@@Z 0000000180046170 f   GuSweepTests.obj
 0001:00045850       ?sweepBox_CapsuleGeom@@YA_NAEBVPxGeometry@physx@@AEBV?$PxTransformT@M@2@AEBVPxBoxGeometry@2@1AEBVBox@Gu@2@AEBV?$PxVec3T@M@2@MAEAUPxGeomSweepHit@2@V?$PxFlags@W4Enum@PxHitFlag@physx@@G@2@MPEAUPxQueryThreadContext@2@@Z 0000000180046850 f   GuSweepTests.obj
 0001:00046100       ?sweepBox_BoxGeom@@YA_NAEBVPxGeometry@physx@@AEBV?$PxTransformT@M@2@AEBVPxBoxGeometry@2@1AEBVBox@Gu@2@AEBV?$PxVec3T@M@2@MAEAUPxGeomSweepHit@2@V?$PxFlags@W4Enum@PxHitFlag@physx@@G@2@MPEAUPxQueryThreadContext@2@@Z 0000000180047100 f   GuSweepTests.obj
 0001:00046bc0       ??$gjkPenetration@U?$LocalConvex@VCapsuleV@Gu@physx@@@Gu@physx@@U?$LocalConvex@VBoxV@Gu@physx@@@23@@Gu@physx@@YA?AW4GjkStatus@01@AEBU?$LocalConvex@VCapsuleV@Gu@physx@@@01@AEBU?$LocalConvex@VBoxV@Gu@physx@@@01@AEBT__m128@@2_NPEIAE4AEAEAEAUGjkOutput@01@@Z 0000000180047bc0 f i GuSweepTests.obj
 0001:00046c30       ??$gjkPenetration@U?$LocalConvex@VCapsuleV@Gu@physx@@@Gu@physx@@U?$LocalConvex@VBoxV@Gu@physx@@@23@@Gu@physx@@YA?AW4GjkStatus@01@AEBU?$LocalConvex@VCapsuleV@Gu@physx@@@01@AEBU?$LocalConvex@VBoxV@Gu@physx@@@01@AEBT__m128@@2_NPEIAE4PEIAT5@5AEAEAEAUGjkOutput@01@@Z 0000000180047c30 f i GuSweepTests.obj
 0001:000480b0       ??$gjkPenetration@U?$RelativeConvex@VBoxV@Gu@physx@@@Gu@physx@@U?$LocalConvex@VBoxV@Gu@physx@@@23@@Gu@physx@@YA?AW4GjkStatus@01@AEBU?$RelativeConvex@VBoxV@Gu@physx@@@01@AEBU?$LocalConvex@VBoxV@Gu@physx@@@01@AEBT__m128@@2_NPEIAE4AEAEAEAUGjkOutput@01@@Z 00000001800490b0 f i GuSweepTests.obj
 0001:00048120       ??$gjkPenetration@U?$RelativeConvex@VBoxV@Gu@physx@@@Gu@physx@@U?$LocalConvex@VBoxV@Gu@physx@@@23@@Gu@physx@@YA?AW4GjkStatus@01@AEBU?$RelativeConvex@VBoxV@Gu@physx@@@01@AEBU?$LocalConvex@VBoxV@Gu@physx@@@01@AEBT__m128@@2_NPEIAE4PEIAT5@5AEAEAEAUGjkOutput@01@@Z 0000000180049120 f i GuSweepTests.obj
 0001:000495d0       ??$gjkRaycast@U?$LocalConvex@VCapsuleV@Gu@physx@@@Gu@physx@@U?$LocalConvex@VBoxV@Gu@physx@@@23@@Gu@physx@@YA_NAEBU?$LocalConvex@VCapsuleV@Gu@physx@@@01@AEBU?$LocalConvex@VBoxV@Gu@physx@@@01@AEBT__m128@@222AEAT4@33M@Z 000000018004a5d0 f i GuSweepTests.obj
 0001:0004a1a0       ??$gjkRaycast@U?$LocalConvex@VTriangleV@Gu@physx@@@Gu@physx@@U?$LocalConvex@VBoxV@Gu@physx@@@23@@Gu@physx@@YA_NAEBU?$LocalConvex@VTriangleV@Gu@physx@@@01@AEBU?$LocalConvex@VBoxV@Gu@physx@@@01@AEBT__m128@@222AEAT4@33M@Z 000000018004b1a0 f i GuSweepTests.obj
 0001:0004adf0       ??$gjkRaycast@U?$RelativeConvex@VBoxV@Gu@physx@@@Gu@physx@@U?$LocalConvex@VBoxV@Gu@physx@@@23@@Gu@physx@@YA_NAEBU?$RelativeConvex@VBoxV@Gu@physx@@@01@AEBU?$LocalConvex@VBoxV@Gu@physx@@@01@AEBT__m128@@222AEAT4@33M@Z 000000018004bdf0 f i GuSweepTests.obj
 0001:0004ba20       ?getSweepFuncTable@Gu@physx@@YAAEBUGeomSweepFuncs@12@XZ 000000018004ca20 f   GuSweepTests.obj
 0001:0004ba30       ?getSweepMargin@?$LocalConvex@VTetrahedronV@Gu@physx@@@Gu@physx@@UEBA?AT__m128@@XZ 000000018004ca30 f i GuCookingTetrahedronMesh.obj
 0001:0004ba30       ?getSweepMargin@?$LocalConvex@VTriangleV@Gu@physx@@@Gu@physx@@UEBA?AT__m128@@XZ 000000018004ca30 f i GuSweepTests.obj
 0001:0004ba30       ?getSweepMargin@?$RelativeConvex@VTriangleV@Gu@physx@@@Gu@physx@@UEBA?AT__m128@@XZ 000000018004ca30 f i GuCCDSweepPrimitives.obj
 0001:0004ba40       ?registerHeightFields_Sweeps@@YAXXZ 000000018004ca40 f   GuSweepTests.obj
 0001:0004ba80       ?support@?$LocalConvex@VBoxV@Gu@physx@@@Gu@physx@@UEBA?AT__m128@@AEBT4@@Z 000000018004ca80 f i GuSweepTests.obj
 0001:0004bab0       ?support@?$LocalConvex@VBoxV@Gu@physx@@@Gu@physx@@UEBA?AT__m128@@AEBT4@AEAH@Z 000000018004cab0 f i GuSweepTests.obj
 0001:0004baf0       ?support@?$LocalConvex@VTriangleV@Gu@physx@@@Gu@physx@@UEBA?AT__m128@@AEBT4@@Z 000000018004caf0 f i GuSweepTests.obj
 0001:0004bb80       ?support@?$LocalConvex@VTriangleV@Gu@physx@@@Gu@physx@@UEBA?AT__m128@@AEBT4@AEAH@Z 000000018004cb80 f i GuSweepTests.obj
 0001:0004bc60       ?supportPoint@?$LocalConvex@VBoxV@Gu@physx@@@Gu@physx@@UEBA?AT__m128@@H@Z 000000018004cc60 f i GuSweepTests.obj
 0001:0004bca0       ?supportPoint@?$LocalConvex@VTetrahedronV@Gu@physx@@@Gu@physx@@UEBA?AT__m128@@H@Z 000000018004cca0 f i GuCookingTetrahedronMesh.obj
 0001:0004bca0       ?supportPoint@?$LocalConvex@VTriangleV@Gu@physx@@@Gu@physx@@UEBA?AT__m128@@H@Z 000000018004cca0 f i GuSweepTests.obj
 0001:0004bcc0       ?sweepBoxTriangles@Gu@physx@@YA_NIPEBVPxTriangle@2@_NAEBVPxBoxGeometry@2@AEBV?$PxTransformT@M@2@AEBV?$PxVec3T@M@2@MAEAUPxGeomSweepHit@2@PEBIMV?$PxFlags@W4Enum@PxHitFlag@physx@@G@2@@Z 000000018004ccc0 f   GuSweepTests.obj
 0001:0004c740       ??$traverseBVH@VClosestDistanceToTrimeshTraversalController@Gu@physx@@@Gu@physx@@YAXPEBUBVHNode@01@AEAVClosestDistanceToTrimeshTraversalController@01@H@Z 000000018004d740 f i GuSDF.obj
 0001:0004cb30       ??$traverseBVH@VLineSegmentTrimeshIntersectionTraversalController@Gu@physx@@@Gu@physx@@YAXPEBUBVHNode@01@AEAVLineSegmentTrimeshIntersectionTraversalController@01@H@Z 000000018004db30 f i GuSDF.obj
 0001:0004d020       ??1SDF@Gu@physx@@QEAA@XZ   000000018004e020 f   GuSDF.obj
 0001:0004d0b0       ??_E?$PxThreadT@V?$PxReflectionAllocator@VPxThreadImpl@physx@@@physx@@@physx@@UEAAPEAXI@Z 000000018004e0b0 f i GuSDF.obj
 0001:0004d0b0       ??_G?$PxThreadT@V?$PxReflectionAllocator@VPxThreadImpl@physx@@@physx@@@physx@@UEAAPEAXI@Z 000000018004e0b0 f i GuSDF.obj
 0001:0004d150       ??_EPxRunnable@physx@@UEAAPEAXI@Z 000000018004e150 f i GuSDF.obj
 0001:0004d150       ??_GPxRunnable@physx@@UEAAPEAXI@Z 000000018004e150 f i GuSDF.obj
 0001:0004d180       ?SDFUsingWindingNumbers@Gu@physx@@YAXAEAV?$PxArray@UBVHNode@Gu@physx@@V?$PxReflectionAllocator@UBVHNode@Gu@physx@@@3@@2@AEAV?$PxHashMap@IU?$ClusterApproximationT@MV?$PxVec3T@M@physx@@@Gu@physx@@U?$PxHash@I@3@VPxAllocator@3@@2@PEBV?$PxVec3T@M@2@PEBIIIIIPEAMAEAVGridQueryPointSampler@12@PEAV52@I_N7@Z 000000018004e180 f   GuSDF.obj
 0001:0004d690       ?SDFUsingWindingNumbers@Gu@physx@@YAXPEBV?$PxVec3T@M@2@PEBIIIIIPEAMV32@3PEAV32@_NI@Z 000000018004e690 f   GuSDF.obj
 0001:0004d9a0       ?SDFUsingWindingNumbersSparse@Gu@physx@@YAXPEBV?$PxVec3T@M@2@PEBIIIIIAEBV32@2MIAEAV?$PxArray@MV?$PxReflectionAllocator@M@physx@@@2@AEAV?$PxArray@IV?$PxReflectionAllocator@I@physx@@@2@33AEAM5I@Z 000000018004e9a0 f   GuSDF.obj
 0001:0004e7b0       ?allocate@?$PxArray@HV?$PxInlineAllocator@$0EAA@V?$PxReflectionAllocator@H@physx@@@physx@@@physx@@IEAAPEAHI@Z 000000018004f7b0 f i GuSDF.obj
 0001:0004e870       ?allocate@?$PxArray@MV?$PxReflectionAllocator@M@physx@@@physx@@IEAAPEAMI@Z 000000018004f870 f i GuSDF.obj
 0001:0004e910       ?allocateSdfs@SDF@Gu@physx@@QEAAPEAMAEBV?$PxVec3T@M@3@AEBMIIIIIIIMMI@Z 000000018004f910 f   GuSDF.obj
 0001:0004eb10       ?buildTree@Gu@physx@@YAXPEBIIPEBV?$PxVec3T@M@2@AEAV?$PxArray@UBVHNode@Gu@physx@@V?$PxReflectionAllocator@UBVHNode@Gu@physx@@@3@@2@M@Z 000000018004fb10 f   GuSDF.obj
 0001:0004ed40       ?computeSDFThreadJob@Gu@physx@@YAPEAXPEAX@Z 000000018004fd40 f   GuSDF.obj
 0001:0004f7c0       ?convertSparseSDFTo3DTextureLayout@Gu@physx@@YAXIIIIPEAIPEBMIAEAV?$PxArray@MV?$PxReflectionAllocator@M@physx@@@2@AEAI33@Z 00000001800507c0 f   GuSDF.obj
 0001:0004fb70       ?create@?$PxHashBase@V?$PxPair@$$CB_KH@physx@@_KU?$PxHash@_K@2@UGetKey@?$PxHashMapBase@_KHU?$PxHash@_K@physx@@VPxAllocator@2@@2@VPxAllocator@2@$00@physx@@QEAAPEAV?$PxPair@$$CB_KH@2@AEB_KAEA_N@Z 0000000180050b70 f i GuMeshAnalysis.obj
 0001:0004fb70       ?create@?$PxHashBase@V?$PxPair@$$CB_KI@physx@@_KU?$PxHash@_K@2@UGetKey@?$PxHashMapBase@_KIU?$PxHash@_K@physx@@VPxAllocator@2@@2@VPxAllocator@2@$00@physx@@QEAAPEAV?$PxPair@$$CB_KI@2@AEB_KAEA_N@Z 0000000180050b70 f i GuSDF.obj
 0001:0004fd00       ?createTriangles@Gu@physx@@YAXHHHMQEAMAEBV?$PxHashMap@_KIU?$PxHash@_K@physx@@VPxAllocator@2@@2@AEBV?$PxArray@V?$PxVec3T@M@physx@@V?$PxReflectionAllocator@V?$PxVec3T@M@physx@@@2@@2@AEAV?$PxArray@IV?$PxReflectionAllocator@I@physx@@@2@@Z 0000000180050d00 f   GuSDF.obj
 0001:00050560       ?extractIsosurfaceFromSDF@Gu@physx@@YAXAEBVSDF@12@AEAV?$PxArray@V?$PxVec3T@M@physx@@V?$PxReflectionAllocator@V?$PxVec3T@M@physx@@@2@@2@AEAV?$PxArray@IV?$PxReflectionAllocator@I@physx@@@2@@Z 0000000180051560 f   GuSDF.obj
 0001:00052330       ?fixSdfForNonClosedGeometry@Gu@physx@@YAXIIIPEAMAEBV?$PxVec3T@M@2@@Z 0000000180053330 f   GuSDF.obj
 0001:00053410       ?generatePointInCell@Gu@physx@@YA_NAEBVSDF@12@HHHAEAV?$PxVec3T@M@2@QEAY111M@Z 0000000180054410 f   GuSDF.obj
 0001:00053860       ?growAndPushBack@?$PxArray@HV?$PxInlineAllocator@$0EAA@V?$PxReflectionAllocator@H@physx@@@physx@@@physx@@IEAAAEAHAEBH@Z 0000000180054860 f i GuSDF.obj
 0001:00053950       ?growAndPushBack@?$PxArray@MV?$PxReflectionAllocator@M@physx@@@physx@@IEAAAEAMAEBM@Z 0000000180054950 f i GuSDF.obj
 0001:00053a30       ?growAndPushBack@?$PxArray@PEAV?$PxThreadT@V?$PxReflectionAllocator@VPxThreadImpl@physx@@@physx@@@physx@@V?$PxReflectionAllocator@PEAV?$PxThreadT@V?$PxReflectionAllocator@VPxThreadImpl@physx@@@physx@@@physx@@@2@@physx@@IEAAAEAPEAV?$PxThreadT@V?$PxReflectionAllocator@VPxThreadImpl@physx@@@physx@@@2@AEBQEAV32@@Z 0000000180054a30 f i GuSDF.obj
 0001:00053b50       ?growAndPushBack@?$PxArray@UMutation@Gu@physx@@V?$PxReflectionAllocator@UMutation@Gu@physx@@@3@@physx@@IEAAAEAUMutation@Gu@2@AEBU342@@Z 0000000180054b50 f i GuSDF.obj
 0001:00053c80       ?growAndPushBack@?$PxArray@URange@Gu@physx@@V?$PxReflectionAllocator@URange@Gu@physx@@@3@@physx@@IEAAAEAURange@Gu@2@AEBU342@@Z 0000000180054c80 f i GuSDF.obj
 0001:00053dc0       ?growAndPushBack@?$PxArray@USDFCalculationData@Gu@physx@@V?$PxReflectionAllocator@USDFCalculationData@Gu@physx@@@3@@physx@@IEAAAEAUSDFCalculationData@Gu@2@AEBU342@@Z 0000000180054dc0 f i GuSDF.obj
 0001:00053f50       ?growAndPushBack@?$PxArray@V?$PxVec3T@M@physx@@V?$PxReflectionAllocator@V?$PxVec3T@M@physx@@@2@@physx@@IEAAAEAV?$PxVec3T@M@2@AEBV32@@Z 0000000180054f50 f i GuSDF.obj
 0001:00054130       ?recreate@?$PxArray@MV?$PxReflectionAllocator@M@physx@@@physx@@IEAAXI@Z 0000000180055130 f i GuSDF.obj
 0001:00054210       ?reserveInternal@?$PxHashBase@V?$PxPair@$$CBIU?$ClusterApproximationT@MV?$PxVec3T@M@physx@@@Gu@physx@@@physx@@IU?$PxHash@I@2@UGetKey@?$PxHashMapBase@IU?$ClusterApproximationT@MV?$PxVec3T@M@physx@@@Gu@physx@@U?$PxHash@I@3@VPxAllocator@3@@2@VPxAllocator@2@$00@physx@@AEAAXI@Z 0000000180055210 f i GuSDF.obj
 0001:00054410       ?reserveInternal@?$PxHashBase@V?$PxPair@$$CB_KH@physx@@_KU?$PxHash@_K@2@UGetKey@?$PxHashMapBase@_KHU?$PxHash@_K@physx@@VPxAllocator@2@@2@VPxAllocator@2@$00@physx@@AEAAXI@Z 0000000180055410 f i GuMeshAnalysis.obj
 0001:00054410       ?reserveInternal@?$PxHashBase@V?$PxPair@$$CB_KI@physx@@_KU?$PxHash@_K@2@UGetKey@?$PxHashMapBase@_KIU?$PxHash@_K@physx@@VPxAllocator@2@@2@VPxAllocator@2@$00@physx@@AEAAXI@Z 0000000180055410 f i GuSDF.obj
 0001:000545f0       ?resize@?$PxArray@MV?$PxReflectionAllocator@M@physx@@@physx@@QEAAXIAEBM@Z 00000001800555f0 f i GuSDF.obj
 0001:00054700       ?sampleSDFDirect@?$DenseSDF@M@Gu@physx@@QEAAMAEBV?$PxVec3T@M@3@@Z 0000000180055700 f i GuSDF.obj
 0001:00054890       ?windingNumbers@Gu@physx@@YAXPEBV?$PxVec3T@M@2@PEBIIIIIPEAMV32@3PEAV32@@Z 0000000180055890 f   GuSDF.obj
 0001:00054ce0       ?windingNumbersInsideCheck@Gu@physx@@YAXPEBV?$PxVec3T@M@2@PEBIIIIIPEA_NV32@3PEAV32@@Z 0000000180055ce0 f   GuSDF.obj
 0001:000556a0       ??0MeshData@physx@@QEAA@AEBVPxTriangleMeshDesc@1@@Z 00000001800566a0 f i GuCookingSDF.obj
 0001:00055780       ?GetBounds@MeshData@physx@@QEBAXAEAV?$PxVec3T@M@2@0@Z 0000000180056780 f i GuCookingSDF.obj
 0001:00055a20       ?buildSDF@physx@@YA_NAEAVPxTriangleMeshDesc@1@AEAV?$PxArray@MV?$PxReflectionAllocator@M@physx@@@1@AEAV?$PxArray@EV?$PxReflectionAllocator@E@physx@@@1@AEAV?$PxArray@IV?$PxReflectionAllocator@I@physx@@@1@@Z 0000000180056a20 f   GuCookingSDF.obj
 0001:00056350       ?quantizeSparseSDF@physx@@YAXW4Enum@PxSdfBitsPerSubgridPixel@1@AEBV?$PxArray@MV?$PxReflectionAllocator@M@physx@@@1@AEAV?$PxArray@EV?$PxReflectionAllocator@E@physx@@@1@MM@Z 0000000180057350 f   GuCookingSDF.obj
 0001:00056430       ?recreate@?$PxArray@EV?$PxReflectionAllocator@E@physx@@@physx@@IEAAXI@Z 0000000180057430 f i GuCookingSDF.obj
 0001:00056540       ?recreate@?$PxArray@V?$PxVec3T@M@physx@@V?$PxReflectionAllocator@V?$PxVec3T@M@physx@@@2@@physx@@IEAAXI@Z 0000000180057540 f i GuCookingSDF.obj
 0001:00056700       ?resize@?$PxArray@EV?$PxReflectionAllocator@E@physx@@@physx@@QEAAXIAEBE@Z 0000000180057700 f i GuCookingSDF.obj
 0001:000567c0       ?resize@?$PxArray@IV?$PxReflectionAllocator@I@physx@@@physx@@QEAAXIAEBI@Z 00000001800577c0 f i GuCookingSDF.obj
 0001:00056880       ?resize@?$PxArray@V?$PxVec3T@M@physx@@V?$PxReflectionAllocator@V?$PxVec3T@M@physx@@@2@@physx@@QEAAXIAEBV?$PxVec3T@M@2@@Z 0000000180057880 f i GuCookingSDF.obj
 0001:00056970       ??$gjk@U?$RelativeConvex@UCustomConvexV@@@Gu@physx@@U?$LocalConvex@UCustomConvexV@@@23@@Gu@physx@@YA?AW4GjkStatus@01@AEBU?$RelativeConvex@UCustomConvexV@@@01@AEBU?$LocalConvex@UCustomConvexV@@@01@AEBT__m128@@2AEAT5@333@Z 0000000180057970 f i GuGjkQuery.obj
 0001:00057700       ??$gjkPenetration@U?$RelativeConvex@UCustomConvexV@@@Gu@physx@@U?$LocalConvex@UCustomConvexV@@@23@@Gu@physx@@YA?AW4GjkStatus@01@AEBU?$RelativeConvex@UCustomConvexV@@@01@AEBU?$LocalConvex@UCustomConvexV@@@01@AEBT__m128@@2_NPEIAE4PEIAT5@5AEAEAEAUGjkOutput@01@@Z 0000000180058700 f i GuGjkQuery.obj
 0001:00058c70       ??$gjkPenetration@U?$RelativeConvex@UCustomConvexV@@@Gu@physx@@U?$LocalConvex@UCustomConvexV@@@23@@Gu@physx@@YA?AW4GjkStatus@01@AEBU?$RelativeConvex@UCustomConvexV@@@01@AEBU?$LocalConvex@UCustomConvexV@@@01@AEBT__m128@@2_NPEIAT5@4AEAEAEAUGjkOutput@01@@Z 0000000180059c70 f i GuGjkQuery.obj
 0001:00058cd0       ??$gjkRaycast@U?$RelativeConvex@UCustomConvexV@@@Gu@physx@@U?$LocalConvex@UCustomConvexV@@@23@@Gu@physx@@YA_NAEBU?$RelativeConvex@UCustomConvexV@@@01@AEBU?$LocalConvex@UCustomConvexV@@@01@AEBT__m128@@222AEAT4@33M@Z 0000000180059cd0 f i GuGjkQuery.obj
 0001:00059a30       ??$gjkRaycast@U?$RelativeConvex@UCustomConvexV@@@Gu@physx@@U?$LocalConvex@UPointConvexV@@@23@@Gu@physx@@YA_NAEBU?$RelativeConvex@UCustomConvexV@@@01@AEBU?$LocalConvex@UPointConvexV@@@01@AEBT__m128@@222AEAT4@33M@Z 000000018005aa30 f i GuGjkQuery.obj
 0001:0005a670       ?overlap@PxGjkQuery@physx@@SA_NAEBUSupport@12@0AEBV?$PxTransformT@M@2@1@Z 000000018005b670 f   GuGjkQuery.obj
 0001:0005a9f0       ?proximityInfo@PxGjkQuery@physx@@SA_NAEBUSupport@12@0AEBV?$PxTransformT@M@2@1MMAEAV?$PxVec3T@M@2@22AEAM@Z 000000018005b9f0 f   GuGjkQuery.obj
 0001:0005b770       ?raycast@PxGjkQuery@physx@@SA_NAEBUSupport@12@AEBV?$PxTransformT@M@2@AEBV?$PxVec3T@M@2@2MAEAMAEAV52@4@Z 000000018005c770 f   GuGjkQuery.obj
 0001:0005bc10       ?support@?$LocalConvex@UCustomConvexV@@@Gu@physx@@UEBA?AT__m128@@AEBT4@@Z 000000018005cc10 f i GuGjkQuery.obj
 0001:0005bc90       ?support@?$LocalConvex@UCustomConvexV@@@Gu@physx@@UEBA?AT__m128@@AEBT4@AEAH@Z 000000018005cc90 f i GuGjkQuery.obj
 0001:0005bd10       ?support@?$LocalConvex@UPointConvexV@@@Gu@physx@@UEBA?AT__m128@@AEBT4@@Z 000000018005cd10 f i GuGjkQuery.obj
 0001:0005bd10       ?supportPoint@?$LocalConvex@UPointConvexV@@@Gu@physx@@UEBA?AT__m128@@H@Z 000000018005cd10 f i GuGjkQuery.obj
 0001:0005bd20       ?support@?$LocalConvex@UPointConvexV@@@Gu@physx@@UEBA?AT__m128@@AEBT4@AEAH@Z 000000018005cd20 f i GuGjkQuery.obj
 0001:0005bd40       ?support@?$RelativeConvex@UCustomConvexV@@@Gu@physx@@UEBA?AT__m128@@AEBT4@@Z 000000018005cd40 f i GuGjkQuery.obj
 0001:0005be10       ?support@?$RelativeConvex@UCustomConvexV@@@Gu@physx@@UEBA?AT__m128@@AEBT4@AEAH@Z 000000018005ce10 f i GuGjkQuery.obj
 0001:0005bef0       ?supportPoint@?$LocalConvex@UCustomConvexV@@@Gu@physx@@UEBA?AT__m128@@H@Z 000000018005cef0 f i GuGjkQuery.obj
 0001:0005bf60       ?supportPoint@?$RelativeConvex@UCustomConvexV@@@Gu@physx@@UEBA?AT__m128@@H@Z 000000018005cf60 f i GuGjkQuery.obj
 0001:0005c000       ?sweep@PxGjkQuery@physx@@SA_NAEBUSupport@12@0AEBV?$PxTransformT@M@2@1AEBV?$PxVec3T@M@2@MAEAMAEAV52@4@Z 000000018005d000 f   GuGjkQuery.obj
 0001:0005c7a0       ??$approximateCluster@MV?$PxVec3T@M@physx@@@Gu@physx@@YAXAEBV?$PxArray@HV?$PxReflectionAllocator@H@physx@@@1@IIPEBIPEBV?$PxVec3T@M@1@AEBV?$PxArray@MV?$PxReflectionAllocator@M@physx@@@1@AEBV?$PxArray@V?$PxVec3T@M@physx@@V?$PxReflectionAllocator@V?$PxVec3T@M@physx@@@2@@1@4AEAU?$ClusterApproximationT@MV?$PxVec3T@M@physx@@@01@@Z 000000018005d7a0 f i GuWindingNumber.obj
 0001:0005cde0       ??$copy@V?$PxReflectionAllocator@M@physx@@@?$PxArray@MV?$PxReflectionAllocator@M@physx@@@physx@@IEAAXAEBV01@@Z 000000018005dde0 f i GuWindingNumber.obj
 0001:0005ce40       ??$precomputeClusterInformation@MV?$PxVec3T@M@physx@@@Gu@physx@@YAXHPEBUBVHNode@01@PEBIIPEBV?$PxVec3T@M@1@AEAV?$PxHashMap@IU?$ClusterApproximationT@MV?$PxVec3T@M@physx@@@Gu@physx@@U?$PxHash@I@3@VPxAllocator@3@@1@V?$PxArray@MV?$PxReflectionAllocator@M@physx@@@1@AEBV?$PxArray@V?$PxVec3T@M@physx@@V?$PxReflectionAllocator@V?$PxVec3T@M@physx@@@2@@1@5@Z 000000018005de40 f i GuWindingNumber.obj
 0001:0005d210       ??$precomputeClusterInformation@MV?$PxVec3T@M@physx@@@Gu@physx@@YAXPEBUBVHNode@01@PEBIIPEBV?$PxVec3T@M@1@AEAV?$PxHashMap@IU?$ClusterApproximationT@MV?$PxVec3T@M@physx@@@Gu@physx@@U?$PxHash@I@3@VPxAllocator@3@@1@H@Z 000000018005e210 f i GuWindingNumber.obj
 0001:0005d610       ??$traverseBVH@V?$WindingNumberTraversalController@MV?$PxVec3T@M@physx@@@Gu@physx@@@Gu@physx@@YAXPEBUBVHNode@01@AEAV?$WindingNumberTraversalController@MV?$PxVec3T@M@physx@@@01@H@Z 000000018005e610 f i GuWindingNumber.obj
 0001:0005db60       ?allocate@?$PxArray@HV?$PxReflectionAllocator@H@physx@@@physx@@IEAAPEAHI@Z 000000018005eb60 f i GuWindingNumber.obj
 0001:0005dc00       ?computeWindingNumber@Gu@physx@@YAMPEBUBVHNode@12@AEBV?$PxVec3T@M@2@AEBV?$PxHashMap@IU?$ClusterApproximationT@MV?$PxVec3T@M@physx@@@Gu@physx@@U?$PxHash@I@3@VPxAllocator@3@@2@PEBIPEBV42@@Z 000000018005ec00 f   GuWindingNumber.obj
 0001:0005dc70       ?computeWindingNumber@Gu@physx@@YAMPEBUBVHNode@12@AEBV?$PxVec3T@M@2@MAEBV?$PxHashMap@IU?$ClusterApproximationT@MV?$PxVec3T@M@physx@@@Gu@physx@@U?$PxHash@I@3@VPxAllocator@3@@2@PEBIPEBV42@@Z 000000018005ec70 f   GuWindingNumber.obj
 0001:0005dce0       ?copy@?$PxArray@MV?$PxReflectionAllocator@M@physx@@@physx@@KAXPEAM0PEBM@Z 000000018005ece0 f i GuWindingNumber.obj
 0001:0005dd40       ?create@?$PxHashBase@V?$PxPair@$$CBIU?$ClusterApproximationT@MV?$PxVec3T@M@physx@@@Gu@physx@@@physx@@IU?$PxHash@I@2@UGetKey@?$PxHashMapBase@IU?$ClusterApproximationT@MV?$PxVec3T@M@physx@@@Gu@physx@@U?$PxHash@I@3@VPxAllocator@3@@2@VPxAllocator@2@$00@physx@@QEAAPEAV?$PxPair@$$CBIU?$ClusterApproximationT@MV?$PxVec3T@M@physx@@@Gu@physx@@@2@AEBIAEA_N@Z 000000018005ed40 f i GuWindingNumber.obj
 0001:0005de90       ?growAndPushBack@?$PxArray@HV?$PxReflectionAllocator@H@physx@@@physx@@IEAAAEAHAEBH@Z 000000018005ee90 f i GuWindingNumber.obj
 0001:0005df50       ?growAndPushBack@?$PxArray@USection@Gu@physx@@V?$PxReflectionAllocator@USection@Gu@physx@@@3@@physx@@IEAAAEAUSection@Gu@2@AEBU342@@Z 000000018005ef50 f i GuWindingNumber.obj
 0001:0005e070       ?precomputeClusterInformation@Gu@physx@@YAXPEBUBVHNode@12@PEBIIPEBV?$PxVec3T@M@2@AEAV?$PxHashMap@IU?$ClusterApproximationT@MV?$PxVec3T@M@physx@@@Gu@physx@@U?$PxHash@I@3@VPxAllocator@3@@2@H@Z 000000018005f070 f   GuWindingNumber.obj
 0001:0005e080       ?recreate@?$PxArray@HV?$PxReflectionAllocator@H@physx@@@physx@@IEAAXI@Z 000000018005f080 f i GuWindingNumber.obj
 0001:0005e1b0       ?SweepAnyShapeHeightfield@Gu@physx@@YAMAEBUCCDShape@12@0AEBV?$PxTransformT@M@2@111MAEAV?$PxVec3T@M@2@2MAEAIM@Z 000000018005f1b0 f   GuCCDSweepConvexMesh.obj
 0001:0005f750       ?SweepAnyShapeMesh@Gu@physx@@YAMAEBUCCDShape@12@0AEBV?$PxTransformT@M@2@111MAEAV?$PxVec3T@M@2@2MAEAIM@Z 0000000180060750 f   GuCCDSweepConvexMesh.obj
 0001:00060d10       ?SweepEstimateAnyShapeHeightfield@Gu@physx@@YAMAEBUCCDShape@12@0MM@Z 0000000180061d10 f   GuCCDSweepConvexMesh.obj
 0001:00061970       ?SweepEstimateAnyShapeMesh@Gu@physx@@YAMAEBUCCDShape@12@0MM@Z 0000000180062970 f   GuCCDSweepConvexMesh.obj
 0001:00061c10       ?allocate@?$PxArray@IV?$PxInlineAllocator@$0BAA@V?$PxReflectionAllocator@I@physx@@@physx@@@physx@@IEAAPEAII@Z 0000000180062c10 f i GuCCDSweepConvexMesh.obj
 0001:000626f0       ?growAndPushBack@?$PxArray@IV?$PxInlineAllocator@$0BAA@V?$PxReflectionAllocator@I@physx@@@physx@@@physx@@IEAAAEAIAEBI@Z 00000001800636f0 f i GuCCDSweepConvexMesh.obj
 0001:00062d30       ?recreate@?$PxArray@IV?$PxInlineAllocator@$0BAA@V?$PxReflectionAllocator@I@physx@@@physx@@@physx@@IEAAXI@Z 0000000180063d30 f i GuCCDSweepConvexMesh.obj
 0001:00062e60       ?resize@?$PxArray@IV?$PxInlineAllocator@$0BAA@V?$PxReflectionAllocator@I@physx@@@physx@@@physx@@QEAAXIAEBI@Z 0000000180063e60 f i GuCCDSweepConvexMesh.obj
 0001:00062f30       ?transformBoxOrthonormal@physx@@YA?AVBox@Gu@1@AEBV231@AEBV?$PxTransformT@M@1@@Z 0000000180063f30 f i GuCCDSweepConvexMesh.obj
 0001:000633c0       ?UnimplementedSweep@Gu@physx@@YAMAEBUCCDShape@12@0AEBV?$PxTransformT@M@2@111MAEAV?$PxVec3T@M@2@2MAEAIM@Z 00000001800643c0 f   GuCCDSweepPrimitives.obj
 0001:00066f60       ?UnimplementedTriangleSweep@Gu@physx@@YAMAEBVPxGeometry@2@0AEBV?$PxTransformT@M@2@111MAEAV?$PxVec3T@M@2@2AEBVFastVertex2ShapeScaling@Cm@2@AEAVTriangleV@12@M@Z 0000000180067f60 f   GuCCDSweepPrimitives.obj
 0001:00066f70       ??$SweepGeomTriangles@VCapsuleV@Gu@physx@@@Gu@physx@@YAMAEBVPxGeometry@1@0AEBV?$PxTransformT@M@1@111MAEAV?$PxVec3T@M@1@2AEBVFastVertex2ShapeScaling@Cm@1@AEAVTriangleV@01@M@Z 0000000180067f70 f i GuCCDSweepPrimitives.obj
 0001:000676a0       ??$SweepGeomTriangles@VBoxV@Gu@physx@@@Gu@physx@@YAMAEBVPxGeometry@1@0AEBV?$PxTransformT@M@1@111MAEAV?$PxVec3T@M@1@2AEBVFastVertex2ShapeScaling@Cm@1@AEAVTriangleV@01@M@Z 00000001800686a0 f i GuCCDSweepPrimitives.obj
 0001:00067df0       ??$SweepGeomTriangles@VConvexHullV@Gu@physx@@@Gu@physx@@YAMAEBVPxGeometry@1@0AEBV?$PxTransformT@M@1@111MAEAV?$PxVec3T@M@1@2AEBVFastVertex2ShapeScaling@Cm@1@AEAVTriangleV@01@M@Z 0000000180068df0 f i GuCCDSweepPrimitives.obj
 0001:000688e0       ?supportPoint@?$RelativeConvex@VCapsuleV@Gu@physx@@@Gu@physx@@UEBA?AT__m128@@H@Z 00000001800698e0 f i GuCCDSweepPrimitives.obj
 0001:00068940       ?support@?$RelativeConvex@VCapsuleV@Gu@physx@@@Gu@physx@@UEBA?AT__m128@@AEBT4@@Z 0000000180069940 f i GuCCDSweepPrimitives.obj
 0001:000689f0       ?support@?$RelativeConvex@VCapsuleV@Gu@physx@@@Gu@physx@@UEBA?AT__m128@@AEBT4@AEAH@Z 00000001800699f0 f i GuCCDSweepPrimitives.obj
 0001:00068ab0       ?supportPoint@?$RelativeConvex@VTriangleV@Gu@physx@@@Gu@physx@@UEBA?AT__m128@@H@Z 0000000180069ab0 f i GuCCDSweepPrimitives.obj
 0001:00068b00       ?support@?$RelativeConvex@VTriangleV@Gu@physx@@@Gu@physx@@UEBA?AT__m128@@AEBT4@@Z 0000000180069b00 f i GuCCDSweepPrimitives.obj
 0001:00068c00       ?support@?$RelativeConvex@VTriangleV@Gu@physx@@@Gu@physx@@UEBA?AT__m128@@AEBT4@AEAH@Z 0000000180069c00 f i GuCCDSweepPrimitives.obj
 0001:00068d40       ??$gjkPenetration@U?$RelativeConvex@VCapsuleV@Gu@physx@@@Gu@physx@@U?$LocalConvex@VBoxV@Gu@physx@@@23@@Gu@physx@@YA?AW4GjkStatus@01@AEBU?$RelativeConvex@VCapsuleV@Gu@physx@@@01@AEBU?$LocalConvex@VBoxV@Gu@physx@@@01@AEBT__m128@@2_NPEIAE4AEAEAEAUGjkOutput@01@@Z 0000000180069d40 f i GuCCDSweepPrimitives.obj
 0001:00068db0       ??$gjkPenetration@U?$RelativeConvex@VCapsuleV@Gu@physx@@@Gu@physx@@U?$LocalConvex@VBoxV@Gu@physx@@@23@@Gu@physx@@YA?AW4GjkStatus@01@AEBU?$RelativeConvex@VCapsuleV@Gu@physx@@@01@AEBU?$LocalConvex@VBoxV@Gu@physx@@@01@AEBT__m128@@2_NPEIAE4PEIAT5@5AEAEAEAUGjkOutput@01@@Z 0000000180069db0 f i GuCCDSweepPrimitives.obj
 0001:0006a2b0       ??$gjkPenetration@U?$RelativeConvex@VCapsuleV@Gu@physx@@@Gu@physx@@U?$LocalConvex@VCapsuleV@Gu@physx@@@23@@Gu@physx@@YA?AW4GjkStatus@01@AEBU?$RelativeConvex@VCapsuleV@Gu@physx@@@01@AEBU?$LocalConvex@VCapsuleV@Gu@physx@@@01@AEBT__m128@@2_NPEIAE4AEAEAEAUGjkOutput@01@@Z 000000018006b2b0 f i GuCCDSweepPrimitives.obj
 0001:0006a320       ??$gjkPenetration@U?$RelativeConvex@VCapsuleV@Gu@physx@@@Gu@physx@@U?$LocalConvex@VCapsuleV@Gu@physx@@@23@@Gu@physx@@YA?AW4GjkStatus@01@AEBU?$RelativeConvex@VCapsuleV@Gu@physx@@@01@AEBU?$LocalConvex@VCapsuleV@Gu@physx@@@01@AEBT__m128@@2_NPEIAE4PEIAT5@5AEAEAEAUGjkOutput@01@@Z 000000018006b320 f i GuCCDSweepPrimitives.obj
 0001:0006b810       ??$gjkPenetration@U?$RelativeConvex@VCapsuleV@Gu@physx@@@Gu@physx@@U?$LocalConvex@VConvexHullV@Gu@physx@@@23@@Gu@physx@@YA?AW4GjkStatus@01@AEBU?$RelativeConvex@VCapsuleV@Gu@physx@@@01@AEBU?$LocalConvex@VConvexHullV@Gu@physx@@@01@AEBT__m128@@2_NPEIAE4AEAEAEAUGjkOutput@01@@Z 000000018006c810 f i GuCCDSweepPrimitives.obj
 0001:0006b880       ??$gjkPenetration@U?$RelativeConvex@VCapsuleV@Gu@physx@@@Gu@physx@@U?$LocalConvex@VConvexHullV@Gu@physx@@@23@@Gu@physx@@YA?AW4GjkStatus@01@AEBU?$RelativeConvex@VCapsuleV@Gu@physx@@@01@AEBU?$LocalConvex@VConvexHullV@Gu@physx@@@01@AEBT__m128@@2_NPEIAE4PEIAT5@5AEAEAEAUGjkOutput@01@@Z 000000018006c880 f i GuCCDSweepPrimitives.obj
 0001:0006ce30       ??$gjkPenetration@U?$RelativeConvex@VTriangleV@Gu@physx@@@Gu@physx@@U?$LocalConvex@VBoxV@Gu@physx@@@23@@Gu@physx@@YA?AW4GjkStatus@01@AEBU?$RelativeConvex@VTriangleV@Gu@physx@@@01@AEBU?$LocalConvex@VBoxV@Gu@physx@@@01@AEBT__m128@@2_NPEIAE4AEAEAEAUGjkOutput@01@@Z 000000018006de30 f i GuCCDSweepPrimitives.obj
 0001:0006cea0       ??$gjkPenetration@U?$RelativeConvex@VTriangleV@Gu@physx@@@Gu@physx@@U?$LocalConvex@VBoxV@Gu@physx@@@23@@Gu@physx@@YA?AW4GjkStatus@01@AEBU?$RelativeConvex@VTriangleV@Gu@physx@@@01@AEBU?$LocalConvex@VBoxV@Gu@physx@@@01@AEBT__m128@@2_NPEIAE4PEIAT5@5AEAEAEAUGjkOutput@01@@Z 000000018006dea0 f i GuCCDSweepPrimitives.obj
 0001:0006e3c0       ??$gjkPenetration@U?$RelativeConvex@VTriangleV@Gu@physx@@@Gu@physx@@U?$LocalConvex@VCapsuleV@Gu@physx@@@23@@Gu@physx@@YA?AW4GjkStatus@01@AEBU?$RelativeConvex@VTriangleV@Gu@physx@@@01@AEBU?$LocalConvex@VCapsuleV@Gu@physx@@@01@AEBT__m128@@2_NPEIAE4AEAEAEAUGjkOutput@01@@Z 000000018006f3c0 f i GuCCDSweepPrimitives.obj
 0001:0006e430       ??$gjkPenetration@U?$RelativeConvex@VTriangleV@Gu@physx@@@Gu@physx@@U?$LocalConvex@VCapsuleV@Gu@physx@@@23@@Gu@physx@@YA?AW4GjkStatus@01@AEBU?$RelativeConvex@VTriangleV@Gu@physx@@@01@AEBU?$LocalConvex@VCapsuleV@Gu@physx@@@01@AEBT__m128@@2_NPEIAE4PEIAT5@5AEAEAEAUGjkOutput@01@@Z 000000018006f430 f i GuCCDSweepPrimitives.obj
 0001:0006f950       ??$gjkPenetration@U?$RelativeConvex@VTriangleV@Gu@physx@@@Gu@physx@@U?$LocalConvex@VConvexHullV@Gu@physx@@@23@@Gu@physx@@YA?AW4GjkStatus@01@AEBU?$RelativeConvex@VTriangleV@Gu@physx@@@01@AEBU?$LocalConvex@VConvexHullV@Gu@physx@@@01@AEBT__m128@@2_NPEIAE4AEAEAEAUGjkOutput@01@@Z 0000000180070950 f i GuCCDSweepPrimitives.obj
 0001:0006f9c0       ??$gjkPenetration@U?$RelativeConvex@VTriangleV@Gu@physx@@@Gu@physx@@U?$LocalConvex@VConvexHullV@Gu@physx@@@23@@Gu@physx@@YA?AW4GjkStatus@01@AEBU?$RelativeConvex@VTriangleV@Gu@physx@@@01@AEBU?$LocalConvex@VConvexHullV@Gu@physx@@@01@AEBT__m128@@2_NPEIAE4PEIAT5@5AEAEAEAUGjkOutput@01@@Z 00000001800709c0 f i GuCCDSweepPrimitives.obj
 0001:00070f80       ??$gjkRaycast@U?$RelativeConvex@VCapsuleV@Gu@physx@@@Gu@physx@@U?$LocalConvex@VBoxV@Gu@physx@@@23@@Gu@physx@@YA_NAEBU?$RelativeConvex@VCapsuleV@Gu@physx@@@01@AEBU?$LocalConvex@VBoxV@Gu@physx@@@01@AEBT__m128@@222AEAT4@33M@Z 0000000180071f80 f i GuCCDSweepPrimitives.obj
 0001:00071bf0       ??$gjkRaycast@U?$RelativeConvex@VCapsuleV@Gu@physx@@@Gu@physx@@U?$LocalConvex@VCapsuleV@Gu@physx@@@23@@Gu@physx@@YA_NAEBU?$RelativeConvex@VCapsuleV@Gu@physx@@@01@AEBU?$LocalConvex@VCapsuleV@Gu@physx@@@01@AEBT__m128@@222AEAT4@33M@Z 0000000180072bf0 f i GuCCDSweepPrimitives.obj
 0001:000728e0       ??$gjkRaycast@U?$RelativeConvex@VCapsuleV@Gu@physx@@@Gu@physx@@U?$LocalConvex@VConvexHullV@Gu@physx@@@23@@Gu@physx@@YA_NAEBU?$RelativeConvex@VCapsuleV@Gu@physx@@@01@AEBU?$LocalConvex@VConvexHullV@Gu@physx@@@01@AEBT__m128@@222AEAT4@33M@Z 00000001800738e0 f i GuCCDSweepPrimitives.obj
 0001:000736e0       ??$gjkRaycast@U?$RelativeConvex@VTriangleV@Gu@physx@@@Gu@physx@@U?$LocalConvex@VBoxV@Gu@physx@@@23@@Gu@physx@@YA_NAEBU?$RelativeConvex@VTriangleV@Gu@physx@@@01@AEBU?$LocalConvex@VBoxV@Gu@physx@@@01@AEBT__m128@@222AEAT4@33M@Z 00000001800746e0 f i GuCCDSweepPrimitives.obj
 0001:000743f0       ??$gjkRaycast@U?$RelativeConvex@VTriangleV@Gu@physx@@@Gu@physx@@U?$LocalConvex@VCapsuleV@Gu@physx@@@23@@Gu@physx@@YA_NAEBU?$RelativeConvex@VTriangleV@Gu@physx@@@01@AEBU?$LocalConvex@VCapsuleV@Gu@physx@@@01@AEBT__m128@@222AEAT4@33M@Z 00000001800753f0 f i GuCCDSweepPrimitives.obj
 0001:00075170       ??$gjkRaycast@U?$RelativeConvex@VTriangleV@Gu@physx@@@Gu@physx@@U?$LocalConvex@VConvexHullV@Gu@physx@@@23@@Gu@physx@@YA_NAEBU?$RelativeConvex@VTriangleV@Gu@physx@@@01@AEBU?$LocalConvex@VConvexHullV@Gu@physx@@@01@AEBT__m128@@222AEAT4@33M@Z 0000000180076170 f i GuCCDSweepPrimitives.obj
 0001:00076030       ?SweepShapeShape@Gu@physx@@YAMAEBUCCDShape@12@0AEBV?$PxTransformT@M@2@111MAEAV?$PxVec3T@M@2@2MAEAIM@Z 0000000180077030 f   GuCCDSweepPrimitives.obj
 0001:00076050       ?SweepShapeTriangle@Gu@physx@@YAMAEBVPxGeometry@2@0AEBV?$PxTransformT@M@2@111MAEAV?$PxVec3T@M@2@2AEBVFastVertex2ShapeScaling@Cm@2@AEAVTriangleV@12@M@Z 0000000180077050 f   GuCCDSweepPrimitives.obj
 0001:00076070       ?barycentricCoordinates@Gu@physx@@YAXAEBT__m128@@000AEAT3@1@Z 0000000180077070 f   GuBarycentricCoordinates.obj
 0001:000761b0       ?barycentricCoordinates@Gu@physx@@YAXAEBT__m128@@00AEAT3@@Z 00000001800771b0 f   GuBarycentricCoordinates.obj
 0001:00076220       ??$?_UV?$PxReflectionAllocator@VAdjTriangle@Gu@physx@@@physx@@@PxUserAllocated@physx@@SAPEAX_KV?$PxReflectionAllocator@VAdjTriangle@Gu@physx@@@1@PEBDH@Z 0000000180077220 f i GuAdjacencies.obj
 0001:00076300       ??0AdjacenciesBuilder@Gu@physx@@QEAA@XZ 0000000180077300 f   GuAdjacencies.obj
 0001:00076310       ??1AdjacenciesBuilder@Gu@physx@@QEAA@XZ 0000000180077310 f   GuAdjacencies.obj
 0001:00076460       ?ComputeNbBoundaryEdges@Adjacencies@Gu@physx@@QEBAIXZ 0000000180077460 f   GuAdjacencies.obj
 0001:000766f0       ?Init@AdjacenciesBuilder@Gu@physx@@QEAA_NAEBUADJACENCIESCREATE@23@@Z 00000001800776f0 f   GuAdjacencies.obj
 0001:00076c50       ??0EdgeList@Gu@physx@@QEAA@XZ 0000000180077c50 f   GuEdgeList.obj
 0001:00076c70       ??1EdgeList@Gu@physx@@QEAA@XZ 0000000180077c70 f   GuEdgeList.obj
 0001:00076d20       ?computeActiveEdges@EdgeList@Gu@physx@@AEAA_NIPEBIPEBGPEBV?$PxVec3T@M@3@M@Z 0000000180077d20 f   GuEdgeList.obj
 0001:000780b0       ?createEdgesToFaces@EdgeList@Gu@physx@@AEAA_NIPEBIPEBG@Z 00000001800790b0 f   GuEdgeList.obj
 0001:00078310       ?createFacesToEdges@EdgeList@Gu@physx@@AEAA_NIPEBIPEBG@Z 0000000180079310 f   GuEdgeList.obj
 0001:000786d0       ?init@EdgeList@Gu@physx@@QEAA_NAEBUEDGELISTCREATE@23@@Z 00000001800796d0 f   GuEdgeList.obj
 0001:000787f0       ?addAxis@SeparatingAxes@Gu@physx@@QEAA_NAEBV?$PxVec3T@M@3@@Z 00000001800797f0 f   GuSeparatingAxes.obj
 0001:000788b0       ??$kmeans_cluster@V?$PxVec3T@M@physx@@M@@YAIPEBV?$PxVec3T@M@physx@@IIPEAV01@PEAIMM@Z 00000001800798b0 f i GuQuantizer.obj
 0001:00079270       ??_EQuantizer@Gu@physx@@MEAAPEAXI@Z 000000018007a270 f i GuQuantizer.obj
 0001:00079270       ??_GQuantizer@Gu@physx@@MEAAPEAXI@Z 000000018007a270 f i GuQuantizer.obj
 0001:000792a0       ??_EQuantizerImpl@@EEAAPEAXI@Z 000000018007a2a0 f i GuQuantizer.obj
 0001:000792a0       ??_GQuantizerImpl@@EEAAPEAXI@Z 000000018007a2a0 f i GuQuantizer.obj
 0001:00079370       ?createQuantizer@Gu@physx@@YAPEAVQuantizer@12@XZ 000000018007a370 f   GuQuantizer.obj
 0001:00079420       ?getDenormalizeCenter@QuantizerImpl@@UEBAAEBV?$PxVec3T@M@physx@@XZ 000000018007a420 f i GuQuantizer.obj
 0001:00079430       ?getCurrentAABBTreeBounds@PruningPool@Gu@physx@@QEBAAEBVAABBTreeBounds@23@XZ 000000018007a430 f i GuIncrementalAABBPrunerCore.obj
 0001:00079430       ?getDenormalizeScale@QuantizerImpl@@UEBAAEBV?$PxVec3T@M@physx@@XZ 000000018007a430 f i GuQuantizer.obj
 0001:00079440       ?kmeansQuantize3D@QuantizerImpl@@UEAAPEBV?$PxVec3T@M@physx@@IPEBV23@I_NIAEAI@Z 000000018007a440 f i GuQuantizer.obj
 0001:000796a0       ?normalizeInput@QuantizerImpl@@AEAAXIPEBV?$PxVec3T@M@physx@@I@Z 000000018007a6a0 f i GuQuantizer.obj
 0001:00079af0       ?release@QuantizerImpl@@UEAAXXZ 000000018007aaf0 f i GuQuantizer.obj
 0001:00079b10       ??0MeshCleaner@Gu@physx@@QEAA@IPEBV?$PxVec3T@M@2@IPEBIM@Z 000000018007ab10 f   GuMeshCleaner.obj
 0001:0007a4d0       ??1MeshCleaner@Gu@physx@@QEAA@XZ 000000018007b4d0 f   GuMeshCleaner.obj
 0001:0007a560       ??0ReducedVertexCloud@Gu@physx@@QEAA@PEBV?$PxVec3T@M@2@I@Z 000000018007b560 f   GuVertexReducer.obj
 0001:0007a580       ??1ReducedVertexCloud@Gu@physx@@QEAA@XZ 000000018007b580 f   GuVertexReducer.obj
 0001:0007a590       ?clean@ReducedVertexCloud@Gu@physx@@QEAAAEAV123@XZ 000000018007b590 f   GuVertexReducer.obj
 0001:0007a600       ?reduce@ReducedVertexCloud@Gu@physx@@QEAA_NPEAUREDUCEDCLOUD@23@@Z 000000018007b600 f   GuVertexReducer.obj
 0001:0007a890       ??$copy@V?$PxReflectionAllocator@H@physx@@@?$PxArray@HV?$PxReflectionAllocator@H@physx@@@physx@@IEAAXAEBV01@@Z 000000018007b890 f i GuMeshAnalysis.obj
 0001:0007a900       ?buildTriangleAdjacency@MeshAnalyzer@Gu@physx@@SA_NPEBU?$IndexedTriangleT@H@23@IAEAV?$PxArray@HV?$PxReflectionAllocator@H@physx@@@3@AEAV?$PxHashMap@_KHU?$PxHash@_K@physx@@VPxAllocator@2@@3@@Z 000000018007b900 f   GuMeshAnalysis.obj
 0001:0007ac00       ?checkConsistentTriangleOrientation@MeshAnalyzer@Gu@physx@@SA_NPEBU?$IndexedTriangleT@H@23@IAEAV?$PxArray@_NV?$PxReflectionAllocator@_N@physx@@@3@AEAV?$PxHashMap@_KHU?$PxHash@_K@physx@@VPxAllocator@2@@3@@Z 000000018007bc00 f   GuMeshAnalysis.obj
 0001:0007b040       ?checkMeshWatertightness@MeshAnalyzer@Gu@physx@@SA_NPEBU?$IndexedTriangleT@H@23@I@Z 000000018007c040 f   GuMeshAnalysis.obj
 0001:0007b190       ?erase@?$PxHashBase@V?$PxPair@$$CB_KH@physx@@_KU?$PxHash@_K@2@UGetKey@?$PxHashMapBase@_KHU?$PxHash@_K@physx@@VPxAllocator@2@@2@VPxAllocator@2@$00@physx@@QEAA_NAEB_K@Z 000000018007c190 f i GuMeshAnalysis.obj
 0001:0007b340       ?growAndPushBack@?$PxArray@V?$PxArray@HV?$PxReflectionAllocator@H@physx@@@physx@@V?$PxReflectionAllocator@V?$PxArray@HV?$PxReflectionAllocator@H@physx@@@physx@@@2@@physx@@IEAAAEAV?$PxArray@HV?$PxReflectionAllocator@H@physx@@@2@AEBV32@@Z 000000018007c340 f i GuMeshAnalysis.obj
 0001:0007b4d0       ?makeTriOrientationConsistent@MeshAnalyzer@Gu@physx@@SA_NPEAU?$IndexedTriangleT@H@23@I_N@Z 000000018007c4d0 f   GuMeshAnalysis.obj
 0001:0007b5e0       ?recreate@?$PxArray@_NV?$PxReflectionAllocator@_N@physx@@@physx@@IEAAXI@Z 000000018007c5e0 f i GuMeshAnalysis.obj
 0001:0007b6f0       ?resize@?$PxArray@HV?$PxReflectionAllocator@H@physx@@@physx@@QEAAXIAEBH@Z 000000018007c6f0 f i GuMeshAnalysis.obj
 0001:0007b7b0       ?resize@?$PxArray@_NV?$PxReflectionAllocator@_N@physx@@@physx@@QEAAXIAEB_N@Z 000000018007c7b0 f i GuMeshAnalysis.obj
 0001:0007b870       ?contactBoxBox@Gu@physx@@YA_NAEBVPxGeometry@2@0AEBV?$PxTransformT@M@2@1AEBUNarrowPhaseParams@12@AEAUCache@12@AEAVPxContactBuffer@2@PEAVPxRenderOutput@2@@Z 000000018007c870 f   GuContactBoxBox.obj
 0001:0007f6b0       ?contactCapsuleBox@Gu@physx@@YA_NAEBVPxGeometry@2@0AEBV?$PxTransformT@M@2@1AEBUNarrowPhaseParams@12@AEAUCache@12@AEAVPxContactBuffer@2@PEAVPxRenderOutput@2@@Z 00000001800806b0 f   GuContactCapsuleBox.obj
 0001:0007fec0       ?contactCapsuleCapsule@Gu@physx@@YA_NAEBVPxGeometry@2@0AEBV?$PxTransformT@M@2@1AEBUNarrowPhaseParams@12@AEAUCache@12@AEAVPxContactBuffer@2@PEAVPxRenderOutput@2@@Z 0000000180080ec0 f   GuContactCapsuleCapsule.obj
 0001:000828b0       ?contactCapsuleConvex@Gu@physx@@YA_NAEBVPxGeometry@2@0AEBV?$PxTransformT@M@2@1AEBUNarrowPhaseParams@12@AEAUCache@12@AEAVPxContactBuffer@2@PEAVPxRenderOutput@2@@Z 00000001800838b0 f   GuContactCapsuleConvex.obj
 0001:00084de0       ?contactCapsuleHeightfield@Gu@physx@@YA_NAEBVPxGeometry@2@0AEBV?$PxTransformT@M@2@1AEBUNarrowPhaseParams@12@AEAUCache@12@AEAVPxContactBuffer@2@PEAVPxRenderOutput@2@@Z 0000000180085de0 f   GuContactCapsuleMesh.obj
 0001:00085620       ?contactCapsuleMesh@Gu@physx@@YA_NAEBVPxGeometry@2@0AEBV?$PxTransformT@M@2@1AEBUNarrowPhaseParams@12@AEAUCache@12@AEAVPxContactBuffer@2@PEAVPxRenderOutput@2@@Z 0000000180086620 f   GuContactCapsuleMesh.obj
 0001:000867a0       ?transformQueryBounds@FastVertex2ShapeScaling@Cm@physx@@QEBAXAEAV?$PxVec3T@M@3@0AEAV?$PxMat33T@M@3@@Z 00000001800877a0 f i GuContactCapsuleMesh.obj
 0001:0008ad00       ?contactBoxConvex@Gu@physx@@YA_NAEBVPxGeometry@2@0AEBV?$PxTransformT@M@2@1AEBUNarrowPhaseParams@12@AEAUCache@12@AEAVPxContactBuffer@2@PEAVPxRenderOutput@2@@Z 000000018008bd00 f   GuContactConvexConvex.obj
 0001:0008aed0       ?contactConvexConvex@Gu@physx@@YA_NAEBVPxGeometry@2@0AEBV?$PxTransformT@M@2@1AEBUNarrowPhaseParams@12@AEAUCache@12@AEAVPxContactBuffer@2@PEAVPxRenderOutput@2@@Z 000000018008bed0 f   GuContactConvexConvex.obj
 0001:0008b350       ?transformPlaneToShapeSpace@FastVertex2ShapeScaling@Cm@physx@@QEBAXAEBV?$PxVec3T@M@3@MAEAV43@AEAM@Z 000000018008c350 f i GuContactConvexConvex.obj
 0001:0008b800       ??_EConvexMeshContactGenerationCallback@@UEAAPEAXI@Z 000000018008c800 f i GuContactConvexMesh.obj
 0001:0008b800       ??_GConvexMeshContactGenerationCallback@@UEAAPEAXI@Z 000000018008c800 f i GuContactConvexMesh.obj
 0001:0008b860       ?addData@?$CacheMap@UCachedEdge@Gu@physx@@$0IA@@Gu@physx@@QEAA_NAEBUCachedEdge@23@@Z 000000018008c860 f i GuContactConvexMesh.obj
 0001:0008b940       ?addData@?$CacheMap@UCachedVertex@Gu@physx@@$0IA@@Gu@physx@@QEAA_NAEBUCachedVertex@23@@Z 000000018008c940 f i GuContactConvexMesh.obj
 0001:0008b9d0       ?allocate@?$PxArray@IV?$PxInlineAllocator@$0BBAA@V?$PxReflectionAllocator@I@physx@@@physx@@@physx@@IEAAPEAII@Z 000000018008c9d0 f i GuContactConvexMesh.obj
 0001:0008bdd0       ?contactBoxHeightfield@Gu@physx@@YA_NAEBVPxGeometry@2@0AEBV?$PxTransformT@M@2@1AEBUNarrowPhaseParams@12@AEAUCache@12@AEAVPxContactBuffer@2@PEAVPxRenderOutput@2@@Z 000000018008cdd0 f   GuContactConvexMesh.obj
 0001:0008bf50       ?contactBoxMesh@Gu@physx@@YA_NAEBVPxGeometry@2@0AEBV?$PxTransformT@M@2@1AEBUNarrowPhaseParams@12@AEAUCache@12@AEAVPxContactBuffer@2@PEAVPxRenderOutput@2@@Z 000000018008cf50 f   GuContactConvexMesh.obj
 0001:0008c120       ?contactConvexHeightfield@Gu@physx@@YA_NAEBVPxGeometry@2@0AEBV?$PxTransformT@M@2@1AEBUNarrowPhaseParams@12@AEAUCache@12@AEAVPxContactBuffer@2@PEAVPxRenderOutput@2@@Z 000000018008d120 f   GuContactConvexMesh.obj
 0001:0008c270       ?contactConvexMesh@Gu@physx@@YA_NAEBVPxGeometry@2@0AEBV?$PxTransformT@M@2@1AEBUNarrowPhaseParams@12@AEAUCache@12@AEAVPxContactBuffer@2@PEAVPxRenderOutput@2@@Z 000000018008d270 f   GuContactConvexMesh.obj
 0001:0008f980       ?processHit@ConvexMeshContactGenerationCallback@@UEAA_NAEBUPxGeomRaycastHit@physx@@AEBV?$PxVec3T@M@3@11AEAMPEBI@Z 0000000180090980 f i GuContactConvexMesh.obj
 0001:00090340       ?recreate@?$PxArray@IV?$PxInlineAllocator@$0BBAA@V?$PxReflectionAllocator@I@physx@@@physx@@@physx@@IEAAXI@Z 0000000180091340 f i GuContactConvexMesh.obj
 0001:000917d0       ?contactPlaneBox@Gu@physx@@YA_NAEBVPxGeometry@2@0AEBV?$PxTransformT@M@2@1AEBUNarrowPhaseParams@12@AEAUCache@12@AEAVPxContactBuffer@2@PEAVPxRenderOutput@2@@Z 00000001800927d0 f   GuContactPlaneBox.obj
 0001:00092460       ?contactPlaneCapsule@Gu@physx@@YA_NAEBVPxGeometry@2@0AEBV?$PxTransformT@M@2@1AEBUNarrowPhaseParams@12@AEAUCache@12@AEAVPxContactBuffer@2@PEAVPxRenderOutput@2@@Z 0000000180093460 f   GuContactPlaneCapsule.obj
 0001:00092b30       ?contactPlaneConvex@Gu@physx@@YA_NAEBVPxGeometry@2@0AEBV?$PxTransformT@M@2@1AEBUNarrowPhaseParams@12@AEAUCache@12@AEAVPxContactBuffer@2@PEAVPxRenderOutput@2@@Z 0000000180093b30 f   GuContactPlaneConvex.obj
 0001:00094860       ?contactPolygonPolygonExt@Gu@physx@@YA_NIPEBV?$PxVec3T@M@2@PEBEAEBV?$PxMat34T@M@2@AEBVPxPlane@2@AEBV?$PxMat33T@M@2@I01234AEBV32@22IIAEAVPxContactBuffer@2@_N5M@Z 0000000180095860 f   GuContactPolygonPolygon.obj
 0001:00095fd0       ?findRotationMatrixFromZ@Gu@physx@@YA?AV?$PxMat33T@M@2@AEBV?$PxVec3T@M@2@@Z 0000000180096fd0 f   GuContactPolygonPolygon.obj
 0001:000969f0       ?contactSphereBox@Gu@physx@@YA_NAEBVPxGeometry@2@0AEBV?$PxTransformT@M@2@1AEBUNarrowPhaseParams@12@AEAUCache@12@AEAVPxContactBuffer@2@PEAVPxRenderOutput@2@@Z 00000001800979f0 f   GuContactSphereBox.obj
 0001:00096fb0       ?contactSphereCapsule@Gu@physx@@YA_NAEBVPxGeometry@2@0AEBV?$PxTransformT@M@2@1AEBUNarrowPhaseParams@12@AEAUCache@12@AEAVPxContactBuffer@2@PEAVPxRenderOutput@2@@Z 0000000180097fb0 f   GuContactSphereCapsule.obj
 0001:00097d90       ?contactSphereHeightfield@Gu@physx@@YA_NAEBVPxGeometry@2@0AEBV?$PxTransformT@M@2@1AEBUNarrowPhaseParams@12@AEAUCache@12@AEAVPxContactBuffer@2@PEAVPxRenderOutput@2@@Z 0000000180098d90 f   GuContactSphereMesh.obj
 0001:00098780       ?contactSphereMesh@Gu@physx@@YA_NAEBVPxGeometry@2@0AEBV?$PxTransformT@M@2@1AEBUNarrowPhaseParams@12@AEAUCache@12@AEAVPxContactBuffer@2@PEAVPxRenderOutput@2@@Z 0000000180099780 f   GuContactSphereMesh.obj
 0001:0009aaa0       ?contactSpherePlane@Gu@physx@@YA_NAEBVPxGeometry@2@0AEBV?$PxTransformT@M@2@1AEBUNarrowPhaseParams@12@AEAUCache@12@AEAVPxContactBuffer@2@PEAVPxRenderOutput@2@@Z 000000018009baa0 f   GuContactSpherePlane.obj
 0001:0009acb0       ?contactSphereSphere@Gu@physx@@YA_NAEBVPxGeometry@2@0AEBV?$PxTransformT@M@2@1AEBUNarrowPhaseParams@12@AEAUCache@12@AEAVPxContactBuffer@2@PEAVPxRenderOutput@2@@Z 000000018009bcb0 f   GuContactSphereSphere.obj
 0001:0009ae30       ?contactCustomGeometryGeometry@Gu@physx@@YA_NAEBVPxGeometry@2@0AEBV?$PxTransformT@M@2@1AEBUNarrowPhaseParams@12@AEAUCache@12@AEAVPxContactBuffer@2@PEAVPxRenderOutput@2@@Z 000000018009be30 f   GuContactCustomGeometry.obj
 0001:0009ae90       ?contactGeometryCustomGeometry@Gu@physx@@YA_NAEBVPxGeometry@2@0AEBV?$PxTransformT@M@2@1AEBUNarrowPhaseParams@12@AEAUCache@12@AEAVPxContactBuffer@2@PEAVPxRenderOutput@2@@Z 000000018009be90 f   GuContactCustomGeometry.obj
 0001:0009af50       ?selectNormal@Gu@physx@@YA_NEMM@Z 000000018009bf50 f   GuFeatureCode.obj
 0001:0009afd0       ??0BigConvexData@physx@@QEAA@XZ 000000018009bfd0 f   GuBigConvexData.obj
 0001:0009aff0       ??1BigConvexData@physx@@QEAA@XZ 000000018009bff0 f   GuBigConvexData.obj
 0001:0009b0b0       ?ComputeNearestOffset@BigConvexData@physx@@QEBAIAEBV?$PxVec3T@M@2@@Z 000000018009c0b0 f   GuBigConvexData.obj
 0001:0009b1b0       ?ComputeOffset@BigConvexData@physx@@QEBAIAEBV?$PxVec3T@M@2@@Z 000000018009c1b0 f   GuBigConvexData.obj
 0001:0009b2b0       ?CreateOffsets@BigConvexData@physx@@IEAAXXZ 000000018009c2b0 f   GuBigConvexData.obj
 0001:0009b300       ?Load@BigConvexData@physx@@QEAA_NAEAVPxInputStream@2@@Z 000000018009c300 f   GuBigConvexData.obj
 0001:0009b410       ?VLoad@BigConvexData@physx@@IEAA_NAEAVPxInputStream@2@@Z 000000018009c410 f   GuBigConvexData.obj
 0001:0009b5b0       ?exportExtraData@BigConvexData@physx@@QEAAXAEAVPxSerializationContext@2@@Z 000000018009c5b0 f   GuBigConvexData.obj
 0001:0009b630       ?importExtraData@BigConvexData@physx@@QEAAXAEAVPxDeserializationContext@2@@Z 000000018009c630 f   GuBigConvexData.obj
 0001:0009b6a0       ?findUniqueConvexEdges@Gu@physx@@YAIIPEIAUConvexEdge@12@IPEIBUHullPolygonData@12@PEIBE@Z 000000018009c6a0 f   GuConvexHelper.obj
 0001:0009b7e0       ?getConvexData@Gu@physx@@YA_NAEBVPxConvexMeshGeometry@2@AEAVFastVertex2ShapeScaling@Cm@2@AEAVPxBounds3@2@AEAUPolygonalData@12@@Z 000000018009c7e0 f   GuConvexHelper.obj
 0001:0009ba70       ?getScaledConvex@Gu@physx@@YAXAEAPEAV?$PxVec3T@M@2@AEAPEAEPEAV32@PEAE_NPEBV32@PEBEIAEBVFastVertex2ShapeScaling@Cm@2@@Z 000000018009ca70 f   GuConvexHelper.obj
 0001:0009bba0       ??0ConvexMesh@Gu@physx@@QEAA@PEAVMeshFactory@12@@Z 000000018009cba0 f   GuConvexMesh.obj
 0001:0009bc30       ??0ConvexMesh@Gu@physx@@QEAA@PEAVMeshFactory@12@AEAUConvexHullInitData@12@@Z 000000018009cc30 f   GuConvexMesh.obj
 0001:0009bd50       ??_EConvexMesh@Gu@physx@@UEAAPEAXI@Z 000000018009cd50 f i GuConvexMesh.obj
 0001:0009bd50       ??_GConvexMesh@Gu@physx@@UEAAPEAXI@Z 000000018009cd50 f i GuConvexMesh.obj
 0001:0009be50       ??_EPxBVH@physx@@MEAAPEAXI@Z 000000018009ce50 f i GuBVH.obj
 0001:0009be50       ??_EPxBase@physx@@MEAAPEAXI@Z 000000018009ce50 f i GuConvexMesh.obj
 0001:0009be50       ??_GPxBVH@physx@@MEAAPEAXI@Z 000000018009ce50 f i GuBVH.obj
 0001:0009be50       ??_GPxBase@physx@@MEAAPEAXI@Z 000000018009ce50 f i GuConvexMesh.obj
 0001:0009be80       ?acquireReference@ConvexMesh@Gu@physx@@UEAAXXZ 000000018009ce80 f   GuConvexMesh.obj
 0001:0009be80       ?acquireReference@HeightField@Gu@physx@@UEAAXXZ 000000018009ce80 f   GuHeightField.obj
 0001:0009be80       ?acquireReference@SoftBodyAuxData@Gu@physx@@UEAAXXZ 000000018009ce80 f   GuTetrahedronMesh.obj
 0001:0009be80       ?acquireReference@SoftBodyMesh@Gu@physx@@UEAAXXZ 000000018009ce80 f   GuTetrahedronMesh.obj
 0001:0009be80       ?acquireReference@TetrahedronMesh@Gu@physx@@UEAAXXZ 000000018009ce80 f   GuTetrahedronMesh.obj
 0001:0009be80       ?acquireReference@TriangleMesh@Gu@physx@@UEAAXXZ 000000018009ce80 f   GuTriangleMesh.obj
 0001:0009c350       ?createObject@ConvexMesh@Gu@physx@@SAPEAV123@AEAPEAEAEAVPxDeserializationContext@3@@Z 000000018009d350 f   GuConvexMesh.obj
 0001:0009c440       ?exportExtraData@ConvexMesh@Gu@physx@@UEAAXAEAVPxSerializationContext@3@@Z 000000018009d440 f   GuConvexMesh.obj
 0001:0009c510       ?getConcreteTypeName@PxConvexMesh@physx@@UEBAPEBDXZ 000000018009d510 f i GuConvexMesh.obj
 0001:0009c520       ?getIndexBuffer@ConvexMesh@Gu@physx@@UEBAPEBEXZ 000000018009d520 f i GuConvexMesh.obj
 0001:0009c560       ?getLocalBounds@ConvexMesh@Gu@physx@@UEBA?AVPxBounds3@3@XZ 000000018009d560 f   GuConvexMesh.obj
 0001:0009c5f0       ?getMassInformation@ConvexMesh@Gu@physx@@UEBAXAEAMAEAV?$PxMat33T@M@3@AEAV?$PxVec3T@M@3@@Z 000000018009d5f0 f   GuConvexMesh.obj
 0001:0009c660       ?getNbPolygons@ConvexMesh@Gu@physx@@UEBAIXZ 000000018009d660 f i GuConvexMesh.obj
 0001:0009c670       ?getNbVertices@ConvexMesh@Gu@physx@@UEBAIXZ 000000018009d670 f i GuConvexMesh.obj
 0001:0009c680       ?getPolygonData@ConvexMesh@Gu@physx@@UEBA_NIAEAUPxHullPolygon@3@@Z 000000018009d680 f   GuConvexMesh.obj
 0001:0009c6d0       ?getReferenceCount@ConvexMesh@Gu@physx@@UEBAIXZ 000000018009d6d0 f   GuConvexMesh.obj
 0001:0009c6d0       ?getReferenceCount@HeightField@Gu@physx@@UEBAIXZ 000000018009d6d0 f   GuHeightField.obj
 0001:0009c6d0       ?getReferenceCount@SoftBodyAuxData@Gu@physx@@UEBAIXZ 000000018009d6d0 f   GuTetrahedronMesh.obj
 0001:0009c6d0       ?getReferenceCount@SoftBodyMesh@Gu@physx@@UEBAIXZ 000000018009d6d0 f   GuTetrahedronMesh.obj
 0001:0009c6d0       ?getReferenceCount@TetrahedronMesh@Gu@physx@@UEBAIXZ 000000018009d6d0 f   GuTetrahedronMesh.obj
 0001:0009c6d0       ?getReferenceCount@TriangleMesh@Gu@physx@@UEBAIXZ 000000018009d6d0 f   GuTriangleMesh.obj
 0001:0009c6d0       ?length@DNameStatusNode@@UEBAHXZ 000000018009d6d0 f   libvcruntime:undname.obj
 0001:0009c6d0       ?raw_length@DNameStatusNode@@UEBAHXZ 000000018009d6d0 f   libvcruntime:undname.obj
 0001:0009c6e0       ?getSDF@ConvexMesh@Gu@physx@@UEBAPEBMXZ 000000018009d6e0 f   GuConvexMesh.obj
 0001:0009c6f0       ?getVertices@ConvexMesh@Gu@physx@@UEBAPEBV?$PxVec3T@M@3@XZ 000000018009d6f0 f i GuConvexMesh.obj
 0001:0009c710       ?isGpuCompatible@ConvexMesh@Gu@physx@@UEBA_NXZ 000000018009d710 f   GuConvexMesh.obj
 0001:0009c750       ?isKindOf@PxBase@physx@@MEBA_NPEBD@Z 000000018009d750 f i GuConvexMesh.obj
 0001:0009c780       ?isKindOf@PxConvexMesh@physx@@MEBA_NPEBD@Z 000000018009d780 f i GuConvexMesh.obj
 0001:0009c7f0       ?isReleasable@PxBase@physx@@UEBA_NXZ 000000018009d7f0 f i GuConvexMesh.obj
 0001:0009c800       ?load@ConvexMesh@Gu@physx@@QEAA_NAEAVPxInputStream@3@@Z 000000018009d800 f   GuConvexMesh.obj
 0001:0009cd60       ?onRefCountZero@ConvexMesh@Gu@physx@@UEAAXXZ 000000018009dd60 f   GuConvexMesh.obj
 0001:0009ce90       ?release@ConvexMesh@Gu@physx@@UEAAXXZ 000000018009de90 f   GuConvexMesh.obj
 0001:0009ce90       ?release@HeightField@Gu@physx@@UEAAXXZ 000000018009de90 f   GuHeightField.obj
 0001:0009ce90       ?release@SoftBodyAuxData@Gu@physx@@UEAAXXZ 000000018009de90 f   GuTetrahedronMesh.obj
 0001:0009ce90       ?release@SoftBodyMesh@Gu@physx@@UEAAXXZ 000000018009de90 f   GuTetrahedronMesh.obj
 0001:0009ce90       ?release@TetrahedronMesh@Gu@physx@@UEAAXXZ 000000018009de90 f   GuTetrahedronMesh.obj
 0001:0009ce90       ?release@TriangleMesh@Gu@physx@@UEAAXXZ 000000018009de90 f   GuTriangleMesh.obj
 0001:0009cec0       ??Dphysx@@YA?AV?$PxMat34T@M@0@AEBVPxMeshScale@0@AEBV10@@Z 000000018009dec0 f i GuConvexUtilsInternal.obj
 0001:0009d460       ?computeHullOBB@Gu@physx@@YAXAEAVBox@12@AEBVPxBounds3@2@MAEBV?$PxMat34T@M@2@2AEBVFastVertex2ShapeScaling@Cm@2@_N@Z 000000018009e460 f   GuConvexUtilsInternal.obj
 0001:0009d910       ?computeOBBAroundConvex@Gu@physx@@YAXAEAVBox@12@AEBVPxConvexMeshGeometry@2@PEBVPxConvexMesh@2@AEBV?$PxTransformT@M@2@@Z 000000018009e910 f   GuConvexUtilsInternal.obj
 0001:0009e180       ?computeVertexSpaceOBB@Gu@physx@@YAXAEAVBox@12@AEBV312@AEBV?$PxTransformT@M@2@AEBVPxMeshScale@2@@Z 000000018009f180 f   GuConvexUtilsInternal.obj
 0001:0009e4b0       ?transform@physx@@YA?AVBox@Gu@1@AEBV?$PxMat34T@M@1@AEBV231@@Z 000000018009f4b0 f i GuConvexUtilsInternal.obj
 0001:0009e700       ?localSearch@physx@@YAXAEAIAEBV?$PxVec3T@M@1@PEBV21@PEBUBigConvexRawData@Gu@1@@Z 000000018009f700 f   GuHillClimbing.obj
 0001:0009e830       ??0PCMPolygonalBox@Gu@physx@@QEAA@AEBV?$PxVec3T@M@2@@Z 000000018009f830 f   GuPCMShapeConvex.obj
 0001:0009e830       ??0PolygonalBox@Gu@physx@@QEAA@AEBV?$PxVec3T@M@2@@Z 000000018009f830 f   GuShapeConvex.obj
 0001:0009fcf0       ?getPolygonalData@PolygonalBox@Gu@physx@@QEBAXPEIAUPolygonalData@23@@Z 00000001800a0cf0 f   GuShapeConvex.obj
 0001:0009fd60       ?getPolygonalData_Convex@Gu@physx@@YAXPEIAUPolygonalData@12@PEIBUConvexHullData@12@AEBVFastVertex2ShapeScaling@Cm@2@@Z 00000001800a0d60 f   GuShapeConvex.obj
 0001:0009fec0       ?distancePointBoxSquared@Gu@physx@@YAMAEBV?$PxVec3T@M@2@00AEBV?$PxMat33T@M@2@PEAV32@@Z 00000001800a0ec0 f   GuDistancePointBox.obj
 0001:000a0010       ?closestPtPointTriangle@Gu@physx@@YA?AV?$PxVec3T@M@2@AEBV32@000AEAM1@Z 00000001800a1010 f   GuDistancePointTriangle.obj
 0001:000a0530       ?distancePointTriangleSquared@Gu@physx@@YA?AT__m128@@AEBT3@000AEAT3@11@Z 00000001800a1530 f   GuDistancePointTriangle.obj
 0001:000a1280       ?distanceSegmentBoxSquared@Gu@physx@@YAMAEBV?$PxVec3T@M@2@000AEBV?$PxMat33T@M@2@PEAMPEAV32@@Z 00000001800a2280 f   GuDistanceSegmentBox.obj
 0001:000a1b00       ?distanceSegmentSegmentSquared4@Gu@physx@@YA?AT__m128@@AEBT3@000000000AEAT3@1@Z 00000001800a2b00 f   GuDistanceSegmentSegment.obj
 0001:000a1e10       ?distanceSegmentSegmentSquared@Gu@physx@@YA?AT__m128@@AEBT3@000AEAT3@1@Z 00000001800a2e10 f   GuDistanceSegmentSegment.obj
 0001:000a1fd0       ?distanceSegmentSegmentSquared@Gu@physx@@YAMAEBV?$PxVec3T@M@2@000PEAM1@Z 00000001800a2fd0 f   GuDistanceSegmentSegment.obj
 0001:000a2260       ?distanceSegmentSegmentSquared@Gu@physx@@YAMAEBV?$PxVec3T@M@2@0M00MPEAM1@Z 00000001800a3260 f   GuDistanceSegmentSegment.obj
 0001:000a29a0       ?distanceSegmentTriangleSquared@Gu@physx@@YA?AT__m128@@AEBT3@0000AEAT3@1@Z 00000001800a39a0 f   GuDistanceSegmentTriangle.obj
 0001:000a30e0       ?distanceSegmentTriangleSquared@Gu@physx@@YAMAEBV?$PxVec3T@M@2@0000PEAM11@Z 00000001800a40e0 f   GuDistanceSegmentTriangle.obj
 0001:000a4750       ?PointOutsideOfPlane4@Gu@physx@@YA?AV?$PxVec4T@M@2@AEBV?$PxVec3T@M@2@0000@Z 00000001800a5750 f   GuDistancePointTetrahedron.obj
 0001:000a4bc0       ?closestPtPointTetrahedron@Gu@physx@@YA?AV?$PxVec3T@M@2@AEBV32@0000AEBV?$PxVec4T@M@2@@Z 00000001800a5bc0 f   GuDistancePointTetrahedron.obj
 0001:000a5cb0       ?PenetrationDepth@EPA@Gu@physx@@QEAA?AW4GjkStatus@23@AEBUGjkConvex@23@0PEIBT__m128@@1E_NT6@AEAUGjkOutput@23@@Z 00000001800a6cb0 f   GuEPA.obj
 0001:000a67d0       ?addFacet@EPA@Gu@physx@@QEAAPEAVFacet@23@IIIAEBT__m128@@@Z 00000001800a77d0 f   GuEPA.obj
 0001:000a6c00       ?epaPenetration@Gu@physx@@YA?AW4GjkStatus@12@AEBUGjkConvex@12@0PEIBE1E_NT__m128@@AEAUGjkOutput@12@@Z 00000001800a7c00 f   GuEPA.obj
 0001:000a6d70       ?epaPenetration@Gu@physx@@YA?AW4GjkStatus@12@AEBUGjkConvex@12@0PEIBT__m128@@1E_NT5@AEAUGjkOutput@12@@Z 00000001800a7d70 f   GuEPA.obj
 0001:000a6e20       ?silhouette@Facet@Gu@physx@@QEAAXAEBT__m128@@PEIBT4@1AEAVEdgeBuffer@23@AEAV?$InlineDeferredIDPool@$0EA@@Cm@3@@Z 00000001800a7e20 f   GuEPA.obj
 0001:000a6ff0       ?closestPtPointTetrahedron@Gu@physx@@YA?AT__m128@@PEIAT3@00AEAI@Z 00000001800a7ff0 f   GuGJKSimplex.obj
 0001:000a7760       ?closestPtPointTetrahedron@Gu@physx@@YA?AT__m128@@PEIAT3@00PEIAH1AEAI@Z 00000001800a8760 f   GuGJKSimplex.obj
 0001:000a91e0       ??$gjk@UGjkConvex@Gu@physx@@U123@@Gu@physx@@YA?AW4GjkStatus@01@AEBUGjkConvex@01@0AEBT__m128@@1AEAT4@222@Z 00000001800aa1e0 f i GuGJKTest.obj
 0001:000a9e00       ??$gjkPenetration@UGjkConvex@Gu@physx@@U123@@Gu@physx@@YA?AW4GjkStatus@01@AEBUGjkConvex@01@0AEBT__m128@@1_NPEIAE3AEAEAEAUGjkOutput@01@@Z 00000001800aae00 f i GuGJKTest.obj
 0001:000a9e70       ??$gjkPenetration@UGjkConvex@Gu@physx@@U123@@Gu@physx@@YA?AW4GjkStatus@01@AEBUGjkConvex@01@0AEBT__m128@@1_NPEIAE3PEIAT4@4AEAEAEAUGjkOutput@01@@Z 00000001800aae70 f i GuGJKTest.obj
 0001:000ab2d0       ?testEpaPenetration@Gu@physx@@YA?AW4GjkStatus@12@AEBUGjkConvex@12@0PEBE1EAEAUGjkOutput@12@@Z 00000001800ac2d0 f   GuGJKTest.obj
 0001:000ab320       ?testGjk@Gu@physx@@YA?AW4GjkStatus@12@AEBUGjkConvex@12@0AEBT__m128@@1AEAT5@222@Z 00000001800ac320 f   GuGJKTest.obj
 0001:000ab330       ?testGjkPenetration@Gu@physx@@YA?AW4GjkStatus@12@AEBUGjkConvex@12@0AEBT__m128@@1PEAE2AEAEAEAUGjkOutput@12@@Z 00000001800ac330 f   GuGJKTest.obj
 0001:000ab380       ??0HeightField@Gu@physx@@QEAA@PEAVMeshFactory@12@@Z 00000001800ac380 f   GuHeightField.obj
 0001:000ab3d0       ??0HeightField@Gu@physx@@QEAA@PEAVMeshFactory@12@AEAUHeightFieldData@12@@Z 00000001800ac3d0 f   GuHeightField.obj
 0001:000ab480       ??1HeightField@Gu@physx@@UEAA@XZ 00000001800ac480 f   GuHeightField.obj
 0001:000ab500       ??_EHeightField@Gu@physx@@UEAAPEAXI@Z 00000001800ac500 f i GuHeightField.obj
 0001:000ab500       ??_GHeightField@Gu@physx@@UEAAPEAXI@Z 00000001800ac500 f i GuHeightField.obj
 0001:000ab5a0       ?computeCellCoordinates@HeightField@Gu@physx@@QEBAIMMAEAM0@Z 00000001800ac5a0 f   GuHeightField.obj
 0001:000ab6c0       ?createObject@HeightField@Gu@physx@@SAPEAV123@AEAPEAEAEAVPxDeserializationContext@3@@Z 00000001800ac6c0 f   GuHeightField.obj
 0001:000ab710       ?exportExtraData@HeightField@Gu@physx@@UEAAXAEAVPxSerializationContext@3@@Z 00000001800ac710 f   GuHeightField.obj
 0001:000ab760       ?getConcreteTypeName@PxHeightField@physx@@UEBAPEBDXZ 00000001800ac760 f i GuHeightField.obj
 0001:000ab770       ?getConvexEdgeThreshold@HeightField@Gu@physx@@UEBAMXZ 00000001800ac770 f i GuHeightField.obj
 0001:000ab780       ?getFlags@HeightField@Gu@physx@@UEBA?AV?$PxFlags@W4Enum@PxHeightFieldFlag@physx@@G@3@XZ 00000001800ac780 f i GuHeightField.obj
 0001:000ab790       ?getFormat@HeightField@Gu@physx@@UEBA?AW4Enum@PxHeightFieldFormat@3@XZ 00000001800ac790 f i GuHeightField.obj
 0001:000ab7a0       ?getHeight@HeightField@Gu@physx@@UEBAMMM@Z 00000001800ac7a0 f i GuHeightField.obj
 0001:000ab8c0       ?getNbColumns@HeightField@Gu@physx@@UEBAIXZ 00000001800ac8c0 f i GuHeightField.obj
 0001:000ab8d0       ?getNbBounds@BVH@Gu@physx@@UEBAIXZ 00000001800ac8d0 f i GuBVH.obj
 0001:000ab8d0       ?getNbPrimitives@SourceMesh@Gu@physx@@UEBAIXZ 00000001800ac8d0 f i GuBV4.obj
 0001:000ab8d0       ?getNbPrimitives@TetrahedronSourceMesh@Gu@physx@@UEBAIXZ 00000001800ac8d0 f i GuBV4.obj
 0001:000ab8d0       ?getNbRows@HeightField@Gu@physx@@UEBAIXZ 00000001800ac8d0 f i GuHeightField.obj
 0001:000ab8e0       ?getSample@HeightField@Gu@physx@@UEBAAEBUPxHeightFieldSample@3@II@Z 00000001800ac8e0 f i GuHeightField.obj
 0001:000ab8f0       ?getSampleStride@HeightField@Gu@physx@@UEBAIXZ 00000001800ac8f0 f i GuHeightField.obj
 0001:000ab900       ?getTimestamp@HeightField@Gu@physx@@UEBAIXZ 00000001800ac900 f i GuHeightField.obj
 0001:000ab910       ?getTriangleMaterialIndex@HeightField@Gu@physx@@UEBAGI@Z 00000001800ac910 f i GuHeightField.obj
 0001:000ab940       ?getTriangleNormal@HeightField@Gu@physx@@UEBA?AV?$PxVec3T@M@3@I@Z 00000001800ac940 f i GuHeightField.obj
 0001:000ab960       ?getTriangleNormalInternal@HeightField@Gu@physx@@QEBA?AV?$PxVec3T@M@3@I@Z 00000001800ac960 f i GuHeightField.obj
 0001:000abc90       ?isCollisionVertexPreca@HeightField@Gu@physx@@QEBA_NIIIG@Z 00000001800acc90 f   GuHeightField.obj
 0001:000abd30       ?isConvexVertex@HeightField@Gu@physx@@QEBA_NIII@Z 00000001800acd30 f i GuHeightField.obj
 0001:000abe00       ?isKindOf@PxHeightField@physx@@MEBA_NPEBD@Z 00000001800ace00 f i GuHeightField.obj
 0001:000abe70       ?isSolidVertex@HeightField@Gu@physx@@QEBA_NIIIGAEA_N@Z 00000001800ace70 f   GuHeightField.obj
 0001:000ac100       ?load@HeightField@Gu@physx@@QEAA_NAEAVPxInputStream@3@@Z 00000001800ad100 f   GuHeightField.obj
 0001:000ac460       ?loadFromDesc@HeightField@Gu@physx@@QEAA_NAEBVPxHeightFieldDesc@3@@Z 00000001800ad460 f   GuHeightField.obj
 0001:000ac660       ?modifySamples@HeightField@Gu@physx@@UEAA_NHHAEBVPxHeightFieldDesc@3@_N@Z 00000001800ad660 f   GuHeightField.obj
 0001:000ac9d0       ?onRefCountZero@HeightField@Gu@physx@@UEAAXXZ 00000001800ad9d0 f   GuHeightField.obj
 0001:000acaa0       ?parseTrianglesForCollisionVertices@HeightField@Gu@physx@@QEAAXG@Z 00000001800adaa0 f   GuHeightField.obj
 0001:000acfa0       ?releaseMemory@HeightField@Gu@physx@@QEAAXXZ 00000001800adfa0 f   GuHeightField.obj
 0001:000acff0       ?resizeAndClear@?$PxBitMapBase@VPxAllocator@physx@@@physx@@QEAAXI@Z 00000001800adff0 f i GuHeightField.obj
 0001:000ad0a0       ?save@HeightField@Gu@physx@@QEAA_NAEAVPxOutputStream@3@_N@Z 00000001800ae0a0 f   GuHeightField.obj
 0001:000ad2e0       ?saveCells@HeightField@Gu@physx@@UEBAIPEAXI@Z 00000001800ae2e0 f   GuHeightField.obj
 0001:000ad320       ?computeLocalBounds@HeightFieldUtil@Gu@physx@@QEBAXAEAVPxBounds3@3@@Z 00000001800ae320 f   GuHeightFieldUtil.obj
 0001:000ad7f0       ?getTriangle@HeightFieldUtil@Gu@physx@@QEBAIAEBV?$PxTransformT@M@3@AEAVPxTriangle@3@PEAI2I_N3@Z 00000001800ae7f0 f   GuHeightFieldUtil.obj
 0001:000ae2f0       ?getTriangleAdjacencyIndices@HeightField@Gu@physx@@QEBAXIIIIAEAI00@Z 00000001800af2f0 f i GuHeightFieldUtil.obj
 0001:000ae4a0       ?getTriangleVertexIndices@HeightField@Gu@physx@@QEBAXIAEAI00@Z 00000001800af4a0 f i GuHeightFieldUtil.obj
 0001:000ae560       ?overlapAABBTriangles@HeightFieldUtil@Gu@physx@@QEBAXAEBVPxBounds3@3@AEAVOverlapReport@23@I@Z 00000001800af560 f   GuHeightFieldUtil.obj
 0001:000ae9c0       ??$gjk@U?$RelativeConvex@VTriangleV@Gu@physx@@@Gu@physx@@U?$LocalConvex@VConvexHullV@Gu@physx@@@23@@Gu@physx@@YA?AW4GjkStatus@01@AEBU?$RelativeConvex@VTriangleV@Gu@physx@@@01@AEBU?$LocalConvex@VConvexHullV@Gu@physx@@@01@AEBT__m128@@2AEAT5@333@Z 00000001800af9c0 f i GuOverlapTestsHF.obj
 0001:000af900       ?GeomOverlapCallback_BoxHeightfield@@YA_NAEBVPxGeometry@physx@@AEBV?$PxTransformT@M@2@01PEAUTriggerCache@Gu@2@PEAUPxQueryThreadContext@2@@Z 00000001800b0900 f   GuOverlapTestsHF.obj
 0001:000afe60       ?GeomOverlapCallback_CapsuleHeightfield@@YA_NAEBVPxGeometry@physx@@AEBV?$PxTransformT@M@2@01PEAUTriggerCache@Gu@2@PEAUPxQueryThreadContext@2@@Z 00000001800b0e60 f   GuOverlapTestsHF.obj
 0001:000b0460       ?GeomOverlapCallback_ConvexHeightfield@@YA_NAEBVPxGeometry@physx@@AEBV?$PxTransformT@M@2@01PEAUTriggerCache@Gu@2@PEAUPxQueryThreadContext@2@@Z 00000001800b1460 f   GuOverlapTestsHF.obj
 0001:000b0ea0       ?GeomOverlapCallback_SphereHeightfield@@YA_NAEBVPxGeometry@physx@@AEBV?$PxTransformT@M@2@01PEAUTriggerCache@Gu@2@PEAUPxQueryThreadContext@2@@Z 00000001800b1ea0 f   GuOverlapTestsHF.obj
 0001:000b1a60       ??$gjkRaycast@U?$LocalConvex@VTriangleV@Gu@physx@@@Gu@physx@@U?$LocalConvex@VConvexHullV@Gu@physx@@@23@@Gu@physx@@YA_NAEBU?$LocalConvex@VTriangleV@Gu@physx@@@01@AEBU?$LocalConvex@VConvexHullV@Gu@physx@@@01@AEBT__m128@@222AEAT4@33M@Z 00000001800b2a60 f i GuSweepsHF.obj
 0001:000b2860       ??$traceSegment@VBoxTraceSegmentReport@@$0A@$00@HeightFieldTraceUtil@Gu@physx@@QEBAXAEBV?$PxVec3T@M@2@0MPEAVBoxTraceSegmentReport@@AEBVPxBounds3@2@_NPEBV32@@Z 00000001800b3860 f i GuSweepsHF.obj
 0001:000b2860       ??$traceSegment@VCapsuleTraceSegmentReport@@$0A@$00@HeightFieldTraceUtil@Gu@physx@@QEBAXAEBV?$PxVec3T@M@2@0MPEAVCapsuleTraceSegmentReport@@AEBVPxBounds3@2@_NPEBV32@@Z 00000001800b3860 f i GuSweepsHF.obj
 0001:000b2860       ??$traceSegment@VConvexTraceSegmentReport@@$0A@$00@HeightFieldTraceUtil@Gu@physx@@QEBAXAEBV?$PxVec3T@M@2@0MPEAVConvexTraceSegmentReport@@AEBVPxBounds3@2@_NPEBV32@@Z 00000001800b3860 f i GuSweepsHF.obj
 0001:000b3080       ??0ConvexTraceSegmentReport@@QEAA@AEBVHeightFieldUtil@Gu@physx@@AEBUConvexHullData@23@AEBVPxMeshScale@3@AEBV?$PxTransformT@M@3@3AEBV?$PxVec3T@M@3@MV?$PxFlags@W4Enum@PxHitFlag@physx@@G@3@M@Z 00000001800b4080 f i GuSweepsHF.obj
 0001:000b39f0       ??_EBoxTraceSegmentReport@@UEAAPEAXI@Z 00000001800b49f0 f i GuSweepsHF.obj
 0001:000b39f0       ??_GBoxTraceSegmentReport@@UEAAPEAXI@Z 00000001800b49f0 f i GuSweepsHF.obj
 0001:000b3a20       ??_ECapsuleTraceSegmentReport@@UEAAPEAXI@Z 00000001800b4a20 f i GuSweepsHF.obj
 0001:000b3a20       ??_GCapsuleTraceSegmentReport@@UEAAPEAXI@Z 00000001800b4a20 f i GuSweepsHF.obj
 0001:000b3a50       ??_EConvexTraceSegmentReport@@UEAAPEAXI@Z 00000001800b4a50 f i GuSweepsHF.obj
 0001:000b3a50       ??_GConvexTraceSegmentReport@@UEAAPEAXI@Z 00000001800b4a50 f i GuSweepsHF.obj
 0001:000b3a80       ??_EHeightFieldTraceSegmentReport@@UEAAPEAXI@Z 00000001800b4a80 f i GuSweepsHF.obj
 0001:000b3a80       ??_GHeightFieldTraceSegmentReport@@UEAAPEAXI@Z 00000001800b4a80 f i GuSweepsHF.obj
 0001:000b3ab0       ?finalizeHit@ConvexTraceSegmentReport@@QEAA_NAEAUPxGeomSweepHit@physx@@AEBVPxHeightFieldGeometry@3@AEBV?$PxTransformT@M@3@AEBVPxConvexMeshGeometry@3@2AEBV?$PxVec3T@M@3@M@Z 00000001800b4ab0 f i GuSweepsHF.obj
 0001:000b3ce0       ?onEvent@BoxTraceSegmentReport@@UEAA_NIPEBI@Z 00000001800b4ce0 f i GuSweepsHF.obj
 0001:000b4130       ?onEvent@CapsuleTraceSegmentReport@@UEAA_NIPEBI@Z 00000001800b5130 f i GuSweepsHF.obj
 0001:000b4360       ?onEvent@ConvexTraceSegmentReport@@UEAA_NIPEBI@Z 00000001800b5360 f i GuSweepsHF.obj
 0001:000b4920       ?prepare@?$OverlapTraceSegment@VBoxTraceSegmentReport@@@HeightFieldTraceUtil@Gu@physx@@QEAAXAEBV?$PxVec3T@M@4@00AEAM1@Z 00000001800b5920 f i GuSweepsHF.obj
 0001:000b4920       ?prepare@?$OverlapTraceSegment@VCapsuleTraceSegmentReport@@@HeightFieldTraceUtil@Gu@physx@@QEAAXAEBV?$PxVec3T@M@4@00AEAM1@Z 00000001800b5920 f i GuSweepsHF.obj
 0001:000b4920       ?prepare@?$OverlapTraceSegment@VConvexTraceSegmentReport@@@HeightFieldTraceUtil@Gu@physx@@QEAAXAEBV?$PxVec3T@M@4@00AEAM1@Z 00000001800b5920 f i GuSweepsHF.obj
 0001:000b4be0       ?sweepBox_HeightFieldGeom@@YA_NAEBVPxGeometry@physx@@AEBV?$PxTransformT@M@2@AEBVPxBoxGeometry@2@1AEBVBox@Gu@2@AEBV?$PxVec3T@M@2@MAEAUPxGeomSweepHit@2@V?$PxFlags@W4Enum@PxHitFlag@physx@@G@2@MPEAUPxQueryThreadContext@2@@Z 00000001800b5be0 f   GuSweepsHF.obj
 0001:000b5a30       ?sweepCapsule_HeightFieldGeom@@YA_NAEBVPxGeometry@physx@@AEBV?$PxTransformT@M@2@AEBVPxCapsuleGeometry@2@1AEBVCapsule@Gu@2@AEBV?$PxVec3T@M@2@MAEAUPxGeomSweepHit@2@V?$PxFlags@W4Enum@PxHitFlag@physx@@G@2@MPEAUPxQueryThreadContext@2@@Z 00000001800b6a30 f   GuSweepsHF.obj
 0001:000b6380       ?sweepConvex_HeightFieldGeom@@YA_NAEBVPxGeometry@physx@@AEBV?$PxTransformT@M@2@AEBVPxConvexMeshGeometry@2@1AEBV?$PxVec3T@M@2@MAEAUPxGeomSweepHit@2@V?$PxFlags@W4Enum@PxHitFlag@physx@@G@2@MPEAUPxQueryThreadContext@2@@Z 00000001800b7380 f   GuSweepsHF.obj
 0001:000b6d50       ?testVertexIndex@?$OverlapTraceSegment@VBoxTraceSegmentReport@@@HeightFieldTraceUtil@Gu@physx@@QEAA_NI@Z 00000001800b7d50 f i GuSweepsHF.obj
 0001:000b6d50       ?testVertexIndex@?$OverlapTraceSegment@VCapsuleTraceSegmentReport@@@HeightFieldTraceUtil@Gu@physx@@QEAA_NI@Z 00000001800b7d50 f i GuSweepsHF.obj
 0001:000b6d50       ?testVertexIndex@?$OverlapTraceSegment@VConvexTraceSegmentReport@@@HeightFieldTraceUtil@Gu@physx@@QEAA_NI@Z 00000001800b7d50 f i GuSweepsHF.obj
 0001:000b6eb0       ?transformFast@PxBounds3@physx@@SA?AV12@AEBV?$PxTransformT@M@2@AEBV12@@Z 00000001800b7eb0 f i GuSweepsHF.obj
 0001:000b7290       ?visitCells@?$OverlapTraceSegment@VBoxTraceSegmentReport@@@HeightFieldTraceUtil@Gu@physx@@QEAA_NAEBUOverlapRectangle@1234@@Z 00000001800b8290 f i GuSweepsHF.obj
 0001:000b7290       ?visitCells@?$OverlapTraceSegment@VCapsuleTraceSegmentReport@@@HeightFieldTraceUtil@Gu@physx@@QEAA_NAEBUOverlapRectangle@1234@@Z 00000001800b8290 f i GuSweepsHF.obj
 0001:000b7290       ?visitCells@?$OverlapTraceSegment@VConvexTraceSegmentReport@@@HeightFieldTraceUtil@Gu@physx@@QEAA_NAEBUOverlapRectangle@1234@@Z 00000001800b8290 f i GuSweepsHF.obj
 0001:000b7480       ?intersectOBBOBB@Gu@physx@@YA_NAEBV?$PxVec3T@M@2@0AEBV?$PxMat33T@M@2@001_N@Z 00000001800b8480 f   GuIntersectionBoxBox.obj
 0001:000b7ad0       ?intersectCapsuleTriangle@Gu@physx@@YA_NAEBV?$PxVec3T@M@2@000AEBVCapsule@12@AEBUCapsuleTriangleOverlapData@12@@Z 00000001800b8ad0 f   GuIntersectionCapsuleTriangle.obj
 0001:000b86c0       ?intersectEdgeEdge@Gu@physx@@YA_NAEBV?$PxVec3T@M@2@0000AEAMAEAV32@@Z 00000001800b96c0 f   GuIntersectionEdgeEdge.obj
 0001:000b89e0       ?intersectRayAABB2@Gu@physx@@YA_NAEBT__m128@@0000AEAT3@1@Z 00000001800b99e0 f   GuIntersectionRayBox.obj
 0001:000b8aa0       ?intersectRayAABB2@Gu@physx@@YA_NAEBV?$PxVec3T@M@2@000MAEAM1@Z 00000001800b9aa0 f   GuIntersectionRayBox.obj
 0001:000b8c50       ?intersectRayAABB@Gu@physx@@YAHAEBV?$PxVec3T@M@2@000AEAM1@Z 00000001800b9c50 f   GuIntersectionRayBox.obj
 0001:000b8d60       ?rayAABBIntersect2@Gu@physx@@YAIAEBV?$PxVec3T@M@2@000AEAV32@AEAM@Z 00000001800b9d60 f   GuIntersectionRayBox.obj
 0001:000b8f60       ?intersectRayCapsuleInternal@Gu@physx@@YAIAEBV?$PxVec3T@M@2@000MQEAM@Z 00000001800b9f60 f   GuIntersectionRayCapsule.obj
 0001:000b9420       ?intersectRaySphere@Gu@physx@@YA_NAEBV?$PxVec3T@M@2@0M0MAEAMPEAV32@@Z 00000001800ba420 f   GuIntersectionRaySphere.obj
 0001:000b9510       ?intersectRaySphereBasic@Gu@physx@@YA_NAEBV?$PxVec3T@M@2@0M0MAEAMPEAV32@@Z 00000001800ba510 f   GuIntersectionRaySphere.obj
 0001:000b9670       ?intersectSphereBox@Gu@physx@@YA_NAEBVSphere@12@AEBVBox@12@@Z 00000001800ba670 f   GuIntersectionSphereBox.obj
 0001:000b98a0       ?intersectTetrahedronBox@Gu@physx@@YA_NAEBV?$PxVec3T@M@2@000AEBVPxBounds3@2@@Z 00000001800ba8a0 f   GuIntersectionTetrahedronBox.obj
 0001:000b9c70       ?intersectTriangleBox@Gu@physx@@YAHAEBVBoxPadded@12@AEBV?$PxVec3T@M@2@11@Z 00000001800bac70 f   GuIntersectionTriangleBox.obj
 0001:000ba240       ?intersectTriangleBoxBV4@@YAHAEBV?$PxVec3T@M@physx@@00AEBV?$PxMat33T@M@2@00@Z 00000001800bb240 f   GuIntersectionTriangleBox.obj
 0001:000ba680       ?intersectTriangleBox_ReferenceCode@Gu@physx@@YAHAEBV?$PxVec3T@M@2@0000@Z 00000001800bb680 f   GuIntersectionTriangleBox.obj
 0001:000bae50       ?intersectTriangleBox_Unsafe@Gu@physx@@YAHAEBV?$PxVec3T@M@2@0000@Z 00000001800bbe50 f   GuIntersectionTriangleBox.obj
 0001:000bb500       ?trianglesIntersect@Gu@physx@@YA_NAEBV?$PxVec3T@M@2@00000PEAVSegment@12@@Z 00000001800bc500 f   GuIntersectionTriangleTriangle.obj
 0001:000bbaf0       ??0BV4Tree@Gu@physx@@QEAA@W4PxEMPTY@2@@Z 00000001800bcaf0 f   GuBV4.obj
 0001:000bbb00       ??0BV4Tree@Gu@physx@@QEAA@XZ 00000001800bcb00 f   GuBV4.obj
 0001:000bbb30       ??0SourceMesh@Gu@physx@@QEAA@XZ 00000001800bcb30 f   GuBV4.obj
 0001:000bbb60       ??0TetrahedronSourceMesh@Gu@physx@@QEAA@XZ 00000001800bcb60 f   GuBV4.obj
 0001:000bbb90       ??1BV4Tree@Gu@physx@@QEAA@XZ 00000001800bcb90 f   GuBV4.obj
 0001:000bbbf0       ??1SourceMesh@Gu@physx@@UEAA@XZ 00000001800bcbf0 f   GuBV4.obj
 0001:000bbbf0       ??1TetrahedronSourceMesh@Gu@physx@@UEAA@XZ 00000001800bcbf0 f   GuBV4.obj
 0001:000bbc40       ??4BV4Tree@Gu@physx@@QEAAXAEAV012@@Z 00000001800bcc40 f   GuBV4.obj
 0001:000bbcd0       ??4SourceMesh@Gu@physx@@QEAAXAEAV012@@Z 00000001800bccd0 f   GuBV4.obj
 0001:000bbd20       ??_ESourceMesh@Gu@physx@@UEAAPEAXI@Z 00000001800bcd20 f i GuBV4.obj
 0001:000bbd20       ??_ETetrahedronSourceMesh@Gu@physx@@UEAAPEAXI@Z 00000001800bcd20 f i GuBV4.obj
 0001:000bbd20       ??_GSourceMesh@Gu@physx@@UEAAPEAXI@Z 00000001800bcd20 f i GuBV4.obj
 0001:000bbd20       ??_GTetrahedronSourceMesh@Gu@physx@@UEAAPEAXI@Z 00000001800bcd20 f i GuBV4.obj
 0001:000bbdc0       ??_ESourceMeshBase@Gu@physx@@UEAAPEAXI@Z 00000001800bcdc0 f i GuBV4.obj
 0001:000bbdc0       ??_GSourceMeshBase@Gu@physx@@UEAAPEAXI@Z 00000001800bcdc0 f i GuBV4.obj
 0001:000bbe60       ?exportExtraData@BV4Tree@Gu@physx@@QEAAXAEAVPxSerializationContext@3@@Z 00000001800bce60 f   GuBV4.obj
 0001:000bbec0       ?getPrimitiveBox@SourceMesh@Gu@physx@@UEAAXIAEAT__m128@@0@Z 00000001800bcec0 f   GuBV4.obj
 0001:000bbf60       ?getPrimitiveBox@TetrahedronSourceMesh@Gu@physx@@UEAAXIAEAT__m128@@0@Z 00000001800bcf60 f   GuBV4.obj
 0001:000bc020       ?importExtraData@BV4Tree@Gu@physx@@QEAAXAEAVPxDeserializationContext@3@@Z 00000001800bd020 f   GuBV4.obj
 0001:000bc070       ?init@BV32Tree@Gu@physx@@QEAA_NPEAVSourceMeshBase@23@AEBVPxBounds3@3@@Z 00000001800bd070 f   GuBV32.obj
 0001:000bc070       ?init@BV4Tree@Gu@physx@@QEAA_NPEAVSourceMeshBase@23@AEBVPxBounds3@3@@Z 00000001800bd070 f   GuBV4.obj
 0001:000bc110       ?load@BV4Tree@Gu@physx@@QEAA_NAEAVPxInputStream@3@_N@Z 00000001800bd110 f   GuBV4.obj
 0001:000bc350       ?refit@BV4Tree@Gu@physx@@QEAA_NAEAVPxBounds3@3@M@Z 00000001800bd350 f   GuBV4.obj
 0001:000bc9c0       ?refit@SourceMesh@Gu@physx@@UEAAXIAEAVPxBounds3@3@@Z 00000001800bd9c0 f   GuBV4.obj
 0001:000bcb60       ?refit@TetrahedronSourceMesh@Gu@physx@@UEAAXIAEAVPxBounds3@3@@Z 00000001800bdb60 f   GuBV4.obj
 0001:000bcd80       ?remapTopology@SourceMesh@Gu@physx@@UEAAXPEBI@Z 00000001800bdd80 f   GuBV4.obj
 0001:000bd010       ?remapTopology@TetrahedronSourceMesh@Gu@physx@@UEAAXPEBI@Z 00000001800be010 f   GuBV4.obj
 0001:000bd2b0       ??0BV4_AABBTree@Gu@physx@@QEAA@XZ 00000001800be2b0 f   GuBV4Build.obj
 0001:000bd2c0       ??0BVData@@QEAA@XZ         00000001800be2c0 f   GuBV4Build.obj
 0001:000bd2f0       ??0BuildStats@Gu@physx@@QEAA@XZ 00000001800be2f0 f i GuBV4Build.obj
 0001:000bd300       ??1BV4_AABBTree@Gu@physx@@QEAA@XZ 00000001800be300 f   GuBV4Build.obj
 0001:000bd310       ??4BuildStats@Gu@physx@@QEAAAEAU012@$$QEAU012@@Z 00000001800be310 f i GuBV4Build.obj
 0001:000bd320       ??4BuildStats@Gu@physx@@QEAAAEAU012@AEBU012@@Z 00000001800be320 f i GuBV4Build.obj
 0001:000bd330       ?BuildBV4Ex@Gu@physx@@YA_NAEAVBV4Tree@12@AEAVSourceMeshBase@12@MI_NW4BV4_BuildStrategy@12@@Z 00000001800be330 f   GuBV4Build.obj
 0001:000be290       ?allocateNode@BV4BuildParams@@QEAAPEAUBV4Node@@XZ 00000001800bf290 f   GuBV4Build.obj
 0001:000be710       ?buildFromMesh@BV4_AABBTree@Gu@physx@@QEAA_NAEAVSourceMeshBase@23@IW4BV4_BuildStrategy@23@@Z 00000001800bf710 f   GuBV4Build.obj
 0001:000bf8c0       ?increaseCount@BuildStats@Gu@physx@@QEAAXI@Z 00000001800c08c0 f i GuBV4Build.obj
 0001:000c0320       ?release@BV4_AABBTree@Gu@physx@@QEAAXXZ 00000001800c1320 f   GuBV4Build.obj
 0001:000c03c0       ?releaseNodes@BV4BuildParams@@QEAAXXZ 00000001800c13c0 f   GuBV4Build.obj
 0001:000c0430       ?reset@BuildStats@Gu@physx@@QEAAXXZ 00000001800c1430 f i GuBV4Build.obj
 0001:000c0440       ?setCount@BuildStats@Gu@physx@@QEAAXI@Z 00000001800c1440 f i GuBV4Build.obj
 0001:000c0ab0       ?walk@BV4_AABBTree@Gu@physx@@QEBAIP6A_NPEBVAABBTreeNode@23@IPEAX@Z1@Z 00000001800c1ab0 f   GuBV4Build.obj
 0001:000c0b70       ?walkDistance@BV4_AABBTree@Gu@physx@@QEBAIP6A_NPEBVAABBTreeNode@23@IPEAX@ZP6A_N01@Z1@Z 00000001800c1b70 f   GuBV4Build.obj
 0001:000c4b90       ?GenericSweep_AABB_CB@@YAXAEBVBox@Gu@physx@@AEBV?$PxVec3T@M@3@MAEBVBV4Tree@23@P6A_NPEAX111IAEAM@Z3I@Z 00000001800c5b90 f   GuBV4_AABBSweep.obj
 0001:000c4cf0       ?Sweep_AABB_BV4@@YAHAEBVBox@Gu@physx@@AEBV?$PxVec3T@M@3@MAEBVBV4Tree@23@PEIAVSweepHit@23@I@Z 00000001800c5cf0 f   GuBV4_AABBSweep.obj
 0001:000cda30       ?BV4_OverlapBoxAll@@YAIAEBVBox@Gu@physx@@AEBVBV4Tree@23@PEIBV?$PxMat44T@M@3@PEAIIAEA_N@Z 00000001800cea30 f   GuBV4_BoxOverlap.obj
 0001:000ce240       ?BV4_OverlapBoxAny@@YAHAEBVBox@Gu@physx@@AEBVBV4Tree@23@PEIBV?$PxMat44T@M@3@@Z 00000001800cf240 f   GuBV4_BoxOverlap.obj
 0001:000cea40       ?BV4_OverlapBoxCB@@YAXAEBVBox@Gu@physx@@AEBVBV4Tree@23@P6A_NPEAXAEBV?$PxVec3T@M@3@333IPEBI@Z2@Z 00000001800cfa40 f   GuBV4_BoxOverlap.obj
 0001:000cf100       ?BV4_OverlapBoxCB@@YAXAEBVBox@Gu@physx@@AEBVBV4Tree@23@P6A_NPEAXAEBV?$PxVec3T@M@3@33IPEBI@Z2@Z 00000001800d0100 f   GuBV4_BoxOverlap.obj
 0001:000cf5b0       ?BV4_OverlapCapsuleAll@@YAIAEBVCapsule@Gu@physx@@AEBVBV4Tree@23@PEIBV?$PxMat44T@M@3@PEAIIAEA_N@Z 00000001800d05b0 f   GuBV4_BoxOverlap.obj
 0001:000cfcd0       ?BV4_OverlapCapsuleAny@@YAHAEBVCapsule@Gu@physx@@AEBVBV4Tree@23@PEIBV?$PxMat44T@M@3@@Z 00000001800d0cd0 f   GuBV4_BoxOverlap.obj
 0001:000d2b80       ?BV4_CapsuleSweepSingle@@YAHAEBVCapsule@Gu@physx@@AEBV?$PxVec3T@M@3@MAEBVBV4Tree@23@PEIAVSweepHit@23@I@Z 00000001800d3b80 f   GuBV4_CapsuleSweep.obj
 0001:000d6c50       ?BV4_CapsuleSweepSingleAA@@YAHAEBVCapsule@Gu@physx@@AEBV?$PxVec3T@M@3@MAEBVBV4Tree@23@PEIAVSweepHit@23@I@Z 00000001800d7c50 f   GuBV4_CapsuleSweepAA.obj
 0001:000e6ad0       ?BV4_OverlapMeshVsMesh@@YA_NAEAV?$PxReportCallback@UPxGeomIndexPair@physx@@@physx@@AEBVBV4Tree@Gu@2@1PEBV?$PxMat44T@M@2@2AEBV?$PxTransformT@M@2@3AEBVPxMeshScale@2@4V?$PxFlags@W4Enum@PxMeshMeshQueryFlag@physx@@I@2@@Z 00000001800e7ad0 f   GuBV4_MeshMeshOverlap.obj
 0001:000e6cf0       ?BV4_OverlapMeshVsMesh@@YA_NAEAV?$PxReportCallback@UPxGeomIndexPair@physx@@@physx@@AEBVBV4Tree@Gu@2@1PEBV?$PxMat44T@M@2@2V?$PxFlags@W4Enum@PxMeshMeshQueryFlag@physx@@I@2@@Z 00000001800e7cf0 f   GuBV4_MeshMeshOverlap.obj
 0001:000ee250       ??D?$PxMat33T@M@physx@@QEBA?BV?$PxVec3T@M@1@AEBV21@@Z 00000001800ef250 f i GuBV4_OBBSweep.obj
 0001:000ee2e0       ?BV4_BoxSweepSingle@@YAHAEBVBox@Gu@physx@@AEBV?$PxVec3T@M@3@MAEBVBV4Tree@23@PEIBV?$PxMat44T@M@3@PEIAVSweepHit@23@I@Z 00000001800ef2e0 f   GuBV4_OBBSweep.obj
 0001:000eea10       ?BV4_GenericSweepCB@@YAXAEBVBox@Gu@physx@@AEBV?$PxVec3T@M@3@MAEBVBV4Tree@23@P6A_NPEAX111IAEAM@Z3_N@Z 00000001800efa10 f   GuBV4_OBBSweep.obj
 0001:000eec40       ?Sweep_OBB_BV4@@YAHAEBVBox@Gu@physx@@AEBV?$PxVec3T@M@3@MAEBVBV4Tree@23@PEIAVSweepHit@23@I@Z 00000001800efc40 f   GuBV4_OBBSweep.obj
 0001:000f1780       ?BV4_RaycastCB@@YAXAEBV?$PxVec3T@M@physx@@0AEBVBV4Tree@Gu@2@PEIBV?$PxMat44T@M@2@MMIP6A?AW4HitCode@42@PEAX000IMMM@Z3@Z 00000001800f2780 f   GuBV4_Raycast.obj
 0001:000f1bc0       ?BV4_RaycastSingle@@YAHAEBV?$PxVec3T@M@physx@@0AEBVBV4Tree@Gu@2@PEIBV?$PxMat44T@M@2@PEIAUPxGeomRaycastHit@2@MMIV?$PxFlags@W4Enum@PxHitFlag@physx@@G@2@@Z 00000001800f2bc0 f   GuBV4_Raycast.obj
 0001:000f40f0       ?BV4_OverlapSphereAll@@YAIAEBVSphere@Gu@physx@@AEBVBV4Tree@23@PEIBV?$PxMat44T@M@3@PEAIIAEA_N@Z 00000001800f50f0 f   GuBV4_SphereOverlap.obj
 0001:000f4410       ?BV4_OverlapSphereAny@@YAHAEBVSphere@Gu@physx@@AEBVBV4Tree@23@PEIBV?$PxMat44T@M@3@@Z 00000001800f5410 f   GuBV4_SphereOverlap.obj
 0001:000f46f0       ?BV4_PointDistance@@YAXAEBV?$PxVec3T@M@physx@@AEBVBV4Tree@Gu@2@MAEAIAEAMAEAV12@@Z 00000001800f56f0 f   GuBV4_SphereOverlap.obj
 0001:000fb0c0       ?BV4_GenericSweepCB_Old@@YAXAEBV?$PxVec3T@M@physx@@00MAEBVBV4Tree@Gu@2@PEIBV?$PxMat44T@M@2@P6A_NPEAX000IAEAM@Z3@Z 00000001800fc0c0 f   GuBV4_SphereSweep.obj
 0001:000fb4d0       ?BV4_SphereSweepSingle@@YAHAEBVSphere@Gu@physx@@AEBV?$PxVec3T@M@3@MAEBVBV4Tree@23@PEIBV?$PxMat44T@M@3@PEIAVSweepHit@23@I@Z 00000001800fc4d0 f   GuBV4_SphereSweep.obj
 0001:000fc7e0       ?computeSweepData@physx@@YAMAEBVPxTriangleMeshGeometry@1@AEAV?$PxVec3T@M@1@11M@Z 00000001800fd7e0 f i GuMidphaseBV4.obj
 0001:000fdc20       ?intersectBoxVsMesh_BV4@Gu@physx@@YA_NAEBVBox@12@AEBVTriangleMesh@12@AEBV?$PxTransformT@M@2@AEBVPxMeshScale@2@PEAULimitedResults@12@@Z 00000001800fec20 f   GuMidphaseBV4.obj
 0001:000fe700       ?intersectCapsuleVsMesh_BV4@Gu@physx@@YA_NAEBVCapsule@12@AEBVTriangleMesh@12@AEBV?$PxTransformT@M@2@AEBVPxMeshScale@2@PEAULimitedResults@12@@Z 00000001800ff700 f   GuMidphaseBV4.obj
 0001:000fef10       ?intersectMeshVsMesh_BV4@Gu@physx@@YA_NAEAV?$PxReportCallback@UPxGeomIndexPair@physx@@@2@AEBVTriangleMesh@12@1AEBV?$PxTransformT@M@2@2AEBVPxMeshScale@2@3V?$PxFlags@W4Enum@PxMeshMeshQueryFlag@physx@@I@2@@Z 00000001800fff10 f   GuMidphaseBV4.obj
 0001:000ff810       ?intersectOBB_BV4@Gu@physx@@YAXPEBVTetrahedronMesh@12@AEBVBox@12@AEAU?$TetMeshHitCallback@UPxGeomRaycastHit@physx@@@12@@Z 0000000180100810 f   GuMidphaseBV4.obj
 0001:000ff830       ?intersectOBB_BV4@Gu@physx@@YAXPEBVTriangleMesh@12@AEBVBox@12@AEAU?$MeshHitCallback@UPxGeomRaycastHit@physx@@@12@_N3@Z 0000000180100830 f   GuMidphaseBV4.obj
 0001:000ff850       ?intersectSphereVsMesh_BV4@Gu@physx@@YA_NAEBVSphere@12@AEBVTriangleMesh@12@AEBV?$PxTransformT@M@2@AEBVPxMeshScale@2@PEAULimitedResults@12@@Z 0000000180100850 f   GuMidphaseBV4.obj
 0001:000fff50       ?pointMeshDistance_BV4@Gu@physx@@YAXPEBVTriangleMesh@12@AEBVPxTriangleMeshGeometry@2@AEBV?$PxTransformT@M@2@AEBV?$PxVec3T@M@2@MAEAIAEAMAEAV62@@Z 0000000180100f50 f   GuMidphaseBV4.obj
 0001:00100600       ?raycast_triangleMesh_BV4@Gu@physx@@YAIPEBVTriangleMesh@12@AEBVPxTriangleMeshGeometry@2@AEBV?$PxTransformT@M@2@AEBV?$PxVec3T@M@2@3MV?$PxFlags@W4Enum@PxHitFlag@physx@@G@2@IPEIAUPxGeomRaycastHit@2@I@Z 0000000180101600 f   GuMidphaseBV4.obj
 0001:00101410       ?sweepBox_MeshGeom_BV4@Gu@physx@@YA_NPEBVTriangleMesh@12@AEBVPxTriangleMeshGeometry@2@AEBV?$PxTransformT@M@2@AEBVBox@12@AEBV?$PxVec3T@M@2@MAEAUPxGeomSweepHit@2@V?$PxFlags@W4Enum@PxHitFlag@physx@@G@2@M@Z 0000000180102410 f   GuMidphaseBV4.obj
 0001:00102b10       ?sweepCapsule_MeshGeom_BV4@Gu@physx@@YA_NPEBVTriangleMesh@12@AEBVPxTriangleMeshGeometry@2@AEBV?$PxTransformT@M@2@AEBVCapsule@12@AEBV?$PxVec3T@M@2@MAEAUPxGeomSweepHit@2@V?$PxFlags@W4Enum@PxHitFlag@physx@@G@2@M@Z 0000000180103b10 f   GuMidphaseBV4.obj
 0001:00103630       ?sweepConvex_MeshGeom_BV4@Gu@physx@@YAXPEBVTriangleMesh@12@AEBVBox@12@AEBV?$PxVec3T@M@2@MAEAUSweepConvexMeshHitCallback@12@_N@Z 0000000180104630 f   GuMidphaseBV4.obj
 0001:00103670       ?transform@PxMeshScale@physx@@QEBA?AV?$PxVec3T@M@2@AEBV32@@Z 0000000180104670 f i GuMidphaseBV4.obj
 0001:001038b0       ?findOverlapHeightField@PxMeshQuery@physx@@SAIAEBVPxGeometry@2@AEBV?$PxTransformT@M@2@AEBVPxHeightFieldGeometry@2@1PEAIIIAEA_NV?$PxFlags@W4Enum@PxGeometryQueryFlag@physx@@I@2@@Z 00000001801048b0 f   GuMeshQuery.obj
 0001:00104020       ?findOverlapTriangleMesh@PxMeshQuery@physx@@SAIAEBVPxGeometry@2@AEBV?$PxTransformT@M@2@AEBVPxTriangleMeshGeometry@2@1PEAIIIAEA_NV?$PxFlags@W4Enum@PxGeometryQueryFlag@physx@@I@2@@Z 0000000180105020 f   GuMeshQuery.obj
 0001:00104340       ?findOverlapTriangleMesh@PxMeshQuery@physx@@SA_NAEAV?$PxReportCallback@UPxGeomIndexPair@physx@@@2@AEBVPxTriangleMeshGeometry@2@AEBV?$PxTransformT@M@2@12V?$PxFlags@W4Enum@PxGeometryQueryFlag@physx@@I@2@V?$PxFlags@W4Enum@PxMeshMeshQueryFlag@physx@@I@2@@Z 0000000180105340 f   GuMeshQuery.obj
 0001:00104450       ?getTriangle@PxMeshQuery@physx@@SAXAEBVPxHeightFieldGeometry@2@AEBV?$PxTransformT@M@2@IAEAVPxTriangle@2@PEAI3@Z 0000000180105450 f   GuMeshQuery.obj
 0001:001044d0       ?getTriangle@PxMeshQuery@physx@@SAXAEBVPxTriangleMeshGeometry@2@AEBV?$PxTransformT@M@2@IAEAVPxTriangle@2@PEAI3@Z 00000001801054d0 f   GuMeshQuery.obj
 0001:001049d0       ?sweep@PxMeshQuery@physx@@SA_NAEBV?$PxVec3T@M@2@MAEBVPxGeometry@2@AEBV?$PxTransformT@M@2@IPEBVPxTriangle@2@AEAUPxGeomSweepHit@2@V?$PxFlags@W4Enum@PxHitFlag@physx@@G@2@PEBIM_NV?$PxFlags@W4Enum@PxGeometryQueryFlag@physx@@I@2@@Z 00000001801059d0 f   GuMeshQuery.obj
 0001:00104c60       ??$collide@$00$00@MeshRayCollider@@SAXAEBV?$PxVec3T@M@physx@@0M_NPEBVRTreeTriangleMesh@Gu@2@AEAU?$MeshHitCallback@UPxGeomRaycastHit@physx@@@42@PEBV12@@Z 0000000180105c60 f i GuMidphaseRTree.obj
 0001:00104fd0       ??$collide@$00$0A@@MeshRayCollider@@SAXAEBV?$PxVec3T@M@physx@@0M_NPEBVRTreeTriangleMesh@Gu@2@AEAU?$MeshHitCallback@UPxGeomRaycastHit@physx@@@42@PEBV12@@Z 0000000180105fd0 f i GuMidphaseRTree.obj
 0001:00105210       ??$collide@$0A@$00@MeshRayCollider@@SAXAEBV?$PxVec3T@M@physx@@0M_NPEBVRTreeTriangleMesh@Gu@2@AEAU?$MeshHitCallback@UPxGeomRaycastHit@physx@@@42@PEBV12@@Z 0000000180106210 f i GuMidphaseRTree.obj
 0001:00107550       ??0?$RayRTreeCallback@$00$0A@@@QEAA@MAEAU?$MeshHitCallback@UPxGeomRaycastHit@physx@@@Gu@physx@@HPEBXPEBV?$PxVec3T@M@3@AEBV43@3M_N2@Z 0000000180108550 f i GuMidphaseRTree.obj
 0001:00107670       ??1?$RayRTreeCallback@$00$00@@UEAA@XZ 0000000180108670 f i GuMidphaseRTree.obj
 0001:00107700       ??1?$RayRTreeCallback@$00$0A@@@UEAA@XZ 0000000180108700 f i GuMidphaseRTree.obj
 0001:00107700       ??1?$RayRTreeCallback@$0A@$0A@@@UEAA@XZ 0000000180108700 f i GuMidphaseRTree.obj
 0001:00107790       ??1?$RayRTreeCallback@$0A@$00@@UEAA@XZ 0000000180108790 f i GuMidphaseRTree.obj
 0001:00107818       ??_E?$RayRTreeCallback@$00$00@@W7EAAPEAXI@Z 0000000180108818 f i GuMidphaseRTree.obj
 0001:00107824       ??_E?$RayRTreeCallback@$00$0A@@@W7EAAPEAXI@Z 0000000180108824 f i GuMidphaseRTree.obj
 0001:00107824       ??_E?$RayRTreeCallback@$0A@$0A@@@W7EAAPEAXI@Z 0000000180108824 f i GuMidphaseRTree.obj
 0001:00107830       ??_E?$RayRTreeCallback@$0A@$00@@W7EAAPEAXI@Z 0000000180108830 f i GuMidphaseRTree.obj
 0001:001078a0       ??_E?$RayRTreeCallback@$00$00@@UEAAPEAXI@Z 00000001801088a0 f i GuMidphaseRTree.obj
 0001:001078a0       ??_G?$RayRTreeCallback@$00$00@@UEAAPEAXI@Z 00000001801088a0 f i GuMidphaseRTree.obj
 0001:001078e0       ??_E?$RayRTreeCallback@$00$0A@@@UEAAPEAXI@Z 00000001801088e0 f i GuMidphaseRTree.obj
 0001:001078e0       ??_E?$RayRTreeCallback@$0A@$0A@@@UEAAPEAXI@Z 00000001801088e0 f i GuMidphaseRTree.obj
 0001:001078e0       ??_G?$RayRTreeCallback@$00$0A@@@UEAAPEAXI@Z 00000001801088e0 f i GuMidphaseRTree.obj
 0001:001078e0       ??_G?$RayRTreeCallback@$0A@$0A@@@UEAAPEAXI@Z 00000001801088e0 f i GuMidphaseRTree.obj
 0001:00107920       ??_E?$RayRTreeCallback@$0A@$00@@UEAAPEAXI@Z 0000000180108920 f i GuMidphaseRTree.obj
 0001:00107920       ??_G?$RayRTreeCallback@$0A@$00@@UEAAPEAXI@Z 0000000180108920 f i GuMidphaseRTree.obj
 0001:00107960       ??_ECallback@RTree@Gu@physx@@UEAAPEAXI@Z 0000000180108960 f i GuMidphaseRTree.obj
 0001:00107960       ??_GCallback@RTree@Gu@physx@@UEAAPEAXI@Z 0000000180108960 f i GuMidphaseRTree.obj
 0001:00107990       ??_ERayMeshColliderCallback@@UEAAPEAXI@Z 0000000180108990 f i GuMidphaseRTree.obj
 0001:00107990       ??_ESweepCapsuleMeshHitCallback@Gu@physx@@UEAAPEAXI@Z 0000000180108990 f i GuSweepsMesh.obj
 0001:00107990       ??_GRayMeshColliderCallback@@UEAAPEAXI@Z 0000000180108990 f i GuMidphaseRTree.obj
 0001:00107990       ??_GSweepCapsuleMeshHitCallback@Gu@physx@@UEAAPEAXI@Z 0000000180108990 f i GuSweepsMesh.obj
 0001:001079c0       ?collideOBB@MeshRayCollider@@SAXAEBVBox@Gu@physx@@_NPEBVRTreeTriangleMesh@34@AEAU?$MeshHitCallback@UPxGeomRaycastHit@physx@@@34@1@Z 00000001801089c0 f   GuMidphaseRTree.obj
 0001:00107e90       ?intersectBoxVsMesh_RTREE@Gu@physx@@YA_NAEBVBox@12@AEBVTriangleMesh@12@AEBV?$PxTransformT@M@2@AEBVPxMeshScale@2@PEAULimitedResults@12@@Z 0000000180108e90 f   GuMidphaseRTree.obj
 0001:00107f00       ?intersectCapsuleVsMesh_RTREE@Gu@physx@@YA_NAEBVCapsule@12@AEBVTriangleMesh@12@AEBV?$PxTransformT@M@2@AEBVPxMeshScale@2@PEAULimitedResults@12@@Z 0000000180108f00 f   GuMidphaseRTree.obj
 0001:00107f80       ?intersectOBB_RTREE@Gu@physx@@YAXPEBVTriangleMesh@12@AEBVBox@12@AEAU?$MeshHitCallback@UPxGeomRaycastHit@physx@@@12@_N3@Z 0000000180108f80 f   GuMidphaseRTree.obj
 0001:00107fb0       ?intersectSphereVsMesh_RTREE@Gu@physx@@YA_NAEBVSphere@12@AEBVTriangleMesh@12@AEBV?$PxTransformT@M@2@AEBVPxMeshScale@2@PEAULimitedResults@12@@Z 0000000180108fb0 f   GuMidphaseRTree.obj
 0001:00107fe0       ?pointMeshDistance_RTREE@Gu@physx@@YAXPEBVTriangleMesh@12@AEBVPxTriangleMeshGeometry@2@AEBV?$PxTransformT@M@2@AEBV?$PxVec3T@M@2@MAEAIAEAMAEAV62@@Z 0000000180108fe0 f   GuMidphaseRTree.obj
 0001:00108dd0       ?processHit@RayMeshColliderCallback@@UEAA_NAEBUPxGeomRaycastHit@physx@@AEBV?$PxVec3T@M@3@11AEAMPEBI@Z 0000000180109dd0 f i GuMidphaseRTree.obj
 0001:00109570       ?processResults@?$RayRTreeCallback@$00$00@@UEAA_NIPEAI@Z 000000018010a570 f i GuMidphaseRTree.obj
 0001:001098e0       ?processResults@?$RayRTreeCallback@$00$00@@UEAA_NIPEAIAEAM@Z 000000018010a8e0 f i GuMidphaseRTree.obj
 0001:00109c60       ?processResults@?$RayRTreeCallback@$00$0A@@@UEAA_NIPEAI@Z 000000018010ac60 f i GuMidphaseRTree.obj
 0001:00109c60       ?processResults@?$RayRTreeCallback@$0A@$0A@@@UEAA_NIPEAI@Z 000000018010ac60 f i GuMidphaseRTree.obj
 0001:00109ec0       ?processResults@?$RayRTreeCallback@$00$0A@@@UEAA_NIPEAIAEAM@Z 000000018010aec0 f i GuMidphaseRTree.obj
 0001:00109ec0       ?processResults@?$RayRTreeCallback@$0A@$0A@@@UEAA_NIPEAIAEAM@Z 000000018010aec0 f i GuMidphaseRTree.obj
 0001:0010a150       ?processResults@?$RayRTreeCallback@$0A@$00@@UEAA_NIPEAI@Z 000000018010b150 f i GuMidphaseRTree.obj
 0001:0010a790       ?processResults@?$RayRTreeCallback@$0A@$00@@UEAA_NIPEAIAEAM@Z 000000018010b790 f i GuMidphaseRTree.obj
 0001:0010ade0       ?raycast_triangleMesh_RTREE@Gu@physx@@YAIPEBVTriangleMesh@12@AEBVPxTriangleMeshGeometry@2@AEBV?$PxTransformT@M@2@AEBV?$PxVec3T@M@2@3MV?$PxFlags@W4Enum@PxHitFlag@physx@@G@2@IPEIAUPxGeomRaycastHit@2@I@Z 000000018010bde0 f   GuMidphaseRTree.obj
 0001:0010b560       ?sweepBox_MeshGeom_RTREE@Gu@physx@@YA_NPEBVTriangleMesh@12@AEBVPxTriangleMeshGeometry@2@AEBV?$PxTransformT@M@2@AEBVBox@12@AEBV?$PxVec3T@M@2@MAEAUPxGeomSweepHit@2@V?$PxFlags@W4Enum@PxHitFlag@physx@@G@2@M@Z 000000018010c560 f   GuMidphaseRTree.obj
 0001:0010ca80       ?sweepCapsule_MeshGeom_RTREE@Gu@physx@@YA_NPEBVTriangleMesh@12@AEBVPxTriangleMeshGeometry@2@AEBV?$PxTransformT@M@2@AEBVCapsule@12@AEBV?$PxVec3T@M@2@MAEAUPxGeomSweepHit@2@V?$PxFlags@W4Enum@PxHitFlag@physx@@G@2@M@Z 000000018010da80 f   GuMidphaseRTree.obj
 0001:0010d230       ?sweepConvex_MeshGeom_RTREE@Gu@physx@@YAXPEBVTriangleMesh@12@AEBVBox@12@AEBV?$PxVec3T@M@2@MAEAUSweepConvexMeshHitCallback@12@_N@Z 000000018010e230 f   GuMidphaseRTree.obj
 0001:0010dbe0       ??_E?$PxReportCallback@UPxGeomIndexPair@physx@@@physx@@UEAAPEAXI@Z 000000018010ebe0 f i GuOverlapTestsMesh.obj
 0001:0010dbe0       ??_G?$PxReportCallback@UPxGeomIndexPair@physx@@@physx@@UEAAPEAXI@Z 000000018010ebe0 f i GuOverlapTestsMesh.obj
 0001:0010dc70       ?GeomOverlapCallback_BoxMesh@@YA_NAEBVPxGeometry@physx@@AEBV?$PxTransformT@M@2@01PEAUTriggerCache@Gu@2@PEAUPxQueryThreadContext@2@@Z 000000018010ec70 f   GuOverlapTestsMesh.obj
 0001:0010dd80       ?GeomOverlapCallback_CapsuleMesh@@YA_NAEBVPxGeometry@physx@@AEBV?$PxTransformT@M@2@01PEAUTriggerCache@Gu@2@PEAUPxQueryThreadContext@2@@Z 000000018010ed80 f   GuOverlapTestsMesh.obj
 0001:0010de90       ?GeomOverlapCallback_ConvexMesh@@YA_NAEBVPxGeometry@physx@@AEBV?$PxTransformT@M@2@01PEAUTriggerCache@Gu@2@PEAUPxQueryThreadContext@2@@Z 000000018010ee90 f   GuOverlapTestsMesh.obj
 0001:0010e390       ?GeomOverlapCallback_MeshMesh@@YA_NAEBVPxGeometry@physx@@AEBV?$PxTransformT@M@2@01PEAUTriggerCache@Gu@2@PEAUPxQueryThreadContext@2@@Z 000000018010f390 f   GuOverlapTestsMesh.obj
 0001:0010e450       ?GeomOverlapCallback_SphereMesh@@YA_NAEBVPxGeometry@physx@@AEBV?$PxTransformT@M@2@01PEAUTriggerCache@Gu@2@PEAUPxQueryThreadContext@2@@Z 000000018010f450 f   GuOverlapTestsMesh.obj
 0001:0010e840       ??0RTree@Gu@physx@@QEAA@W4PxEMPTY@2@@Z 000000018010f840 f   GuRTree.obj
 0001:0010e850       ?exportExtraData@RTree@Gu@physx@@QEAAXAEAVPxSerializationContext@3@@Z 000000018010f850 f   GuRTree.obj
 0001:0010e890       ?importExtraData@RTree@Gu@physx@@QEAAXAEAVPxDeserializationContext@3@@Z 000000018010f890 f   GuRTree.obj
 0001:0010e8c0       ?load@RTree@Gu@physx@@QEAA_NAEAVPxInputStream@3@I_N@Z 000000018010f8c0 f   GuRTree.obj
 0001:0010ebc0       ?refitAllStaticTree@RTree@Gu@physx@@QEAAXAEAUCallbackRefit@123@PEAVPxBounds3@3@@Z 000000018010fbc0 f   GuRTree.obj
 0001:0010f120       ?validate@RTree@Gu@physx@@QEAAXPEAUCallbackRefit@123@@Z 0000000180110120 f   GuRTree.obj
 0001:0010f360       ?validateRecursive@RTree@Gu@physx@@IEAAXIURTreeNodeQ@23@PEAURTreePage@23@PEAUCallbackRefit@123@@Z 0000000180110360 f   GuRTree.obj
 0001:0010f520       ??$traverseRay@$00@RTree@Gu@physx@@QEBAXAEBV?$PxVec3T@M@2@0IPEAIPEAUCallbackRaycast@012@PEBV32@M@Z 0000000180110520 f i GuRTreeQueries.obj
 0001:0010f8c0       ??$traverseRay@$0A@@RTree@Gu@physx@@QEBAXAEBV?$PxVec3T@M@2@0IPEAIPEAUCallbackRaycast@012@PEBV32@M@Z 00000001801108c0 f i GuRTreeQueries.obj
 0001:0010fc10       ?traverseAABB@RTree@Gu@physx@@QEBAXAEBV?$PxVec3T@M@3@0IPEAIPEAUCallback@123@@Z 0000000180110c10 f   GuRTreeQueries.obj
 0001:0010fdd0       ?traverseOBB@RTree@Gu@physx@@QEBAXAEBVBox@23@IPEAIPEAUCallback@123@@Z 0000000180110dd0 f   GuRTreeQueries.obj
 0001:001106b0       ??0SweepBoxMeshHitCallback@Gu@physx@@QEAA@W4Enum@CallbackMode@12@AEBVPxMat34Padded@2@M_NAEBVBox@12@AEBV?$PxVec3T@M@2@44AEBV?$PxFlags@W4Enum@PxHitFlag@physx@@G@2@M2M@Z 00000001801116b0 f   GuSweepsMesh.obj
 0001:001107c0       ??0SweepCapsuleMeshHitCallback@Gu@physx@@QEAA@AEAUPxGeomSweepHit@2@AEBV?$PxMat34T@M@2@M_NAEBVCapsule@12@AEBV?$PxVec3T@M@2@AEBV?$PxFlags@W4Enum@PxHitFlag@physx@@G@2@2M@Z 00000001801117c0 f   GuSweepsMesh.obj
 0001:00110890       ??0SweepConvexMeshHitCallback@Gu@physx@@QEAA@AEBUConvexHullData@12@AEBVPxMeshScale@2@AEBVFastVertex2ShapeScaling@Cm@2@AEBV?$PxTransformT@M@2@3AEBV?$PxVec3T@M@2@MV?$PxFlags@W4Enum@PxHitFlag@physx@@G@2@_NM6M@Z 0000000180111890 f   GuSweepsMesh.obj
 0001:001111e0       ??_ESweepBoxMeshHitCallback@Gu@physx@@UEAAPEAXI@Z 00000001801121e0 f i GuSweepsMesh.obj
 0001:001111e0       ??_GSweepBoxMeshHitCallback@Gu@physx@@UEAAPEAXI@Z 00000001801121e0 f i GuSweepsMesh.obj
 0001:00111210       ??_ESweepConvexMeshHitCallback@Gu@physx@@UEAAPEAXI@Z 0000000180112210 f i GuSweepsMesh.obj
 0001:00111210       ??_GSweepConvexMeshHitCallback@Gu@physx@@UEAAPEAXI@Z 0000000180112210 f i GuSweepsMesh.obj
 0001:00111240       ??_ESweepShapeMeshHitCallback@Gu@physx@@UEAAPEAXI@Z 0000000180112240 f i GuSweepsMesh.obj
 0001:00111240       ??_GSweepShapeMeshHitCallback@Gu@physx@@UEAAPEAXI@Z 0000000180112240 f i GuSweepsMesh.obj
 0001:00111270       ?finalizeHit@SweepBoxMeshHitCallback@Gu@physx@@QEBA_NAEAUPxGeomSweepHit@3@AEBVPxTriangleMeshGeometry@3@AEBV?$PxTransformT@M@3@2AEBV?$PxVec3T@M@3@_N4@Z 0000000180112270 f   GuSweepsMesh.obj
 0001:00111930       ?finalizeHit@SweepCapsuleMeshHitCallback@Gu@physx@@QEBA_NAEAUPxGeomSweepHit@3@AEBVCapsule@23@AEBVPxTriangleMeshGeometry@3@AEBV?$PxTransformT@M@3@_N@Z 0000000180112930 f   GuSweepsMesh.obj
 0001:00111ae0       ?finalizeHit@SweepConvexMeshHitCallback@Gu@physx@@QEAA_NAEAUPxGeomSweepHit@3@AEBVPxTriangleMeshGeometry@3@AEBV?$PxTransformT@M@3@AEBVPxConvexMeshGeometry@3@2AEBV?$PxVec3T@M@3@M_N555@Z 0000000180112ae0 f   GuSweepsMesh.obj
 0001:00111fb0       ?processHit@SweepBoxMeshHitCallback@Gu@physx@@UEAA_NAEBUPxGeomRaycastHit@3@AEBV?$PxVec3T@M@3@11AEAMPEBI@Z 0000000180112fb0 f   GuSweepsMesh.obj
 0001:001127a0       ?processHit@SweepCapsuleMeshHitCallback@Gu@physx@@UEAA_NAEBUPxGeomRaycastHit@3@AEBV?$PxVec3T@M@3@11AEAMPEBI@Z 00000001801137a0 f   GuSweepsMesh.obj
 0001:00112d00       ?processHit@SweepConvexMeshHitCallback@Gu@physx@@UEAA_NAEBUPxGeomRaycastHit@3@AEBV?$PxVec3T@M@3@11AEAMPEBI@Z 0000000180113d00 f   GuSweepsMesh.obj
 0001:00113440       ?sweepBox_MeshGeom@@YA_NAEBVPxGeometry@physx@@AEBV?$PxTransformT@M@2@AEBVPxBoxGeometry@2@1AEBVBox@Gu@2@AEBV?$PxVec3T@M@2@MAEAUPxGeomSweepHit@2@V?$PxFlags@W4Enum@PxHitFlag@physx@@G@2@MPEAUPxQueryThreadContext@2@@Z 0000000180114440 f   GuSweepsMesh.obj
 0001:001134d0       ?sweepCapsule_MeshGeom@@YA_NAEBVPxGeometry@physx@@AEBV?$PxTransformT@M@2@AEBVPxCapsuleGeometry@2@1AEBVCapsule@Gu@2@AEBV?$PxVec3T@M@2@MAEAUPxGeomSweepHit@2@V?$PxFlags@W4Enum@PxHitFlag@physx@@G@2@MPEAUPxQueryThreadContext@2@@Z 00000001801144d0 f   GuSweepsMesh.obj
 0001:00113560       ?sweepConvex_MeshGeom@@YA_NAEBVPxGeometry@physx@@AEBV?$PxTransformT@M@2@AEBVPxConvexMeshGeometry@2@1AEBV?$PxVec3T@M@2@MAEAUPxGeomSweepHit@2@V?$PxFlags@W4Enum@PxHitFlag@physx@@G@2@MPEAUPxQueryThreadContext@2@@Z 0000000180114560 f   GuSweepsMesh.obj
 0001:001140a0       ??0TriangleMesh@Gu@physx@@QEAA@AEBUPxTriangleMeshInternalData@2@@Z 00000001801150a0 f   GuTriangleMesh.obj
 0001:00114180       ??0TriangleMesh@Gu@physx@@QEAA@PEAVMeshFactory@12@AEAVTriangleMeshData@12@@Z 0000000180115180 f   GuTriangleMesh.obj
 0001:00114500       ??1TriangleMesh@Gu@physx@@UEAA@XZ 0000000180115500 f   GuTriangleMesh.obj
 0001:00114750       ??_ETriangleMesh@Gu@physx@@UEAAPEAXI@Z 0000000180115750 f i GuTriangleMesh.obj
 0001:00114750       ??_GTriangleMesh@Gu@physx@@UEAAPEAXI@Z 0000000180115750 f i GuTriangleMesh.obj
 0001:001147c0       ?exportExtraData@TriangleMesh@Gu@physx@@UEAAXAEAVPxSerializationContext@3@@Z 00000001801157c0 f   GuTriangleMesh.obj
 0001:00114990       ?getLocalBounds@TriangleMesh@Gu@physx@@UEBA?AVPxBounds3@3@XZ 0000000180115990 f i GuTriangleMesh.obj
 0001:00114a20       ?getMassInformation@TriangleMesh@Gu@physx@@UEBAXAEAMAEAV?$PxMat33T@M@3@AEAV?$PxVec3T@M@3@@Z 0000000180115a20 f i GuTriangleMesh.obj
 0001:00114aa0       ?getNbTriangles@TriangleMesh@Gu@physx@@UEBAIXZ 0000000180115aa0 f i GuTriangleMesh.obj
 0001:00114ab0       ?getPreferSDFProjection@TriangleMesh@Gu@physx@@UEBA_NXZ 0000000180115ab0 f i GuTriangleMesh.obj
 0001:00114ac0       ?getSDF@TriangleMesh@Gu@physx@@UEBAPEBMXZ 0000000180115ac0 f i GuTriangleMesh.obj
 0001:00114ad0       ?getSDFDimensions@TriangleMesh@Gu@physx@@UEBAXAEAI00@Z 0000000180115ad0 f i GuTriangleMesh.obj
 0001:00114b00       ?getTriangleMaterialIndex@TriangleMesh@Gu@physx@@UEBAGI@Z 0000000180115b00 f i GuTriangleMesh.obj
 0001:00114b20       ?getTriangleMeshFlags@TriangleMesh@Gu@physx@@UEBA?AV?$PxFlags@W4Enum@PxTriangleMeshFlag@physx@@E@3@XZ 0000000180115b20 f i GuTriangleMesh.obj
 0001:00114b30       ?getTrianglesRemap@TriangleMesh@Gu@physx@@UEBAPEBIXZ 0000000180115b30 f i GuTriangleMesh.obj
 0001:00114b40       ?getVerticesForModification@TriangleMesh@Gu@physx@@UEAAPEAV?$PxVec3T@M@3@XZ 0000000180115b40 f   GuTriangleMesh.obj
 0001:00114b80       ?importExtraData@TriangleMesh@Gu@physx@@QEAAXAEAVPxDeserializationContext@3@@Z 0000000180115b80 f   GuTriangleMesh.obj
 0001:00114d10       ?isKindOf@PxTriangleMesh@physx@@MEBA_NPEBD@Z 0000000180115d10 f i GuTriangleMesh.obj
 0001:00114d80       ?onRefCountZero@TriangleMesh@Gu@physx@@UEAAXXZ 0000000180115d80 f   GuTriangleMesh.obj
 0001:00114e50       ?refitBVH@TriangleMesh@Gu@physx@@UEAA?AVPxBounds3@3@XZ 0000000180115e50 f   GuTriangleMesh.obj
 0001:00114f20       ?requestEdgeList@TriangleMesh@Gu@physx@@QEBAPEBVEdgeList@23@XZ 0000000180115f20 f   GuTriangleMesh.obj
 0001:00115010       ?setAllEdgesActive@TriangleMesh@Gu@physx@@QEAAXXZ 0000000180116010 f   GuTriangleMesh.obj
 0001:00115100       ?setPreferSDFProjection@TriangleMesh@Gu@physx@@UEAAX_N@Z 0000000180116100 f i GuTriangleMesh.obj
 0001:00115130       ??0BV4TriangleMesh@Gu@physx@@QEAA@AEBUPxTriangleMeshInternalData@2@@Z 0000000180116130 f   GuTriangleMeshBV4.obj
 0001:00115290       ??0BV4TriangleMesh@Gu@physx@@QEAA@PEAVMeshFactory@12@AEAVTriangleMeshData@12@@Z 0000000180116290 f   GuTriangleMeshBV4.obj
 0001:00115320       ??_EBV4TriangleMesh@Gu@physx@@UEAAPEAXI@Z 0000000180116320 f i GuTriangleMeshBV4.obj
 0001:00115320       ??_GBV4TriangleMesh@Gu@physx@@UEAAPEAXI@Z 0000000180116320 f i GuTriangleMeshBV4.obj
 0001:001153b0       ?createObject@BV4TriangleMesh@Gu@physx@@SAPEAVTriangleMesh@23@AEAPEAEAEAVPxDeserializationContext@3@@Z 00000001801163b0 f   GuTriangleMeshBV4.obj
 0001:00115490       ?exportExtraData@BV4TriangleMesh@Gu@physx@@UEAAXAEAVPxSerializationContext@3@@Z 0000000180116490 f   GuTriangleMeshBV4.obj
 0001:001154d0       ?getConcreteTypeName@BV4TriangleMesh@Gu@physx@@UEBAPEBDXZ 00000001801164d0 f i GuTriangleMeshBV4.obj
 0001:001154e0       ?getInternalData@BV4TriangleMesh@Gu@physx@@UEBA_NAEAUPxTriangleMeshInternalData@3@_N@Z 00000001801164e0 f   GuTriangleMeshBV4.obj
 0001:001155d0       ?getMidphaseID@BV4TriangleMesh@Gu@physx@@UEBA?AW4Enum@PxMeshMidPhase@3@XZ 00000001801165d0 f i GuTriangleMeshBV4.obj
 0001:001155d0       ?getMidphaseID@BV4TriangleMeshBuilder@physx@@UEBA?AW4Enum@PxMeshMidPhase@2@XZ 00000001801165d0 f i GuCookingTriangleMesh.obj
 0001:001155d0       ?length@charNode@@UEBAHXZ  00000001801165d0 f i libvcruntime:undname.obj
 0001:001155d0       ?raw_length@charNode@@UEBAHXZ 00000001801165d0 f i libvcruntime:undname.obj
 0001:001155d0       DllMain                    00000001801165d0 f i LIBCMT:dll_dllmain_stub.obj
 0001:001155d0       _get_startup_argv_mode     00000001801165d0 f i LIBCMT:argv_mode.obj
 0001:001155e0       ?getVerticesForModification@BV4TriangleMesh@Gu@physx@@UEAAPEAV?$PxVec3T@M@3@XZ 00000001801165e0 f   GuTriangleMeshBV4.obj
 0001:001155e0       ?getVerticesForModification@RTreeTriangleMesh@Gu@physx@@UEAAPEAV?$PxVec3T@M@3@XZ 00000001801165e0 f   GuTriangleMeshRTree.obj
 0001:001155f0       ?refitBVH@BV4TriangleMesh@Gu@physx@@UEAA?AVPxBounds3@3@XZ 00000001801165f0 f   GuTriangleMeshBV4.obj
 0001:00115760       PxGetTriangleMeshInternalData 0000000180116760 f   GuTriangleMeshBV4.obj
 0001:00115780       ??0RTreeTriangleMesh@Gu@physx@@QEAA@PEAVMeshFactory@12@AEAVTriangleMeshData@12@@Z 0000000180116780 f   GuTriangleMeshRTree.obj
 0001:001158f0       ??_E?$RefitCallback@G@physx@@UEAAPEAXI@Z 00000001801168f0 f i GuTriangleMeshRTree.obj
 0001:001158f0       ??_E?$RefitCallback@I@physx@@UEAAPEAXI@Z 00000001801168f0 f i GuTriangleMeshRTree.obj
 0001:001158f0       ??_G?$RefitCallback@G@physx@@UEAAPEAXI@Z 00000001801168f0 f i GuTriangleMeshRTree.obj
 0001:001158f0       ??_G?$RefitCallback@I@physx@@UEAAPEAXI@Z 00000001801168f0 f i GuTriangleMeshRTree.obj
 0001:00115920       ??_ERTreeTriangleMesh@Gu@physx@@UEAAPEAXI@Z 0000000180116920 f i GuTriangleMeshRTree.obj
 0001:00115920       ??_GRTreeTriangleMesh@Gu@physx@@UEAAPEAXI@Z 0000000180116920 f i GuTriangleMeshRTree.obj
 0001:001159d0       ?createObject@RTreeTriangleMesh@Gu@physx@@SAPEAVTriangleMesh@23@AEAPEAEAEAVPxDeserializationContext@3@@Z 00000001801169d0 f   GuTriangleMeshRTree.obj
 0001:00115a60       ?exportExtraData@RTreeTriangleMesh@Gu@physx@@UEAAXAEAVPxSerializationContext@3@@Z 0000000180116a60 f   GuTriangleMeshRTree.obj
 0001:00115aa0       ?getConcreteTypeName@RTreeTriangleMesh@Gu@physx@@UEBAPEBDXZ 0000000180116aa0 f i GuTriangleMeshRTree.obj
 0001:00115ab0       ?recomputeBounds@?$RefitCallback@G@physx@@UEAAXIAEAT__m128@@0@Z 0000000180116ab0 f i GuTriangleMeshRTree.obj
 0001:00115de0       ?recomputeBounds@?$RefitCallback@I@physx@@UEAAXIAEAT__m128@@0@Z 0000000180116de0 f i GuTriangleMeshRTree.obj
 0001:00116100       ?refitBVH@RTreeTriangleMesh@Gu@physx@@UEAA?AVPxBounds3@3@XZ 0000000180117100 f   GuTriangleMeshRTree.obj
 0001:00116220       ??0BV32Tree@Gu@physx@@QEAA@XZ 0000000180117220 f   GuBV32.obj
 0001:00116250       ??1BV32Tree@Gu@physx@@QEAA@XZ 0000000180117250 f   GuBV32.obj
 0001:00116260       ?calculateLeafNode@BV32Tree@Gu@physx@@QEAAXAEAUBV32Data@23@@Z 0000000180117260 f   GuBV32.obj
 0001:001164a0       ?createSOAformatNode@BV32Tree@Gu@physx@@QEAAXAEAUBV32DataPacked@23@AEBUBV32Data@23@IAEAI2@Z 00000001801174a0 f   GuBV32.obj
 0001:00116900       ?load@BV32Tree@Gu@physx@@QEAA_NAEAVPxInputStream@3@_N@Z 0000000180117900 f   GuBV32.obj
 0001:00116c40       ?release@BV32Tree@Gu@physx@@QEAAXXZ 0000000180117c40 f   GuBV32.obj
 0001:00116d00       ??0BV32Node@@QEAA@XZ       0000000180117d00 f i GuBV32Build.obj
 0001:00117180       ?BuildBV32Ex@Gu@physx@@YA_NAEAVBV32Tree@12@AEAVSourceMeshBase@12@MI@Z 0000000180118180 f   GuBV32Build.obj
 0001:00118120       ??0BVTetrahedronMesh@Gu@physx@@QEAA@AEAVTetrahedronMeshData@12@AEAVSoftBodyCollisionData@12@PEAVMeshFactory@12@@Z 0000000180119120 f   GuTetrahedronMesh.obj
 0001:00118380       ??0SoftBodyMesh@Gu@physx@@QEAA@PEAVMeshFactory@12@AEAVSoftBodyMeshData@12@@Z 0000000180119380 f   GuTetrahedronMesh.obj
 0001:00118750       ??0TetrahedronMesh@Gu@physx@@QEAA@PEAVMeshFactory@12@AEAVTetrahedronMeshData@12@@Z 0000000180119750 f   GuTetrahedronMesh.obj
 0001:00118840       ??1SoftBodyAuxData@Gu@physx@@UEAA@XZ 0000000180119840 f   GuTetrahedronMesh.obj
 0001:00118aa0       ??1TetrahedronMesh@Gu@physx@@UEAA@XZ 0000000180119aa0 f   GuTetrahedronMesh.obj
 0001:00118b40       ??_EBVTetrahedronMesh@Gu@physx@@UEAAPEAXI@Z 0000000180119b40 f i GuTetrahedronMesh.obj
 0001:00118b40       ??_GBVTetrahedronMesh@Gu@physx@@UEAAPEAXI@Z 0000000180119b40 f i GuTetrahedronMesh.obj
 0001:00118cc0       ??_ESoftBodyAuxData@Gu@physx@@UEAAPEAXI@Z 0000000180119cc0 f i GuTetrahedronMesh.obj
 0001:00118cc0       ??_GSoftBodyAuxData@Gu@physx@@UEAAPEAXI@Z 0000000180119cc0 f i GuTetrahedronMesh.obj
 0001:00118d30       ??_ESoftBodyMesh@Gu@physx@@UEAAPEAXI@Z 0000000180119d30 f i GuTetrahedronMesh.obj
 0001:00118d30       ??_GSoftBodyMesh@Gu@physx@@UEAAPEAXI@Z 0000000180119d30 f i GuTetrahedronMesh.obj
 0001:00118e00       ??_ETetrahedronMesh@Gu@physx@@UEAAPEAXI@Z 0000000180119e00 f i GuTetrahedronMesh.obj
 0001:00118e00       ??_GTetrahedronMesh@Gu@physx@@UEAAPEAXI@Z 0000000180119e00 f i GuTetrahedronMesh.obj
 0001:00118e70       ?exportExtraData@SoftBodyMesh@Gu@physx@@UEAAXAEAVPxSerializationContext@3@@Z 0000000180119e70 f   GuTetrahedronMesh.obj
 0001:00118f60       ?getConcreteTypeName@SoftBodyAuxData@Gu@physx@@UEBAPEBDXZ 0000000180119f60 f i GuTetrahedronMesh.obj
 0001:00118f70       ?getConcreteTypeName@SoftBodyMesh@Gu@physx@@UEBAPEBDXZ 0000000180119f70 f i GuTetrahedronMesh.obj
 0001:00118f80       ?getConcreteTypeName@TetrahedronMesh@Gu@physx@@UEBAPEBDXZ 0000000180119f80 f i GuTetrahedronMesh.obj
 0001:00118f90       ?getLocalBounds@TetrahedronMesh@Gu@physx@@UEBA?AVPxBounds3@3@XZ 0000000180119f90 f i GuTetrahedronMesh.obj
 0001:00119020       ?getNbTetrahedrons@TetrahedronMesh@Gu@physx@@UEBAIXZ 000000018011a020 f i GuTetrahedronMesh.obj
 0001:00119030       ?getBounds@BVH@Gu@physx@@UEBAPEBVPxBounds3@3@XZ 000000018011a030 f i GuBVH.obj
 0001:00119030       ?getTetrahedraRemap@BVTetrahedronMesh@Gu@physx@@UEBAPEBIXZ 000000018011a030 f i GuTetrahedronMesh.obj
 0001:00119040       ?getTetrahedronMeshFlags@TetrahedronMesh@Gu@physx@@UEBA?AV?$PxFlags@W4Enum@PxTetrahedronMeshFlag@physx@@E@3@XZ 000000018011a040 f i GuTetrahedronMesh.obj
 0001:00119050       ?getTetrahedrons@TetrahedronMesh@Gu@physx@@UEBAPEBXXZ 000000018011a050 f i GuTetrahedronMesh.obj
 0001:00119060       ?isKindOf@PxSoftBodyAuxData@physx@@MEBA_NPEBD@Z 000000018011a060 f i GuTetrahedronMesh.obj
 0001:001190d0       ?isKindOf@PxSoftBodyMesh@physx@@MEBA_NPEBD@Z 000000018011a0d0 f i GuTetrahedronMesh.obj
 0001:00119140       ?isKindOf@PxTetrahedronMesh@physx@@MEBA_NPEBD@Z 000000018011a140 f i GuTetrahedronMesh.obj
 0001:001191b0       ?onRefCountZero@SoftBodyAuxData@Gu@physx@@UEAAXXZ 000000018011a1b0 f i GuTetrahedronMesh.obj
 0001:001191b0       ?release@SimulationTetrahedronMeshData@Gu@physx@@UEAAXXZ 000000018011a1b0 f i GuCookingTetrahedronMesh.obj
 0001:001191d0       ?onRefCountZero@SoftBodyMesh@Gu@physx@@UEAAXXZ 000000018011a1d0 f   GuTetrahedronMesh.obj
 0001:00119270       ?onRefCountZero@TetrahedronMesh@Gu@physx@@UEAAXXZ 000000018011a270 f   GuTetrahedronMesh.obj
 0001:0011b7e0       ?pcmContactBoxBox@Gu@physx@@YA_NAEBVPxGeometry@2@0AEBV?$PxTransformT@M@2@1AEBUNarrowPhaseParams@12@AEAUCache@12@AEAVPxContactBuffer@2@PEAVPxRenderOutput@2@@Z 000000018011c7e0 f   GuPCMContactBoxBox.obj
 0001:0011c690       ??$gjkPenetration@U?$RelativeConvex@VBoxV@Gu@physx@@@Gu@physx@@U?$LocalConvex@VConvexHullNoScaleV@Gu@physx@@@23@@Gu@physx@@YA?AW4GjkStatus@01@AEBU?$RelativeConvex@VBoxV@Gu@physx@@@01@AEBU?$LocalConvex@VConvexHullNoScaleV@Gu@physx@@@01@AEBT__m128@@2_NPEIAE4AEAEAEAUGjkOutput@01@@Z 000000018011d690 f i GuPCMContactBoxConvex.obj
 0001:0011c700       ??$gjkPenetration@U?$RelativeConvex@VBoxV@Gu@physx@@@Gu@physx@@U?$LocalConvex@VConvexHullNoScaleV@Gu@physx@@@23@@Gu@physx@@YA?AW4GjkStatus@01@AEBU?$RelativeConvex@VBoxV@Gu@physx@@@01@AEBU?$LocalConvex@VConvexHullNoScaleV@Gu@physx@@@01@AEBT__m128@@2_NPEIAE4PEIAT5@5AEAEAEAUGjkOutput@01@@Z 000000018011d700 f i GuPCMContactBoxConvex.obj
 0001:0011e2e0       ?pcmContactBoxConvex@Gu@physx@@YA_NAEBVPxGeometry@2@0AEBV?$PxTransformT@M@2@1AEBUNarrowPhaseParams@12@AEAUCache@12@AEAVPxContactBuffer@2@PEAVPxRenderOutput@2@@Z 000000018011f2e0 f   GuPCMContactBoxConvex.obj
 0001:0011f0c0       ?support@?$LocalConvex@VConvexHullNoScaleV@Gu@physx@@@Gu@physx@@UEBA?AT__m128@@AEBT4@@Z 00000001801200c0 f i GuPCMContactBoxConvex.obj
 0001:0011f110       ?support@?$LocalConvex@VConvexHullNoScaleV@Gu@physx@@@Gu@physx@@UEBA?AT__m128@@AEBT4@AEAH@Z 0000000180120110 f i GuPCMContactBoxConvex.obj
 0001:0011f170       ?supportPoint@?$LocalConvex@VConvexHullNoScaleV@Gu@physx@@@Gu@physx@@UEBA?AT__m128@@H@Z 0000000180120170 f i GuPCMContactBoxConvex.obj
 0001:0011f1a0       ?pcmContactCapsuleBox@Gu@physx@@YA_NAEBVPxGeometry@2@0AEBV?$PxTransformT@M@2@1AEBUNarrowPhaseParams@12@AEAUCache@12@AEAVPxContactBuffer@2@PEAVPxRenderOutput@2@@Z 00000001801201a0 f   GuPCMContactCapsuleBox.obj
 0001:00120130       ?pcmContactCapsuleCapsule@Gu@physx@@YA_NAEBVPxGeometry@2@0AEBV?$PxTransformT@M@2@1AEBUNarrowPhaseParams@12@AEAUCache@12@AEAVPxContactBuffer@2@PEAVPxRenderOutput@2@@Z 0000000180121130 f   GuPCMContactCapsuleCapsule.obj
 0001:001209c0       ??$gjkPenetration@U?$LocalConvex@VCapsuleV@Gu@physx@@@Gu@physx@@U?$LocalConvex@VConvexHullNoScaleV@Gu@physx@@@23@@Gu@physx@@YA?AW4GjkStatus@01@AEBU?$LocalConvex@VCapsuleV@Gu@physx@@@01@AEBU?$LocalConvex@VConvexHullNoScaleV@Gu@physx@@@01@AEBT__m128@@2_NPEIAE4AEAEAEAUGjkOutput@01@@Z 00000001801219c0 f i GuPCMContactCapsuleConvex.obj
 0001:00120a30       ??$gjkPenetration@U?$LocalConvex@VCapsuleV@Gu@physx@@@Gu@physx@@U?$LocalConvex@VConvexHullNoScaleV@Gu@physx@@@23@@Gu@physx@@YA?AW4GjkStatus@01@AEBU?$LocalConvex@VCapsuleV@Gu@physx@@@01@AEBU?$LocalConvex@VConvexHullNoScaleV@Gu@physx@@@01@AEBT__m128@@2_NPEIAE4PEIAT5@5AEAEAEAUGjkOutput@01@@Z 0000000180121a30 f i GuPCMContactCapsuleConvex.obj
 0001:00122100       ?pcmContactCapsuleConvex@Gu@physx@@YA_NAEBVPxGeometry@2@0AEBV?$PxTransformT@M@2@1AEBUNarrowPhaseParams@12@AEAUCache@12@AEAVPxContactBuffer@2@PEAVPxRenderOutput@2@@Z 0000000180123100 f   GuPCMContactCapsuleConvex.obj
 0001:001232f0       ??_EPCMCapsuleVsHeightfieldContactGenerationCallback@@UEAAPEAXI@Z 00000001801242f0 f i GuPCMContactCapsuleHeightField.obj
 0001:001232f0       ??_EPCMConvexVsHeightfieldContactGenerationCallback@physx@@UEAAPEAXI@Z 00000001801242f0 f i GuPCMContactConvexHeightField.obj
 0001:001232f0       ??_GPCMCapsuleVsHeightfieldContactGenerationCallback@@UEAAPEAXI@Z 00000001801242f0 f i GuPCMContactCapsuleHeightField.obj
 0001:001232f0       ??_GPCMConvexVsHeightfieldContactGenerationCallback@physx@@UEAAPEAXI@Z 00000001801242f0 f i GuPCMContactConvexHeightField.obj
 0001:00123320       ?pcmContactCapsuleHeightField@Gu@physx@@YA_NAEBVPxGeometry@2@0AEBV?$PxTransformT@M@2@1AEBUNarrowPhaseParams@12@AEAUCache@12@AEAVPxContactBuffer@2@PEAVPxRenderOutput@2@@Z 0000000180124320 f   GuPCMContactCapsuleHeightField.obj
 0001:00124230       ?reportTouchedTris@?$PCMHeightfieldContactGenerationCallback@UPCMCapsuleVsHeightfieldContactGenerationCallback@@@Gu@physx@@UEAA_NIPEBI@Z 0000000180125230 f i GuPCMContactCapsuleHeightField.obj
 0001:001248a0       ?generateContacts@PCMCapsuleVsMeshContactGeneration@Gu@physx@@SAXAEBT__m128@@0000I000PEAVMeshPersistentContact@23@AEAI@Z 00000001801258a0 f   GuPCMContactCapsuleMesh.obj
 0001:00124cc0       ?generateEE@PCMCapsuleVsMeshContactGeneration@Gu@physx@@QEAAXAEBT__m128@@000I00PEAVMeshPersistentContact@23@AEAI@Z 0000000180125cc0 f   GuPCMContactCapsuleMesh.obj
 0001:00124f30       ?generateEEMTD@PCMCapsuleVsMeshContactGeneration@Gu@physx@@SAXAEBT__m128@@000I00PEAVMeshPersistentContact@23@AEAI@Z 0000000180125f30 f   GuPCMContactCapsuleMesh.obj
 0001:00125160       ?pcmContactCapsuleMesh@Gu@physx@@YA_NAEBVPxGeometry@2@0AEBV?$PxTransformT@M@2@1AEBUNarrowPhaseParams@12@AEAUCache@12@AEAVPxContactBuffer@2@PEAVPxRenderOutput@2@@Z 0000000180126160 f   GuPCMContactCapsuleMesh.obj
 0001:00126df0       ?processTriangle@PCMCapsuleVsMeshContactGeneration@Gu@physx@@QEAA_NPEBV?$PxVec3T@M@3@IEPEBI@Z 0000000180127df0 f   GuPCMContactCapsuleMesh.obj
 0001:001279f0       ?processTriangle@PCMCapsuleVsMeshContactGeneration@Gu@physx@@SA_NAEBVTriangleV@23@IAEBVCapsuleV@23@AEBT__m128@@EPEAVMeshPersistentContact@23@AEAI@Z 00000001801289f0 f   GuPCMContactCapsuleMesh.obj
 0001:00127d20       ?addContactsToPatch@PCMConvexVsMeshContactGeneration@Gu@physx@@QEAAXAEBT__m128@@I@Z 0000000180128d20 f   GuPCMContactConvexCommon.obj
 0001:00128660       ?doSupport@?$SupportLocalImpl@VTriangleV@Gu@physx@@@Gu@physx@@UEBA?AT__m128@@AEBT4@@Z 0000000180129660 f i GuPCMContactConvexCommon.obj
 0001:001286f0       ?doSupport@?$SupportLocalImpl@VTriangleV@Gu@physx@@@Gu@physx@@UEBAXAEBT__m128@@AEAT4@1@Z 00000001801296f0 f i GuPCMContactConvexCommon.obj
 0001:00128760       ?generateLastContacts@PCMConvexVsMeshContactGeneration@Gu@physx@@QEAAXXZ 0000000180129760 f   GuPCMContactConvexCommon.obj
 0001:00128cc0       ?populateVerts@?$SupportLocalImpl@VTriangleV@Gu@physx@@@Gu@physx@@UEBAXPEBEIPEBV?$PxVec3T@M@3@PEAT__m128@@@Z 0000000180129cc0 f i GuPCMContactConvexCommon.obj
 0001:00128e00       ?processTriangle@PCMConvexVsMeshContactGeneration@Gu@physx@@QEAA_NPEBV?$PxVec3T@M@3@IEPEBI@Z 0000000180129e00 f   GuPCMContactConvexCommon.obj
 0001:00129350       ?processTriangle@PCMConvexVsMeshContactGeneration@Gu@physx@@SA_NAEBUPolygonalData@23@PEAVSupportLocal@23@PEBV?$PxVec3T@M@3@IEAEBT__m128@@_NAEBVPxTransformV@aos@3@AEBVPxMatTransformV@93@PEAVMeshPersistentContact@23@AEAI@Z 000000018012a350 f   GuPCMContactConvexCommon.obj
 0001:001295d0       ??$gjkPenetration@U?$RelativeConvex@VConvexHullNoScaleV@Gu@physx@@@Gu@physx@@U?$LocalConvex@VConvexHullNoScaleV@Gu@physx@@@23@@Gu@physx@@YA?AW4GjkStatus@01@AEBU?$RelativeConvex@VConvexHullNoScaleV@Gu@physx@@@01@AEBU?$LocalConvex@VConvexHullNoScaleV@Gu@physx@@@01@AEBT__m128@@2_NPEIAE4AEAEAEAUGjkOutput@01@@Z 000000018012a5d0 f i GuPCMContactConvexConvex.obj
 0001:00129640       ??$gjkPenetration@U?$RelativeConvex@VConvexHullNoScaleV@Gu@physx@@@Gu@physx@@U?$LocalConvex@VConvexHullNoScaleV@Gu@physx@@@23@@Gu@physx@@YA?AW4GjkStatus@01@AEBU?$RelativeConvex@VConvexHullNoScaleV@Gu@physx@@@01@AEBU?$LocalConvex@VConvexHullNoScaleV@Gu@physx@@@01@AEBT__m128@@2_NPEIAE4PEIAT5@5AEAEAEAUGjkOutput@01@@Z 000000018012a640 f i GuPCMContactConvexConvex.obj
 0001:0012ab50       ??$gjkPenetration@U?$RelativeConvex@VConvexHullNoScaleV@Gu@physx@@@Gu@physx@@U?$LocalConvex@VConvexHullV@Gu@physx@@@23@@Gu@physx@@YA?AW4GjkStatus@01@AEBU?$RelativeConvex@VConvexHullNoScaleV@Gu@physx@@@01@AEBU?$LocalConvex@VConvexHullV@Gu@physx@@@01@AEBT__m128@@2_NPEIAE4AEAEAEAUGjkOutput@01@@Z 000000018012bb50 f i GuPCMContactConvexConvex.obj
 0001:0012abc0       ??$gjkPenetration@U?$RelativeConvex@VConvexHullNoScaleV@Gu@physx@@@Gu@physx@@U?$LocalConvex@VConvexHullV@Gu@physx@@@23@@Gu@physx@@YA?AW4GjkStatus@01@AEBU?$RelativeConvex@VConvexHullNoScaleV@Gu@physx@@@01@AEBU?$LocalConvex@VConvexHullV@Gu@physx@@@01@AEBT__m128@@2_NPEIAE4PEIAT5@5AEAEAEAUGjkOutput@01@@Z 000000018012bbc0 f i GuPCMContactConvexConvex.obj
 0001:0012c160       ??$gjkPenetration@U?$RelativeConvex@VConvexHullV@Gu@physx@@@Gu@physx@@U?$LocalConvex@VConvexHullNoScaleV@Gu@physx@@@23@@Gu@physx@@YA?AW4GjkStatus@01@AEBU?$RelativeConvex@VConvexHullV@Gu@physx@@@01@AEBU?$LocalConvex@VConvexHullNoScaleV@Gu@physx@@@01@AEBT__m128@@2_NPEIAE4AEAEAEAUGjkOutput@01@@Z 000000018012d160 f i GuPCMContactConvexConvex.obj
 0001:0012c1d0       ??$gjkPenetration@U?$RelativeConvex@VConvexHullV@Gu@physx@@@Gu@physx@@U?$LocalConvex@VConvexHullNoScaleV@Gu@physx@@@23@@Gu@physx@@YA?AW4GjkStatus@01@AEBU?$RelativeConvex@VConvexHullV@Gu@physx@@@01@AEBU?$LocalConvex@VConvexHullNoScaleV@Gu@physx@@@01@AEBT__m128@@2_NPEIAE4PEIAT5@5AEAEAEAUGjkOutput@01@@Z 000000018012d1d0 f i GuPCMContactConvexConvex.obj
 0001:0012e1f0       ?pcmContactConvexConvex@Gu@physx@@YA_NAEBVPxGeometry@2@0AEBV?$PxTransformT@M@2@1AEBUNarrowPhaseParams@12@AEAUCache@12@AEAVPxContactBuffer@2@PEAVPxRenderOutput@2@@Z 000000018012f1f0 f   GuPCMContactConvexConvex.obj
 0001:0012f310       ?support@?$RelativeConvex@VConvexHullNoScaleV@Gu@physx@@@Gu@physx@@UEBA?AT__m128@@AEBT4@@Z 0000000180130310 f i GuPCMContactConvexConvex.obj
 0001:0012f3c0       ?support@?$RelativeConvex@VConvexHullNoScaleV@Gu@physx@@@Gu@physx@@UEBA?AT__m128@@AEBT4@AEAH@Z 00000001801303c0 f i GuPCMContactConvexConvex.obj
 0001:0012f480       ?supportPoint@?$RelativeConvex@VConvexHullNoScaleV@Gu@physx@@@Gu@physx@@UEBA?AT__m128@@H@Z 0000000180130480 f i GuPCMContactConvexConvex.obj
 0001:0012f4e0       ?PCMContactConvexHeightfield@Gu@physx@@YA_NAEBUPolygonalData@12@PEAVSupportLocal@12@AEBT__m128@@AEBVPxBounds3@2@AEBVPxHeightFieldGeometry@2@AEBV?$PxTransformT@M@2@5MAEAVPxContactBuffer@2@AEBVFastVertex2ShapeScaling@Cm@2@_NAEAVMultiplePersistentContactManifold@12@PEAVPxRenderOutput@2@@Z 00000001801304e0 f   GuPCMContactConvexHeightField.obj
 0001:00130360       ?pcmContactBoxHeightField@Gu@physx@@YA_NAEBVPxGeometry@2@0AEBV?$PxTransformT@M@2@1AEBUNarrowPhaseParams@12@AEAUCache@12@AEAVPxContactBuffer@2@PEAVPxRenderOutput@2@@Z 0000000180131360 f   GuPCMContactConvexHeightField.obj
 0001:00130600       ?pcmContactConvexHeightField@Gu@physx@@YA_NAEBVPxGeometry@2@0AEBV?$PxTransformT@M@2@1AEBUNarrowPhaseParams@12@AEAUCache@12@AEAVPxContactBuffer@2@PEAVPxRenderOutput@2@@Z 0000000180131600 f   GuPCMContactConvexHeightField.obj
 0001:00130cc0       ?reportTouchedTris@?$PCMHeightfieldContactGenerationCallback@UPCMConvexVsHeightfieldContactGenerationCallback@physx@@@Gu@physx@@UEAA_NIPEBI@Z 0000000180131cc0 f i GuPCMContactConvexHeightField.obj
 0001:00131270       ??$processTriangleCache@$0BA@@PCMConvexVsMeshContactGenerationCallback@physx@@QEAAXAEAU?$TriangleCache@$0BA@@Gu@1@@Z 0000000180132270 f i GuPCMContactConvexMesh.obj
 0001:00131300       ??_EPCMConvexVsMeshContactGenerationCallback@physx@@UEAAPEAXI@Z 0000000180132300 f i GuPCMContactConvexMesh.obj
 0001:00131300       ??_GPCMConvexVsMeshContactGenerationCallback@physx@@UEAAPEAXI@Z 0000000180132300 f i GuPCMContactConvexMesh.obj
 0001:00131330       ?PCMContactConvexMesh@Gu@physx@@YA_NAEBUPolygonalData@12@PEAVSupportLocal@12@AEBT__m128@@AEBVPxBounds3@2@AEBVPxTriangleMeshGeometry@2@AEBV?$PxTransformT@M@2@5MAEAVPxContactBuffer@2@AEBVFastVertex2ShapeScaling@Cm@2@7_N8AEAVMultiplePersistentContactManifold@12@PEAVPxRenderOutput@2@@Z 0000000180132330 f   GuPCMContactConvexMesh.obj
 0001:00131e10       ?pcmContactBoxMesh@Gu@physx@@YA_NAEBVPxGeometry@2@0AEBV?$PxTransformT@M@2@1AEBUNarrowPhaseParams@12@AEAUCache@12@AEAVPxContactBuffer@2@PEAVPxRenderOutput@2@@Z 0000000180132e10 f   GuPCMContactConvexMesh.obj
 0001:00132150       ?pcmContactConvexMesh@Gu@physx@@YA_NAEBVPxGeometry@2@0AEBV?$PxTransformT@M@2@1AEBUNarrowPhaseParams@12@AEAUCache@12@AEAVPxContactBuffer@2@PEAVPxRenderOutput@2@@Z 0000000180133150 f   GuPCMContactConvexMesh.obj
 0001:00132920       ?processHit@?$PCMMeshContactGenerationCallback@UPCMConvexVsMeshContactGenerationCallback@physx@@@Gu@physx@@UEAA_NAEBUPxGeomRaycastHit@3@AEBV?$PxVec3T@M@3@11AEAMPEBI@Z 0000000180133920 f i GuPCMContactConvexMesh.obj
 0001:00132de0       ?addGJKEPAContacts@Gu@physx@@YA_NPEBUGjkConvex@12@0AEBVPxMatTransformV@aos@2@W4GjkStatus@12@PEAVPersistentContact@12@T__m128@@4AEAUGjkOutput@12@AEAVPersistentContactManifold@12@@Z 0000000180133de0 f   GuPCMContactGenBoxConvex.obj
 0001:00132fe0       ?buildPartialHull@Gu@physx@@YAXAEBUPolygonalData@12@PEAVSupportLocal@12@AEAVSeparatingAxes@12@AEBT__m128@@3@Z 0000000180133fe0 f   GuPCMContactGenBoxConvex.obj
 0001:001332c0       ?computeMTD@Gu@physx@@YA_NAEAUPolygonalData@12@0PEAVSupportLocal@12@1AEAT__m128@@2@Z 00000001801342c0 f   GuPCMContactGenBoxConvex.obj
 0001:001338e0       ?generateFullContactManifold@Gu@physx@@YA_NAEAUPolygonalData@12@0PEAVSupportLocal@12@1PEAVPersistentContact@12@AEAIAEBT__m128@@444MM_NPEAVPxRenderOutput@2@M@Z 00000001801348e0 f   GuPCMContactGenBoxConvex.obj
 0001:001343f0       ?generatedContacts@Gu@physx@@YAXAEAUPolygonalData@12@0AEBUHullPolygonData@12@1PEAVSupportLocal@12@2AEBVPxMatTransformV@aos@2@PEAVPersistentContact@12@AEAIAEBT__m128@@PEAVPxRenderOutput@2@@Z 00000001801353f0 f   GuPCMContactGenBoxConvex.obj
 0001:00135850       ?computeMTD@Gu@physx@@YA_NAEBVCapsuleV@12@AEAUPolygonalData@12@PEAVSupportLocal@12@AEAT__m128@@3@Z 0000000180136850 f   GuPCMContactGenSphereCapsule.obj
 0001:00135940       ?generateCapsuleBoxFullContactManifold@Gu@physx@@YA_NAEBVCapsuleV@12@AEAUPolygonalData@12@PEAVSupportLocal@12@AEBVPxMatTransformV@aos@2@PEAVPersistentContact@12@AEAIAEBT__m128@@AEAT9@6M_NMPEAVPxRenderOutput@2@@Z 0000000180136940 f   GuPCMContactGenSphereCapsule.obj
 0001:00135ae0       ?generateFullContactManifold@Gu@physx@@YA_NAEBVCapsuleV@12@AEAUPolygonalData@12@PEAVSupportLocal@12@AEBVPxMatTransformV@aos@2@PEAVPersistentContact@12@AEAIAEBT__m128@@AEAT9@6M_NM@Z 0000000180136ae0 f   GuPCMContactGenSphereCapsule.obj
 0001:00135cd0       ?generateSphereFullContactManifold@Gu@physx@@YA_NAEBVCapsuleV@12@AEAUPolygonalData@12@PEAVSupportLocal@12@PEAVPersistentContact@12@AEAIAEBT__m128@@AEAT7@_N@Z 0000000180136cd0 f   GuPCMContactGenSphereCapsule.obj
 0001:001371a0       ?pcmContactPlaneBox@Gu@physx@@YA_NAEBVPxGeometry@2@0AEBV?$PxTransformT@M@2@1AEBUNarrowPhaseParams@12@AEAUCache@12@AEAVPxContactBuffer@2@PEAVPxRenderOutput@2@@Z 00000001801381a0 f   GuPCMContactPlaneBox.obj
 0001:00137d70       ?pcmContactPlaneCapsule@Gu@physx@@YA_NAEBVPxGeometry@2@0AEBV?$PxTransformT@M@2@1AEBUNarrowPhaseParams@12@AEAUCache@12@AEAVPxContactBuffer@2@PEAVPxRenderOutput@2@@Z 0000000180138d70 f   GuPCMContactPlaneCapsule.obj
 0001:001384e0       ?pcmContactPlaneConvex@Gu@physx@@YA_NAEBVPxGeometry@2@0AEBV?$PxTransformT@M@2@1AEBUNarrowPhaseParams@12@AEAUCache@12@AEAVPxContactBuffer@2@PEAVPxRenderOutput@2@@Z 00000001801394e0 f   GuPCMContactPlaneConvex.obj
 0001:00139150       ?pcmContactSphereBox@Gu@physx@@YA_NAEBVPxGeometry@2@0AEBV?$PxTransformT@M@2@1AEBUNarrowPhaseParams@12@AEAUCache@12@AEAVPxContactBuffer@2@PEAVPxRenderOutput@2@@Z 000000018013a150 f   GuPCMContactSphereBox.obj
 0001:001395b0       ?pcmContactSphereCapsule@Gu@physx@@YA_NAEBVPxGeometry@2@0AEBV?$PxTransformT@M@2@1AEBUNarrowPhaseParams@12@AEAUCache@12@AEAVPxContactBuffer@2@PEAVPxRenderOutput@2@@Z 000000018013a5b0 f   GuPCMContactSphereCapsule.obj
 0001:00139a20       ?pcmContactSphereConvex@Gu@physx@@YA_NAEBVPxGeometry@2@0AEBV?$PxTransformT@M@2@1AEBUNarrowPhaseParams@12@AEAUCache@12@AEAVPxContactBuffer@2@PEAVPxRenderOutput@2@@Z 000000018013aa20 f   GuPCMContactSphereConvex.obj
 0001:0013a6e0       ??1?$PxArray@USortedTriangle@Gu@physx@@V?$PxInlineAllocator@$0IAA@V?$PxReflectionAllocator@USortedTriangle@Gu@physx@@@physx@@@3@@physx@@QEAA@XZ 000000018013b6e0 f i GuPCMContactSphereHeightField.obj
 0001:0013a750       ??_EPCMSphereVsHeightfieldContactGenerationCallback@physx@@UEAAPEAXI@Z 000000018013b750 f i GuPCMContactSphereHeightField.obj
 0001:0013a750       ??_GPCMSphereVsHeightfieldContactGenerationCallback@physx@@UEAAPEAXI@Z 000000018013b750 f i GuPCMContactSphereHeightField.obj
 0001:0013a7a0       ?pcmContactSphereHeightField@Gu@physx@@YA_NAEBVPxGeometry@2@0AEBV?$PxTransformT@M@2@1AEBUNarrowPhaseParams@12@AEAUCache@12@AEAVPxContactBuffer@2@PEAVPxRenderOutput@2@@Z 000000018013b7a0 f   GuPCMContactSphereHeightField.obj
 0001:0013b250       ?reportTouchedTris@?$PCMHeightfieldContactGenerationCallback@UPCMSphereVsHeightfieldContactGenerationCallback@physx@@@Gu@physx@@UEAA_NIPEBI@Z 000000018013c250 f i GuPCMContactSphereHeightField.obj
 0001:0013b800       ??$PxSort@USortedTriangle@Gu@physx@@U?$PxLess@USortedTriangle@Gu@physx@@@3@V?$PxReflectionAllocator@USortedTriangle@Gu@physx@@@3@@physx@@YAXPEAUSortedTriangle@Gu@0@IAEBU?$PxLess@USortedTriangle@Gu@physx@@@0@AEBV?$PxReflectionAllocator@USortedTriangle@Gu@physx@@@0@I@Z 000000018013c800 f i GuPCMContactSphereMesh.obj
 0001:0013bd30       ??$processTriangleCache@$0BA@VPCMSphereVsMeshContactGeneration@Gu@physx@@@PCMMeshContactGeneration@Gu@physx@@QEAA_NAEAU?$TriangleCache@$0BA@@12@@Z 000000018013cd30 f i GuPCMContactSphereMesh.obj
 0001:0013c200       ?addToPatch@PCMSphereVsMeshContactGeneration@Gu@physx@@QEAAXAEBT__m128@@0T4@I@Z 000000018013d200 f   GuPCMContactSphereMesh.obj
 0001:0013c8c0       ?allocate@?$PxArray@IV?$PxInlineAllocator@$0PAA@V?$PxReflectionAllocator@I@physx@@@physx@@@physx@@IEAAPEAII@Z 000000018013d8c0 f i GuPCMContactSphereMesh.obj
 0001:0013c980       ?allocate@?$PxArray@USortedTriangle@Gu@physx@@V?$PxInlineAllocator@$0IAA@V?$PxReflectionAllocator@USortedTriangle@Gu@physx@@@physx@@@3@@physx@@IEAAPEAUSortedTriangle@Gu@2@I@Z 000000018013d980 f i GuPCMContactSphereMesh.obj
 0001:0013ca40       ?generateLastContacts@PCMSphereVsMeshContactGeneration@Gu@physx@@QEAAXXZ 000000018013da40 f   GuPCMContactSphereMesh.obj
 0001:0013d070       ?growAndPushBack@?$PxArray@USortedTriangle@Gu@physx@@V?$PxInlineAllocator@$0IAA@V?$PxReflectionAllocator@USortedTriangle@Gu@physx@@@physx@@@3@@physx@@IEAAAEAUSortedTriangle@Gu@2@AEBU342@@Z 000000018013e070 f i GuPCMContactSphereMesh.obj
 0001:0013d180       ?pcmContactSphereMesh@Gu@physx@@YA_NAEBVPxGeometry@2@0AEBV?$PxTransformT@M@2@1AEBUNarrowPhaseParams@12@AEAUCache@12@AEAVPxContactBuffer@2@PEAVPxRenderOutput@2@@Z 000000018013e180 f   GuPCMContactSphereMesh.obj
 0001:0013e6d0       ?processTriangle@PCMSphereVsMeshContactGeneration@Gu@physx@@QEAA_NPEBV?$PxVec3T@M@3@IEPEBI@Z 000000018013f6d0 f   GuPCMContactSphereMesh.obj
 0001:0013eac0       ?recreate@?$PxArray@IV?$PxInlineAllocator@$0PAA@V?$PxReflectionAllocator@I@physx@@@physx@@@physx@@IEAAXI@Z 000000018013fac0 f i GuPCMContactSphereMesh.obj
 0001:0013eb70       ?pcmContactSpherePlane@Gu@physx@@YA_NAEBVPxGeometry@2@0AEBV?$PxTransformT@M@2@1AEBUNarrowPhaseParams@12@AEAUCache@12@AEAVPxContactBuffer@2@PEAVPxRenderOutput@2@@Z 000000018013fb70 f   GuPCMContactSpherePlane.obj
 0001:0013ecf0       ?pcmContactSphereSphere@Gu@physx@@YA_NAEBVPxGeometry@2@0AEBV?$PxTransformT@M@2@1AEBUNarrowPhaseParams@12@AEAUCache@12@AEAVPxContactBuffer@2@PEAVPxRenderOutput@2@@Z 000000018013fcf0 f   GuPCMContactSphereSphere.obj
 0001:0013f5c0       ?pcmContactGeometryCustomGeometry@Gu@physx@@YA_NAEBVPxGeometry@2@0AEBV?$PxTransformT@M@2@1AEBUNarrowPhaseParams@12@AEAUCache@12@AEAVPxContactBuffer@2@PEAVPxRenderOutput@2@@Z 00000001801405c0 f   GuPCMContactCustomGeometry.obj
 0001:0013f670       ?getPCMConvexData@Gu@physx@@YAXAEBVConvexHullV@12@_NAEAUPolygonalData@12@@Z 0000000180140670 f   GuPCMShapeConvex.obj
 0001:0013f6b0       ?getPCMConvexData@Gu@physx@@YA_NAEBVPxConvexMeshGeometry@2@AEAVFastVertex2ShapeScaling@Cm@2@AEAVPxBounds3@2@AEAUPolygonalData@12@@Z 00000001801406b0 f   GuPCMShapeConvex.obj
 0001:0013fc10       ?getPolygonalData@PCMPolygonalBox@Gu@physx@@QEBAXPEIAUPolygonalData@23@@Z 0000000180140c10 f   GuPCMShapeConvex.obj
 0001:0013fc90       ?generatePolyDataContactManifold@PCMConvexVsMeshContactGeneration@Gu@physx@@QEAA_NAEAVTriangleV@23@IIEPEAVMeshPersistentContact@23@AEAIAEBT__m128@@AEAT6@@Z 0000000180140c90 f   GuPCMTriangleContactGen.obj
 0001:0013fdb0       ?generateTriangleFullContactManifold@PCMConvexVsMeshContactGeneration@Gu@physx@@QEAA_NAEAVTriangleV@23@IPEBIEAEBUPolygonalData@23@PEAV?$SupportLocalImpl@VTriangleV@Gu@physx@@@23@PEAVSupportLocal@23@PEAVMeshPersistentContact@23@AEAIAEBT__m128@@AEAT9@@Z 0000000180140db0 f   GuPCMTriangleContactGen.obj
 0001:001402e0       ?generateTriangleFullContactManifold@PCMConvexVsMeshContactGeneration@Gu@physx@@SA_NAEAVTriangleV@23@IEAEBUPolygonalData@23@PEAV?$SupportLocalImpl@VTriangleV@Gu@physx@@@23@PEAVSupportLocal@23@PEAVMeshPersistentContact@23@AEAIAEBT__m128@@AEAT9@PEAVPxRenderOutput@3@@Z 00000001801412e0 f   GuPCMTriangleContactGen.obj
 0001:00142360       ?addBatchManifoldContacts2@PersistentContactManifold@Gu@physx@@QEAAXPEBVPersistentContact@23@I@Z 0000000180143360 f   GuPersistentContactManifold.obj
 0001:001423d0       ?addBatchManifoldContacts@PersistentContactManifold@Gu@physx@@QEAAXPEBVPersistentContact@23@IM@Z 00000001801433d0 f   GuPersistentContactManifold.obj
 0001:00142450       ?addBatchManifoldContactsCluster@PersistentContactManifold@Gu@physx@@QEAAXPEBVPersistentContact@23@I@Z 0000000180143450 f   GuPersistentContactManifold.obj
 0001:001426d0       ?addManifoldContactPoints@MultiplePersistentContactManifold@Gu@physx@@QEAAXPEAVMeshPersistentContact@23@IPEAPEAUPCMContactPatch@23@IAEBT__m128@@2E@Z 00000001801436d0 f   GuPersistentContactManifold.obj
 0001:00142ac0       ?addManifoldContactsToContactBuffer@MultiplePersistentContactManifold@Gu@physx@@QEAA_NAEAVPxContactBuffer@3@AEBVPxTransformV@aos@3@1AEBT__m128@@@Z 0000000180143ac0 f   GuPersistentContactManifold.obj
 0001:00142d70       ?addManifoldContactsToContactBuffer@MultiplePersistentContactManifold@Gu@physx@@QEAA_NAEAVPxContactBuffer@3@AEBVPxTransformV@aos@3@@Z 0000000180143d70 f   GuPersistentContactManifold.obj
 0001:00142ff0       ?addManifoldContactsToContactBuffer@PersistentContactManifold@Gu@physx@@QEAAXAEAVPxContactBuffer@3@AEBT__m128@@1AEBVPxTransformV@aos@3@11@Z 0000000180143ff0 f   GuPersistentContactManifold.obj
 0001:00143180       ?addManifoldContactsToContactBuffer@PersistentContactManifold@Gu@physx@@QEAAXAEAVPxContactBuffer@3@AEBT__m128@@AEBVPxMatTransformV@aos@3@@Z 0000000180144180 f   GuPersistentContactManifold.obj
 0001:00143230       ?addManifoldContactsToContactBuffer@PersistentContactManifold@Gu@physx@@QEAAXAEAVPxContactBuffer@3@AEBT__m128@@AEBVPxTransformV@aos@3@1@Z 0000000180144230 f   GuPersistentContactManifold.obj
 0001:00143390       ?addManifoldPoint2@PersistentContactManifold@Gu@physx@@QEAAIAEBT__m128@@000@Z 0000000180144390 f   GuPersistentContactManifold.obj
 0001:001434c0       ?addManifoldPoint@Gu@physx@@YAXPEAVPersistentContact@12@AEAVPersistentContactManifold@12@AEAUGjkOutput@12@AEBVPxMatTransformV@aos@2@T__m128@@@Z 00000001801444c0 f   GuPersistentContactManifold.obj
 0001:00143670       ?addManifoldPoint@PersistentContactManifold@Gu@physx@@QEAAIAEBT__m128@@000@Z 0000000180144670 f   GuPersistentContactManifold.obj
 0001:00143ab0       ?drawLine@MultiplePersistentContactManifold@Gu@physx@@SAXAEAVPxRenderOutput@3@AEBT__m128@@1I@Z 0000000180144ab0 f   GuPersistentContactManifold.obj
 0001:00143b60       ?drawLine@MultiplePersistentContactManifold@Gu@physx@@SAXAEAVPxRenderOutput@3@V?$PxVec3T@M@3@1I@Z 0000000180144b60 f   GuPersistentContactManifold.obj
 0001:00143bd0       ?drawManifold@MultiplePersistentContactManifold@Gu@physx@@QEAAXAEAVPxRenderOutput@3@AEBVPxTransformV@aos@3@1@Z 0000000180144bd0 f   GuPersistentContactManifold.obj
 0001:00143c50       ?drawManifold@SinglePersistentContactManifold@Gu@physx@@QEAAXAEAVPxRenderOutput@3@AEBVPxTransformV@aos@3@1@Z 0000000180144c50 f   GuPersistentContactManifold.obj
 0001:00144280       ?drawPoint@MultiplePersistentContactManifold@Gu@physx@@SAXAEAVPxRenderOutput@3@AEBT__m128@@MI@Z 0000000180145280 f   GuPersistentContactManifold.obj
 0001:00144490       ?drawPolygon@MultiplePersistentContactManifold@Gu@physx@@SAXAEAVPxRenderOutput@3@AEBVPxTransformV@aos@3@PEAT__m128@@II@Z 0000000180145490 f   GuPersistentContactManifold.obj
 0001:00144710       ?findRotationMatrixFromZAxis@Gu@physx@@YA?AUMat33V@aos@2@AEBT__m128@@@Z 0000000180145710 f   GuPersistentContactManifold.obj
 0001:00144990       ?fromBuffer@MultiplePersistentContactManifold@Gu@physx@@QEAAXPEIAE@Z 0000000180145990 f   GuPersistentContactManifold.obj
 0001:00144ae0       ?reduceBatchContacts2@PersistentContactManifold@Gu@physx@@QEAAXPEBVPersistentContact@23@I@Z 0000000180145ae0 f   GuPersistentContactManifold.obj
 0001:00144ce0       ?reduceBatchContacts@PersistentContactManifold@Gu@physx@@QEAAXPEBVPersistentContact@23@IM@Z 0000000180145ce0 f   GuPersistentContactManifold.obj
 0001:001451a0       ?reduceBatchContactsCapsule@SinglePersistentContactManifold@Gu@physx@@QEAA?AT__m128@@PEBVMeshPersistentContact@23@IAEAUPCMContactPatch@23@@Z 00000001801461a0 f   GuPersistentContactManifold.obj
 0001:00145430       ?reduceBatchContactsCluster@PersistentContactManifold@Gu@physx@@QEAAXPEBVPersistentContact@23@I@Z 0000000180146430 f   GuPersistentContactManifold.obj
 0001:001458c0       ?reduceBatchContactsConvex@SinglePersistentContactManifold@Gu@physx@@QEAA?AT__m128@@PEBVMeshPersistentContact@23@IAEAUPCMContactPatch@23@@Z 00000001801468c0 f   GuPersistentContactManifold.obj
 0001:00145eb0       ?reduceContacts@SinglePersistentContactManifold@Gu@physx@@SAIPEAVMeshPersistentContact@23@I@Z 0000000180146eb0 f   GuPersistentContactManifold.obj
 0001:00146430       ?reduceContactsForPCM@PersistentContactManifold@Gu@physx@@QEAAIAEBT__m128@@00@Z 0000000180147430 f   GuPersistentContactManifold.obj
 0001:001469d0       ?refreshContactPoints@SinglePersistentContactManifold@Gu@physx@@QEAA?AT__m128@@AEBVPxMatTransformV@aos@3@AEBT4@1@Z 00000001801479d0 f   GuPersistentContactManifold.obj
 0001:00146b20       ?replaceManifoldPoint@PersistentContactManifold@Gu@physx@@QEAA_NAEBT__m128@@000@Z 0000000180147b20 f   GuPersistentContactManifold.obj
 0001:00146be0       ?contains@Gu@physx@@YA_NPEAT__m128@@IAEBT3@11@Z 0000000180147be0 f   GuPCMContactGenUtil.obj
 0001:00146da0       ?getPolygonIndex@Gu@physx@@YAHAEBUPolygonalData@12@PEAVSupportLocal@12@AEBT__m128@@AEAH@Z 0000000180147da0 f   GuPCMContactGenUtil.obj
 0001:00146ff0       ?getWitnessPolygonIndex@Gu@physx@@YAIAEBUPolygonalData@12@PEAVSupportLocal@12@AEBT__m128@@2M@Z 0000000180147ff0 f   GuPCMContactGenUtil.obj
 0001:00147540       ?sweepBoxBox@Gu@physx@@YA_NAEBVBox@12@0AEBV?$PxVec3T@M@2@MV?$PxFlags@W4Enum@PxHitFlag@physx@@G@2@AEAUPxGeomSweepHit@2@@Z 0000000180148540 f   GuSweepBoxBox.obj
 0001:00148b80       ?sweepBoxSphere@Gu@physx@@YA_NAEBVBox@12@MAEBV?$PxVec3T@M@2@1MAEAMAEAV42@V?$PxFlags@W4Enum@PxHitFlag@physx@@G@2@@Z 0000000180149b80 f   GuSweepBoxSphere.obj
 0001:00149840       ?sweepBoxTriangle@Gu@physx@@YA_NAEBVPxTriangle@2@AEBVPxBounds3@2@AEBV?$PxVec3T@M@2@2AEAV52@3AEAM_N@Z 000000018014a840 f   GuSweepBoxTriangle_FeatureBased.obj
 0001:0014af60       ?triBoxSweepTestBoxSpace@Gu@physx@@YAHAEBVPxTriangle@2@AEBV?$PxVec3T@M@2@11MAEAM_N@Z 000000018014bf60 f   GuSweepBoxTriangle_SAT.obj
 0001:0014c860       ?sweepCapsuleBox@Gu@physx@@YA_NAEBVCapsule@12@AEBV?$PxTransformT@M@2@AEBV?$PxVec3T@M@2@2MAEAV52@AEAM3V?$PxFlags@W4Enum@PxHitFlag@physx@@G@2@@Z 000000018014d860 f   GuSweepCapsuleBox.obj
 0001:0014cbc0       ?distancePointSegmentSquared@Gu@physx@@YAMAEBVSegment@12@AEBV?$PxVec3T@M@2@PEAM@Z 000000018014dbc0 f i GuSweepCapsuleCapsule.obj
 0001:0014cf40       ?sweepCapsuleCapsule@Gu@physx@@YA_NAEBVCapsule@12@0AEBV?$PxVec3T@M@2@MAEAMAEAV42@3IAEAG@Z 000000018014df40 f   GuSweepCapsuleCapsule.obj
 0001:0014dd50       ?sweepCapsuleTriangles_Precise@Gu@physx@@YA_NIPEIBVPxTriangle@2@AEBVCapsule@12@AEBV?$PxVec3T@M@2@MPEIBIAEAUPxGeomSweepHit@2@AEAV52@V?$PxFlags@W4Enum@PxHitFlag@physx@@G@2@_NPEBVBoxPadded@12@@Z 000000018014ed50 f   GuSweepCapsuleTriangle.obj
 0001:0014ff60       ?sweepSphereCapsule@Gu@physx@@YA_NAEBVSphere@12@AEBVCapsule@12@AEBV?$PxVec3T@M@2@MAEAMAEAV52@4V?$PxFlags@W4Enum@PxHitFlag@physx@@G@2@@Z 0000000180150f60 f   GuSweepSphereCapsule.obj
 0001:00150600       ?sweepSphereSphere@Gu@physx@@YA_NAEBV?$PxVec3T@M@2@M0M0AEAMAEAV32@@Z 0000000180151600 f   GuSweepSphereSphere.obj
 0001:00150870       ?sweepSphereTriangles@Gu@physx@@YA_NIPEIBVPxTriangle@2@AEBV?$PxVec3T@M@2@M1MPEIBIAEAUPxGeomSweepHit@2@AEAV42@_N555@Z 0000000180151870 f   GuSweepSphereTriangle.obj
 0001:00151140       ?sweepSphereVSQuad@Gu@physx@@YA_NPEIBV?$PxVec3T@M@2@AEBV32@1M1AEAM@Z 0000000180152140 f   GuSweepSphereTriangle.obj
 0001:00152120       ?sweepSphereVSTri@Gu@physx@@YA_NPEIBV?$PxVec3T@M@2@AEBV32@1M1AEAMAEA_N_N@Z 0000000180153120 f   GuSweepSphereTriangle.obj
 0001:00152e40       ??$gjk@U?$LocalConvex@VTriangleV@Gu@physx@@@Gu@physx@@U?$LocalConvex@VBoxV@Gu@physx@@@23@@Gu@physx@@YA?AW4GjkStatus@01@AEBU?$LocalConvex@VTriangleV@Gu@physx@@@01@AEBU?$LocalConvex@VBoxV@Gu@physx@@@01@AEBT__m128@@2AEAT5@333@Z 0000000180153e40 f i GuSweepTriangleUtils.obj
 0001:00153b20       ?computeBoxTriImpactData@Gu@physx@@YAXAEAV?$PxVec3T@M@2@0AEBV32@1AEBVPxTriangle@2@M@Z 0000000180154b20 f   GuSweepTriangleUtils.obj
 0001:00153db0       ?computeEdgeEdgeNormal@Gu@physx@@YAXAEAV?$PxVec3T@M@2@AEBV32@1111M@Z 0000000180154db0 f   GuSweepTriangleUtils.obj
 0001:00154070       ?computeSphereTriImpactData@Gu@physx@@YAXAEAV?$PxVec3T@M@2@0AEBV32@1MAEBVPxTriangle@2@@Z 0000000180155070 f   GuSweepTriangleUtils.obj
 0001:00154550       ??0ShapeData@Gu@physx@@QEAA@AEBVPxGeometry@2@AEBV?$PxTransformT@M@2@M@Z 0000000180155550 f   GuBounds.obj
 0001:00154ac0       ?computeBounds@Gu@physx@@YAXAEAVPxBounds3@2@AEBVPxGeometry@2@AEBV?$PxTransformT@M@2@MM@Z 0000000180155ac0 f   GuBounds.obj
 0001:00155790       ?computeBoundsAroundVertices@Gu@physx@@YAXAEAVPxBounds3@2@IPEIBV?$PxVec3T@M@2@@Z 0000000180156790 f   GuBounds.obj
 0001:00155840       ?computeGlobalBox@Gu@physx@@YAXAEAVPxBounds3@2@IPEIBV32@PEIBI@Z 0000000180156840 f   GuBounds.obj
 0001:001558d0       ?computeLocalBoundsAndGeomEpsilon@Gu@physx@@YAXPEBV?$PxVec3T@M@2@IAEAVPxBounds3@2@AEAM@Z 00000001801568d0 f   GuBounds.obj
 0001:00156b00       ??$?_UV?$PxReflectionAllocator@UBVHNode@Gu@physx@@@physx@@@PxUserAllocated@physx@@SAPEAX_KV?$PxReflectionAllocator@UBVHNode@Gu@physx@@@1@PEBDH@Z 0000000180157b00 f i GuAABBTree.obj
 0001:00156ba0       ??$?_UV?$PxReflectionAllocator@VAABBTreeBuildNode@Gu@physx@@@physx@@@PxUserAllocated@physx@@SAPEAX_KV?$PxReflectionAllocator@VAABBTreeBuildNode@Gu@physx@@@1@PEBDH@Z 0000000180157ba0 f i GuAABBTree.obj
 0001:00156dd0       ??0AABBTree@Gu@physx@@QEAA@XZ 0000000180157dd0 f   GuAABBTree.obj
 0001:00156e00       ??0BVHPartialRefitData@Gu@physx@@QEAA@XZ 0000000180157e00 f   GuAABBTree.obj
 0001:00156e30       ??0NodeAllocator@Gu@physx@@QEAA@XZ 0000000180157e30 f   GuAABBTree.obj
 0001:00156e50       ??1AABBTree@Gu@physx@@QEAA@XZ 0000000180157e50 f   GuAABBTree.obj
 0001:00156e70       ??1BVHPartialRefitData@Gu@physx@@QEAA@XZ 0000000180157e70 f   GuAABBTree.obj
 0001:00156f10       ??1NodeAllocator@Gu@physx@@QEAA@XZ 0000000180157f10 f   GuAABBTree.obj
 0001:00156f60       ?_buildHierarchy@AABBTreeBuildNode@Gu@physx@@QEAAXAEBVAABBTreeBuildParams@23@AEAUBuildStats@23@AEAVNodeAllocator@23@QEAI@Z 0000000180157f60 f   GuAABBTree.obj
 0001:00156ff0       ?_buildHierarchySAH@AABBTreeBuildNode@Gu@physx@@QEAAXAEBVAABBTreeBuildParams@23@AEAUSAH_Buffers@23@AEAUBuildStats@23@AEAVNodeAllocator@23@QEAI@Z 0000000180157ff0 f   GuAABBTree.obj
 0001:001570a0       ?addRuntimeChilds@AABBTree@Gu@physx@@AEAAXAEAIAEBVAABBTreeMergeData@23@@Z 00000001801580a0 f   GuAABBTree.obj
 0001:001571a0       ?build@AABBTree@Gu@physx@@QEAA_NAEBVAABBTreeBuildParams@23@AEAVNodeAllocator@23@@Z 00000001801581a0 f   GuAABBTree.obj
 0001:001573c0       ?buildAABBTree@Gu@physx@@YAPEAIAEBVAABBTreeBuildParams@12@AEAVNodeAllocator@12@AEAUBuildStats@12@@Z 00000001801583c0 f   GuAABBTree.obj
 0001:00157460       ?buildAABBTree@Gu@physx@@YAXIAEBVAABBTreeBounds@12@AEAV?$PxArray@UBVHNode@Gu@physx@@V?$PxReflectionAllocator@UBVHNode@Gu@physx@@@3@@2@@Z 0000000180158460 f   GuAABBTree.obj
 0001:00157830       ?buildEnd@AABBTree@Gu@physx@@AEAAXAEBVAABBTreeBuildParams@23@AEAVNodeAllocator@23@AEBUBuildStats@23@@Z 0000000180158830 f   GuAABBTree.obj
 0001:00157a10       ?createUpdateMap@BVHPartialRefitData@Gu@physx@@QEAAXI@Z 0000000180158a10 f   GuAABBTree.obj
 0001:00157b30       ?flattenTree@Gu@physx@@YAXAEBVNodeAllocator@12@PEAUBVHNode@12@PEBI@Z 0000000180158b30 f   GuAABBTree.obj
 0001:00157d20       ?fullRefit@BVHCoreData@Gu@physx@@QEAAXPEBVPxBounds3@3@@Z 0000000180158d20 f   GuAABBTree.obj
 0001:00157ee0       ?getBiNode@NodeAllocator@Gu@physx@@QEAAPEAVAABBTreeBuildNode@23@XZ 0000000180158ee0 f   GuAABBTree.obj
 0001:00158010       ?getParentIndices@BVHPartialRefitData@Gu@physx@@IEAAPEAIXZ 0000000180159010 f   GuAABBTree.obj
 0001:001580a0       ?growAndPushBack@?$PxArray@PEAVAABBTreeBuildNode@Gu@physx@@V?$PxReflectionAllocator@PEAVAABBTreeBuildNode@Gu@physx@@@3@@physx@@IEAAAEAPEAVAABBTreeBuildNode@Gu@2@AEBQEAV342@@Z 00000001801590a0 f i GuAABBTree.obj
 0001:001581c0       ?growAndPushBack@?$PxArray@USlab@NodeAllocator@Gu@physx@@V?$PxReflectionAllocator@USlab@NodeAllocator@Gu@physx@@@4@@physx@@IEAAAEAUSlab@NodeAllocator@Gu@2@AEBU3452@@Z 00000001801591c0 f i GuAABBTree.obj
 0001:00158280       ?init@AABBTreeBounds@Gu@physx@@QEAAXIPEBVPxBounds3@3@@Z 0000000180159280 f   GuAABBTree.obj
 0001:00158340       ?init@NodeAllocator@Gu@physx@@QEAAXII@Z 0000000180159340 f   GuAABBTree.obj
 0001:00158630       ?initTree@AABBTree@Gu@physx@@QEAAXAEBVAABBTreeMergeData@23@@Z 0000000180159630 f   GuAABBTree.obj
 0001:00158720       ?markNodeForRefit@BVHPartialRefitData@Gu@physx@@QEAAXI@Z 0000000180159720 f   GuAABBTree.obj
 0001:00158830       ?mergeRuntimeLeaf@AABBTree@Gu@physx@@AEAAXAEAUBVHNode@23@AEBVAABBTreeMergeData@23@I@Z 0000000180159830 f   GuAABBTree.obj
 0001:00158a30       ?mergeRuntimeNode@AABBTree@Gu@physx@@AEAAXAEAUBVHNode@23@AEBVAABBTreeMergeData@23@I@Z 0000000180159a30 f   GuAABBTree.obj
 0001:00158d10       ?mergeTree@AABBTree@Gu@physx@@QEAAXAEBVAABBTreeMergeData@23@@Z 0000000180159d10 f   GuAABBTree.obj
 0001:00158ff0       ?progressiveBuild@AABBTree@Gu@physx@@QEAAIAEBVAABBTreeBuildParams@23@AEAVNodeAllocator@23@AEAUBuildStats@23@II@Z 0000000180159ff0 f   GuAABBTree.obj
 0001:001592a0       ?recreate@?$PxArray@UBVHNode@Gu@physx@@V?$PxReflectionAllocator@UBVHNode@Gu@physx@@@3@@physx@@IEAAXI@Z 000000018015a2a0 f i GuAABBTree.obj
 0001:001594f0       ?refitMarkedNodes@BVHPartialRefitData@Gu@physx@@QEAAXPEBVPxBounds3@3@@Z 000000018015a4f0 f   GuAABBTree.obj
 0001:00159660       ?release@AABBTree@Gu@physx@@QEAAX_N@Z 000000018015a660 f   GuAABBTree.obj
 0001:00159740       ?release@AABBTreeBounds@Gu@physx@@QEAAXXZ 000000018015a740 f   GuAABBTree.obj
 0001:00159790       ?release@NodeAllocator@Gu@physx@@QEAAXXZ 000000018015a790 f   GuAABBTree.obj
 0001:00159840       ?releasePartialRefitData@BVHPartialRefitData@Gu@physx@@QEAAX_N@Z 000000018015a840 f   GuAABBTree.obj
 0001:001598d0       ?reshuffle@Gu@physx@@YAIIQEIAIPEIBV?$PxVec3T@M@2@MI@Z 000000018015a8d0 f   GuAABBTree.obj
 0001:00159a10       ?resize@?$PxArray@UBVHNode@Gu@physx@@V?$PxReflectionAllocator@UBVHNode@Gu@physx@@@3@@physx@@QEAAXIAEBUBVHNode@Gu@2@@Z 000000018015aa10 f i GuAABBTree.obj
 0001:00159b90       ?resize@?$PxArray@USlab@NodeAllocator@Gu@physx@@V?$PxReflectionAllocator@USlab@NodeAllocator@Gu@physx@@@4@@physx@@QEAAXIAEBUSlab@NodeAllocator@Gu@2@@Z 000000018015ab90 f i GuAABBTree.obj
 0001:00159c10       ?resize@AABBTreeBounds@Gu@physx@@QEAAXII@Z 000000018015ac10 f   GuAABBTree.obj
 0001:00159cb0       ?shiftIndices@AABBTree@Gu@physx@@QEAAXI@Z 000000018015acb0 f   GuAABBTree.obj
 0001:00159cd0       ?shiftOrigin@AABBTree@Gu@physx@@QEAAXAEBV?$PxVec3T@M@3@@Z 000000018015acd0 f   GuAABBTree.obj
 0001:0015a040       ?subdivide@AABBTreeBuildNode@Gu@physx@@QEAAXAEBVAABBTreeBuildParams@23@AEAUBuildStats@23@AEAVNodeAllocator@23@QEAI@Z 000000018015b040 f   GuAABBTree.obj
 0001:0015a240       ?subdivideSAH@AABBTreeBuildNode@Gu@physx@@QEAAXAEBVAABBTreeBuildParams@23@AEAUSAH_Buffers@23@AEAUBuildStats@23@AEAVNodeAllocator@23@QEAI@Z 000000018015b240 f   GuAABBTree.obj
 0001:0015a330       ?traverseRuntimeNode@AABBTree@Gu@physx@@AEAAXAEAUBVHNode@23@AEBVAABBTreeMergeData@23@I@Z 000000018015b330 f   GuAABBTree.obj
 0001:0015a470       ?initMap@AABBTreeUpdateMap@Gu@physx@@QEAAXIAEBVAABBTree@23@@Z 000000018015b470 f   GuAABBTreeUpdateMap.obj
 0001:0015a600       ?invalidate@AABBTreeUpdateMap@Gu@physx@@QEAAXIIAEAVAABBTree@23@@Z 000000018015b600 f   GuAABBTreeUpdateMap.obj
 0001:0015a8a0       ?visualizeTree@@YAXAEAVPxRenderOutput@physx@@IPEBVAABBTree@Gu@2@@Z 000000018015b8a0 f   GuSqInternal.obj
 0001:0015a910       ?visualizeTree@@YAXAEAVPxRenderOutput@physx@@IPEBVBVH@Gu@2@@Z 000000018015b910 f   GuSqInternal.obj
 0001:0015a980       ?visualizeTree@@YAXAEAVPxRenderOutput@physx@@IPEBVIncrementalAABBTree@Gu@2@PEAVDebugVizCallback@2@@Z 000000018015b980 f   GuSqInternal.obj
 0001:0015aa00       ??$PxSort@PEAXU?$PxLess@PEAX@physx@@V?$PxReflectionAllocator@UAABBTreeIndices@Gu@physx@@@2@@physx@@YAXPEAPEAXIAEBU?$PxLess@PEAX@0@AEBV?$PxReflectionAllocator@UAABBTreeIndices@Gu@physx@@@0@I@Z 000000018015ba00 f i GuIncrementalAABBTree.obj
 0001:0015ae70       ??$PxSort@PEAXU?$PxLess@PEAX@physx@@V?$PxReflectionAllocator@UIncrementalAABBTreeNodePair@Gu@physx@@@2@@physx@@YAXPEAPEAXIAEBU?$PxLess@PEAX@0@AEBV?$PxReflectionAllocator@UIncrementalAABBTreeNodePair@Gu@physx@@@0@I@Z 000000018015be70 f i GuIncrementalAABBTree.obj
 0001:0015b2e0       ??0IncrementalAABBTree@Gu@physx@@QEAA@XZ 000000018015c2e0 f   GuIncrementalAABBTree.obj
 0001:0015b360       ??1?$PxPoolBase@UAABBTreeIndices@Gu@physx@@V?$PxReflectionAllocator@UAABBTreeIndices@Gu@physx@@@3@@physx@@QEAA@XZ 000000018015c360 f i GuIncrementalAABBTree.obj
 0001:0015b4c0       ??1?$PxPoolBase@UIncrementalAABBTreeNodePair@Gu@physx@@V?$PxReflectionAllocator@UIncrementalAABBTreeNodePair@Gu@physx@@@3@@physx@@QEAA@XZ 000000018015c4c0 f i GuIncrementalAABBTree.obj
 0001:0015b620       ??1IncrementalAABBTree@Gu@physx@@QEAA@XZ 000000018015c620 f   GuIncrementalAABBTree.obj
 0001:0015b660       ?allocate@?$PxArray@PEAXV?$PxReflectionAllocator@UAABBTreeIndices@Gu@physx@@@physx@@@physx@@IEAAPEAPEAXI@Z 000000018015c660 f i GuIncrementalAABBTree.obj
 0001:0015b700       ?allocate@?$PxArray@PEAXV?$PxReflectionAllocator@UIncrementalAABBTreeNodePair@Gu@physx@@@physx@@@physx@@IEAAPEAPEAXI@Z 000000018015c700 f i GuIncrementalAABBTree.obj
 0001:0015b7a0       ?allocate@?$PxPoolBase@UAABBTreeIndices@Gu@physx@@V?$PxReflectionAllocator@UAABBTreeIndices@Gu@physx@@@3@@physx@@QEAAPEAUAABBTreeIndices@Gu@2@XZ 000000018015c7a0 f i GuIncrementalAABBTree.obj
 0001:0015b8a0       ?allocate@?$PxPoolBase@UIncrementalAABBTreeNodePair@Gu@physx@@V?$PxReflectionAllocator@UIncrementalAABBTreeNodePair@Gu@physx@@@3@@physx@@QEAAPEAUIncrementalAABBTreeNodePair@Gu@2@XZ 000000018015c8a0 f i GuIncrementalAABBTree.obj
 0001:0015b9a0       ?build@IncrementalAABBTree@Gu@physx@@QEAA_NAEBVAABBTreeBuildParams@23@AEAV?$PxArray@PEAVIncrementalAABBTreeNode@Gu@physx@@V?$PxReflectionAllocator@PEAVIncrementalAABBTreeNode@Gu@physx@@@3@@3@@Z 000000018015c9a0 f   GuIncrementalAABBTree.obj
 0001:0015bb80       ?clone@IncrementalAABBTree@Gu@physx@@AEAAXAEAV?$PxArray@PEAVIncrementalAABBTreeNode@Gu@physx@@V?$PxReflectionAllocator@PEAVIncrementalAABBTreeNode@Gu@physx@@@3@@3@PEBIPEAPEAVIncrementalAABBTreeNode@23@@Z 000000018015cb80 f   GuIncrementalAABBTree.obj
 0001:0015c080       ?copy@IncrementalAABBTree@Gu@physx@@QEAAXAEBVBVH@23@AEAV?$PxArray@PEAVIncrementalAABBTreeNode@Gu@physx@@V?$PxReflectionAllocator@PEAVIncrementalAABBTreeNode@Gu@physx@@@3@@3@@Z 000000018015d080 f   GuIncrementalAABBTree.obj
 0001:0015c130       ?copyNode@IncrementalAABBTree@Gu@physx@@AEAAXAEAVIncrementalAABBTreeNode@23@AEBUBVHNode@23@PEBU523@PEAV423@PEBIAEAV?$PxArray@PEAVIncrementalAABBTreeNode@Gu@physx@@V?$PxReflectionAllocator@PEAVIncrementalAABBTreeNode@Gu@physx@@@3@@3@@Z 000000018015d130 f   GuIncrementalAABBTree.obj
 0001:0015c2f0       ?fixupTreeIndices@IncrementalAABBTree@Gu@physx@@QEAAXPEAVIncrementalAABBTreeNode@23@II@Z 000000018015d2f0 f   GuIncrementalAABBTree.obj
 0001:0015c320       ?getTreeLeafDepth@IncrementalAABBTree@Gu@physx@@QEAAIPEAVIncrementalAABBTreeNode@23@@Z 000000018015d320 f   GuIncrementalAABBTree.obj
 0001:0015c340       ?growAndPushBack@?$PxArray@PEAVIncrementalAABBTreeNode@Gu@physx@@V?$PxReflectionAllocator@PEAVIncrementalAABBTreeNode@Gu@physx@@@3@@physx@@IEAAAEAPEAVIncrementalAABBTreeNode@Gu@2@AEBQEAV342@@Z 000000018015d340 f i GuIncrementalAABBTree.obj
 0001:0015c460       ?growAndPushBack@?$PxArray@PEAXV?$PxReflectionAllocator@UAABBTreeIndices@Gu@physx@@@physx@@@physx@@IEAAAEAPEAXAEBQEAX@Z 000000018015d460 f i GuIncrementalAABBTree.obj
 0001:0015c520       ?growAndPushBack@?$PxArray@PEAXV?$PxReflectionAllocator@UIncrementalAABBTreeNodePair@Gu@physx@@@physx@@@physx@@IEAAAEAPEAXAEBQEAX@Z 000000018015d520 f i GuIncrementalAABBTree.obj
 0001:0015c5e0       ?hierarchyCheck@IncrementalAABBTree@Gu@physx@@QEAAXIPEBVPxBounds3@3@@Z 000000018015d5e0 f   GuIncrementalAABBTree.obj
 0001:0015c730       ?hierarchyCheck@IncrementalAABBTree@Gu@physx@@QEAAXPEBVPxBounds3@3@@Z 000000018015d730 f   GuIncrementalAABBTree.obj
 0001:0015c8a0       ?insert@IncrementalAABBTree@Gu@physx@@QEAAPEAVIncrementalAABBTreeNode@23@IPEBVPxBounds3@3@AEAV?$PxArray@PEAVIncrementalAABBTreeNode@Gu@physx@@V?$PxReflectionAllocator@PEAVIncrementalAABBTreeNode@Gu@physx@@@3@@3@@Z 000000018015d8a0 f   GuIncrementalAABBTree.obj
 0001:0015cf80       ?recreate@?$PxArray@PEAXV?$PxReflectionAllocator@UAABBTreeIndices@Gu@physx@@@physx@@@physx@@IEAAXI@Z 000000018015df80 f i GuIncrementalAABBTree.obj
 0001:0015d020       ?recreate@?$PxArray@PEAXV?$PxReflectionAllocator@UIncrementalAABBTreeNodePair@Gu@physx@@@physx@@@physx@@IEAAXI@Z 000000018015e020 f i GuIncrementalAABBTree.obj
 0001:0015d0c0       ?release@IncrementalAABBTree@Gu@physx@@QEAAXXZ 000000018015e0c0 f   GuIncrementalAABBTree.obj
 0001:0015d0f0       ?releaseNode@IncrementalAABBTree@Gu@physx@@AEAAXPEAVIncrementalAABBTreeNode@23@@Z 000000018015e0f0 f   GuIncrementalAABBTree.obj
 0001:0015d180       ?remove@IncrementalAABBTree@Gu@physx@@QEAAPEAVIncrementalAABBTreeNode@23@PEAV423@IPEBVPxBounds3@3@@Z 000000018015e180 f   GuIncrementalAABBTree.obj
 0001:0015d4a0       ?rotateTree@IncrementalAABBTree@Gu@physx@@AEAAXPEAVIncrementalAABBTreeNode@23@AEAV?$PxArray@PEAVIncrementalAABBTreeNode@Gu@physx@@V?$PxReflectionAllocator@PEAVIncrementalAABBTreeNode@Gu@physx@@@3@@3@IPEBVPxBounds3@3@_N@Z 000000018015e4a0 f   GuIncrementalAABBTree.obj
 0001:0015de00       ?shiftOrigin@IncrementalAABBTree@Gu@physx@@QEAAXAEBV?$PxVec3T@M@3@@Z 000000018015ee00 f   GuIncrementalAABBTree.obj
 0001:0015de60       ?splitLeafNode@IncrementalAABBTree@Gu@physx@@AEAAPEAVIncrementalAABBTreeNode@23@PEAV423@IAEBT__m128@@1PEBVPxBounds3@3@@Z 000000018015ee60 f   GuIncrementalAABBTree.obj
 0001:0015e150       ?update@IncrementalAABBTree@Gu@physx@@QEAAPEAVIncrementalAABBTreeNode@23@PEAV423@IPEBVPxBounds3@3@AEAV?$PxArray@PEAVIncrementalAABBTreeNode@Gu@physx@@V?$PxReflectionAllocator@PEAVIncrementalAABBTreeNode@Gu@physx@@@3@@3@@Z 000000018015f150 f   GuIncrementalAABBTree.obj
 0001:0015e210       ?updateFast@IncrementalAABBTree@Gu@physx@@QEAAPEAVIncrementalAABBTreeNode@23@PEAV423@IPEBVPxBounds3@3@AEAV?$PxArray@PEAVIncrementalAABBTreeNode@Gu@physx@@V?$PxReflectionAllocator@PEAVIncrementalAABBTreeNode@Gu@physx@@@3@@3@@Z 000000018015f210 f   GuIncrementalAABBTree.obj
 0001:0015e430       ??0SAH_Buffers@Gu@physx@@QEAA@I@Z 000000018015f430 f   GuSAH.obj
 0001:0015e540       ??1SAH_Buffers@Gu@physx@@QEAA@XZ 000000018015f540 f   GuSAH.obj
 0001:0015e600       ?split@SAH_Buffers@Gu@physx@@QEAA_NAEAIIPEIBIPEIBVPxBounds3@3@PEIBV?$PxVec3T@M@3@@Z 000000018015f600 f   GuSAH.obj
 0001:0015ecd0       ??0BVH@Gu@physx@@QEAA@AEBUPxBVHInternalData@2@@Z 000000018015fcd0 f   GuBVH.obj
 0001:0015ed90       ??0BVH@Gu@physx@@QEAA@PEAVMeshFactory@12@@Z 000000018015fd90 f   GuBVH.obj
 0001:0015ee00       ??0BVH@Gu@physx@@QEAA@PEAVMeshFactory@12@AEAVBVHData@12@@Z 000000018015fe00 f   GuBVH.obj
 0001:0015eeb0       ??1BVHData@Gu@physx@@QEAA@XZ 000000018015feb0 f i GuBVH.obj
 0001:0016469c       ??_EBVH@Gu@physx@@WBA@EAAPEAXI@Z 000000018016569c f i GuBVH.obj
 0001:001646b0       ??_EBVH@Gu@physx@@UEAAPEAXI@Z 00000001801656b0 f i GuBVH.obj
 0001:001646b0       ??_GBVH@Gu@physx@@UEAAPEAXI@Z 00000001801656b0 f i GuBVH.obj
 0001:00164740       ??_ERefCountable@Cm@physx@@UEAAPEAXI@Z 0000000180165740 f i GuBVH.obj
 0001:00164740       ??_GRefCountable@Cm@physx@@UEAAPEAXI@Z 0000000180165740 f i GuBVH.obj
 0001:00164970       ?allocate@?$PxArray@PEBUBVHNode@Gu@physx@@V?$PxInlineAllocator@$0IAA@V?$PxReflectionAllocator@PEBUBVHNode@Gu@physx@@@physx@@@3@@physx@@IEAAPEAPEBUBVHNode@Gu@2@I@Z 0000000180165970 f i GuBVH.obj
 0001:00164a30       ?build@BVHData@Gu@physx@@QEAA_NIPEBXIMIW4BVHBuildStrategy@23@@Z 0000000180165a30 f   GuBVH.obj
 0001:00164e20       ?cull@BVH@Gu@physx@@UEBA_NIPEBVPxPlane@3@AEAUOverlapCallback@PxBVH@3@V?$PxFlags@W4Enum@PxGeometryQueryFlag@physx@@I@3@@Z 0000000180165e20 f   GuBVH.obj
 0001:00165750       ?getConcreteTypeName@PxBVH@physx@@UEBAPEBDXZ 0000000180166750 f i GuBVH.obj
 0001:00165760       ?init@BVH@Gu@physx@@QEAA_NIPEAVAABBTreeBounds@23@PEBXIW4BVHBuildStrategy@23@IM@Z 0000000180166760 f   GuBVH.obj
 0001:00165b60       ?isKindOf@PxBVH@physx@@MEBA_NPEBD@Z 0000000180166b60 f i GuBVH.obj
 0001:00165bb0       ?load@BVH@Gu@physx@@QEAA_NAEAVPxInputStream@3@@Z 0000000180166bb0 f   GuBVH.obj
 0001:00165d40       ?onRefCountZero@BVH@Gu@physx@@UEAAXXZ 0000000180166d40 f   GuBVH.obj
 0001:00165e20       ?onRefCountZero@RefCountable@Cm@physx@@UEAAXXZ 0000000180166e20 f i GuBVH.obj
 0001:00165e40       ?overlap@BVH@Gu@physx@@QEBA_NAEBVShapeData@23@AEAUOverlapCallback@PxBVH@3@V?$PxFlags@W4Enum@PxGeometryQueryFlag@physx@@I@3@@Z 0000000180166e40 f   GuBVH.obj
 0001:00166670       ?overlap@BVH@Gu@physx@@UEBAIAEBVPxBounds3@3@IPEIAI@Z 0000000180167670 f   GuBVH.obj
 0001:00166790       ?overlap@BVH@Gu@physx@@UEBA_NAEBVPxGeometry@3@AEBV?$PxTransformT@M@3@AEAUOverlapCallback@PxBVH@3@V?$PxFlags@W4Enum@PxGeometryQueryFlag@physx@@I@3@@Z 0000000180167790 f   GuBVH.obj
 0001:001667f0       ?partialRefit@BVH@Gu@physx@@UEAAXXZ 00000001801677f0 f   GuBVH.obj
 0001:00166800       ?raycast@BVH@Gu@physx@@UEBAIAEBV?$PxVec3T@M@3@0MIPEIAI@Z 0000000180167800 f   GuBVH.obj
 0001:001668a0       ?raycast@BVH@Gu@physx@@UEBA_NAEBV?$PxVec3T@M@3@0MAEAURaycastCallback@PxBVH@3@V?$PxFlags@W4Enum@PxGeometryQueryFlag@physx@@I@3@@Z 00000001801678a0 f   GuBVH.obj
 0001:001669d0       ?recreate@?$PxArray@PEBUBVHNode@Gu@physx@@V?$PxInlineAllocator@$0IAA@V?$PxReflectionAllocator@PEBUBVHNode@Gu@physx@@@physx@@@3@@physx@@IEAAXI@Z 00000001801679d0 f i GuBVH.obj
 0001:00166a80       ?refit@BVH@Gu@physx@@UEAAXXZ 0000000180167a80 f   GuBVH.obj
 0001:00166a90       ?release@BVH@Gu@physx@@UEAAXXZ 0000000180167a90 f   GuBVH.obj
 0001:00166ac0       ?resizeUninitialized@?$PxArray@PEBUBVHNode@Gu@physx@@V?$PxInlineAllocator@$0IAA@V?$PxReflectionAllocator@PEBUBVHNode@Gu@physx@@@physx@@@3@@physx@@QEAAXI@Z 0000000180167ac0 f i GuBVH.obj
 0001:00166b10       ?save@BVHData@Gu@physx@@QEBA_NAEAVPxOutputStream@3@_N@Z 0000000180167b10 f   GuBVH.obj
 0001:00166c80       ?sweep@BVH@Gu@physx@@QEBA_NAEBVShapeData@23@AEBV?$PxVec3T@M@3@MAEAURaycastCallback@PxBVH@3@V?$PxFlags@W4Enum@PxGeometryQueryFlag@physx@@I@3@@Z 0000000180167c80 f   GuBVH.obj
 0001:00166e70       ?sweep@BVH@Gu@physx@@UEBAIAEBVPxBounds3@3@AEBV?$PxVec3T@M@3@MIPEIAI@Z 0000000180167e70 f   GuBVH.obj
 0001:00166fe0       ?sweep@BVH@Gu@physx@@UEBA_NAEBVPxGeometry@3@AEBV?$PxTransformT@M@3@AEBV?$PxVec3T@M@3@MAEAURaycastCallback@PxBVH@3@V?$PxFlags@W4Enum@PxGeometryQueryFlag@physx@@I@3@@Z 0000000180167fe0 f   GuBVH.obj
 0001:00167060       ?traverse@BVH@Gu@physx@@UEBA_NAEAUTraversalCallback@PxBVH@3@@Z 0000000180168060 f   GuBVH.obj
 0001:001671d0       ?updateBounds@BVH@Gu@physx@@UEAA_NIAEBVPxBounds3@3@@Z 00000001801681d0 f   GuBVH.obj
 0001:00167280       ?updateBoundsInternal@BVH@Gu@physx@@QEAA_NIAEBVPxBounds3@3@@Z 0000000180168280 f   GuBVH.obj
 0001:00167330       PxFindOverlap              0000000180168330 f   GuBVH.obj
 0001:00167420       PxGetBVHInternalData       0000000180168420 f   GuBVH.obj
 0001:00167460       ??0IncrementalAABBPrunerCore@Gu@physx@@QEAA@PEBVPruningPool@12@@Z 0000000180168460 f   GuIncrementalAABBPrunerCore.obj
 0001:00167570       ??1IncrementalAABBPrunerCore@Gu@physx@@QEAA@XZ 0000000180168570 f   GuIncrementalAABBPrunerCore.obj
 0001:001676e0       ??R?$AABBTreeOverlap@$00U?$OBBAABBTests@$00@Gu@physx@@VIncrementalAABBTree@23@VIncrementalAABBTreeNode@23@UOverlapCallbackAdapter@23@@Gu@physx@@QEAA_NAEBVAABBTreeBounds@12@AEBVIncrementalAABBTree@12@AEBU?$OBBAABBTests@$00@12@AEAUOverlapCallbackAdapter@12@@Z 00000001801686e0 f i GuIncrementalAABBPrunerCore.obj
 0001:00167c90       ??R?$AABBTreeOverlap@$00UAABBAABBTest@Gu@physx@@VIncrementalAABBTree@23@VIncrementalAABBTreeNode@23@UOverlapCallbackAdapter@23@@Gu@physx@@QEAA_NAEBVAABBTreeBounds@12@AEBVIncrementalAABBTree@12@AEBUAABBAABBTest@12@AEAUOverlapCallbackAdapter@12@@Z 0000000180168c90 f i GuIncrementalAABBPrunerCore.obj
 0001:00167f00       ??R?$AABBTreeOverlap@$00UCapsuleAABBTest@Gu@physx@@VIncrementalAABBTree@23@VIncrementalAABBTreeNode@23@UOverlapCallbackAdapter@23@@Gu@physx@@QEAA_NAEBVAABBTreeBounds@12@AEBVIncrementalAABBTree@12@AEBUCapsuleAABBTest@12@AEAUOverlapCallbackAdapter@12@@Z 0000000180168f00 f i GuIncrementalAABBPrunerCore.obj
 0001:00168320       ??R?$AABBTreeRaycast@$00$00VIncrementalAABBTree@Gu@physx@@VIncrementalAABBTreeNode@23@URaycastCallbackAdapter@23@@Gu@physx@@QEAA_NAEBVAABBTreeBounds@12@AEBVIncrementalAABBTree@12@AEBV?$PxVec3T@M@2@2AEAM2AEAURaycastCallbackAdapter@12@@Z 0000000180169320 f i GuIncrementalAABBPrunerCore.obj
 0001:001689e0       ??R?$AABBTreeRaycast@$0A@$00VIncrementalAABBTree@Gu@physx@@VIncrementalAABBTreeNode@23@URaycastCallbackAdapter@23@@Gu@physx@@QEAA_NAEBVAABBTreeBounds@12@AEBVIncrementalAABBTree@12@AEBV?$PxVec3T@M@2@2AEAM2AEAURaycastCallbackAdapter@12@@Z 00000001801699e0 f i GuIncrementalAABBPrunerCore.obj
 0001:00169030       ?addObject@IncrementalAABBPrunerCore@Gu@physx@@QEAA_NII@Z 000000018016a030 f   GuIncrementalAABBPrunerCore.obj
 0001:00169140       ?allocate@?$PxArray@PEBVIncrementalAABBTreeNode@Gu@physx@@V?$PxInlineAllocator@$0IAA@V?$PxReflectionAllocator@PEBVIncrementalAABBTreeNode@Gu@physx@@@physx@@@3@@physx@@IEAAPEAPEBVIncrementalAABBTreeNode@Gu@2@I@Z 000000018016a140 f i GuIncrementalAABBPrunerCore.obj
 0001:00169200       ?clear@?$PxHashMapBase@IPEAVIncrementalAABBTreeNode@Gu@physx@@U?$PxHash@I@3@VPxAllocator@3@@physx@@QEAAXXZ 000000018016a200 f i GuIncrementalAABBPrunerCore.obj
 0001:00169200       ?clear@?$PxHashMapBase@UPrunerPayload@Gu@physx@@UExtendedBucketPrunerData@23@UExtendedBucketPrunerHash@23@VPxAllocator@3@@physx@@QEAAXXZ 000000018016a200 f i GuExtendedBucketPruner.obj
 0001:00169290       ?create@?$PxHashBase@V?$PxPair@$$CBIPEAVIncrementalAABBTreeNode@Gu@physx@@@physx@@IU?$PxHash@I@2@UGetKey@?$PxHashMapBase@IPEAVIncrementalAABBTreeNode@Gu@physx@@U?$PxHash@I@3@VPxAllocator@3@@2@VPxAllocator@2@$00@physx@@QEAAPEAV?$PxPair@$$CBIPEAVIncrementalAABBTreeNode@Gu@physx@@@2@AEBIAEA_N@Z 000000018016a290 f i GuIncrementalAABBPrunerCore.obj
 0001:001693e0       ?erase@?$PxHashBase@V?$PxPair@$$CBIPEAVIncrementalAABBTreeNode@Gu@physx@@@physx@@IU?$PxHash@I@2@UGetKey@?$PxHashMapBase@IPEAVIncrementalAABBTreeNode@Gu@physx@@U?$PxHash@I@3@VPxAllocator@3@@2@VPxAllocator@2@$00@physx@@QEAA_NAEBIAEAV?$PxPair@$$CBIPEAVIncrementalAABBTreeNode@Gu@physx@@@2@@Z 000000018016a3e0 f i GuIncrementalAABBPrunerCore.obj
 0001:00169550       ?getCurrentWorldBoxes@PruningPool@Gu@physx@@QEAAPEAVPxBounds3@3@XZ 000000018016a550 f i GuIncrementalAABBPrunerCore.obj
 0001:00169550       ?getCurrentWorldBoxes@PruningPool@Gu@physx@@QEBAPEBVPxBounds3@3@XZ 000000018016a550 f i GuIncrementalAABBPrunerCore.obj
 0001:00169550       ?getMesh@CollisionTetrahedronMeshData@Gu@physx@@UEAAPEAVPxTetrahedronMeshData@3@XZ 000000018016a550 f i GuCookingTetrahedronMesh.obj
 0001:00169550       ?getMesh@CollisionTetrahedronMeshData@Gu@physx@@UEBAPEBVPxTetrahedronMeshData@3@XZ 000000018016a550 f i GuCookingTetrahedronMesh.obj
 0001:00169550       ?getMesh@SimulationTetrahedronMeshData@Gu@physx@@UEAAPEAVPxTetrahedronMeshData@3@XZ 000000018016a550 f i GuCookingTetrahedronMesh.obj
 0001:00169560       ?getGlobalBounds@IncrementalAABBPrunerCore@Gu@physx@@QEBAXAEAVPxBounds3@3@@Z 000000018016a560 f   GuIncrementalAABBPrunerCore.obj
 0001:00169690       ?getIndex@PruningPool@Gu@physx@@QEBAII@Z 000000018016a690 f i GuIncrementalAABBPrunerCore.obj
 0001:001696a0       ?getPayloadData@PruningPool@Gu@physx@@QEBAAEBUPrunerPayload@23@IPEAUPrunerPayloadData@23@@Z 000000018016a6a0 f i GuIncrementalAABBPrunerCore.obj
 0001:001696f0       ?overlap@IncrementalAABBPrunerCore@Gu@physx@@QEBA_NAEBVShapeData@23@AEAUPrunerOverlapCallback@23@@Z 000000018016a6f0 f   GuIncrementalAABBPrunerCore.obj
 0001:0016a1f0       ?raycast@IncrementalAABBPrunerCore@Gu@physx@@QEBA_NAEBV?$PxVec3T@M@3@0AEAMAEAUPrunerRaycastCallback@23@@Z 000000018016b1f0 f   GuIncrementalAABBPrunerCore.obj
 0001:0016a2d0       ?recreate@?$PxArray@PEAVIncrementalAABBTreeNode@Gu@physx@@V?$PxReflectionAllocator@PEAVIncrementalAABBTreeNode@Gu@physx@@@3@@physx@@IEAAXI@Z 000000018016b2d0 f i GuIncrementalAABBPrunerCore.obj
 0001:0016a3e0       ?recreate@?$PxArray@PEBVIncrementalAABBTreeNode@Gu@physx@@V?$PxInlineAllocator@$0IAA@V?$PxReflectionAllocator@PEBVIncrementalAABBTreeNode@Gu@physx@@@physx@@@3@@physx@@IEAAXI@Z 000000018016b3e0 f i GuIncrementalAABBPrunerCore.obj
 0001:0016a490       ?release@IncrementalAABBPrunerCore@Gu@physx@@QEAAXXZ 000000018016b490 f   GuIncrementalAABBPrunerCore.obj
 0001:0016a590       ?removeMarkedObjects@IncrementalAABBPrunerCore@Gu@physx@@QEAAII@Z 000000018016b590 f   GuIncrementalAABBPrunerCore.obj
 0001:0016a5f0       ?removeObject@IncrementalAABBPrunerCore@Gu@physx@@QEAA_NIIAEAI@Z 000000018016b5f0 f   GuIncrementalAABBPrunerCore.obj
 0001:0016a800       ?reserveInternal@?$PxHashBase@V?$PxPair@$$CBIPEAVIncrementalAABBTreeNode@Gu@physx@@@physx@@IU?$PxHash@I@2@UGetKey@?$PxHashMapBase@IPEAVIncrementalAABBTreeNode@Gu@physx@@U?$PxHash@I@3@VPxAllocator@3@@2@VPxAllocator@2@$00@physx@@AEAAXI@Z 000000018016b800 f i GuIncrementalAABBPrunerCore.obj
 0001:0016a9c0       ?resizeUninitialized@?$PxArray@PEBVIncrementalAABBTreeNode@Gu@physx@@V?$PxInlineAllocator@$0IAA@V?$PxReflectionAllocator@PEBVIncrementalAABBTreeNode@Gu@physx@@@physx@@@3@@physx@@QEAAXI@Z 000000018016b9c0 f i GuIncrementalAABBPrunerCore.obj
 0001:0016aa10       ?setTransform@PruningPool@Gu@physx@@QEAA_NIAEBV?$PxTransformT@M@3@@Z 000000018016ba10 f i GuIncrementalAABBPrunerCore.obj
 0001:0016aa70       ?shiftOrigin@IncrementalAABBPrunerCore@Gu@physx@@QEAAXAEBV?$PxVec3T@M@3@@Z 000000018016ba70 f   GuIncrementalAABBPrunerCore.obj
 0001:0016aac0       ?swapIndex@IncrementalAABBPrunerCore@Gu@physx@@QEAAXII@Z 000000018016bac0 f   GuIncrementalAABBPrunerCore.obj
 0001:0016aba0       ?sweep@IncrementalAABBPrunerCore@Gu@physx@@QEBA_NAEBVShapeData@23@AEBV?$PxVec3T@M@3@AEAMAEAUPrunerRaycastCallback@23@@Z 000000018016bba0 f   GuIncrementalAABBPrunerCore.obj
 0001:0016ad30       ?updateMapping@IncrementalAABBPrunerCore@Gu@physx@@AEAAXAEAV?$PxHashMap@IPEAVIncrementalAABBTreeNode@Gu@physx@@U?$PxHash@I@3@VPxAllocator@3@@3@IPEAVIncrementalAABBTreeNode@23@@Z 000000018016bd30 f   GuIncrementalAABBPrunerCore.obj
 0001:0016ae80       ?updateObject@IncrementalAABBPrunerCore@Gu@physx@@QEAA_NI@Z 000000018016be80 f   GuIncrementalAABBPrunerCore.obj
 0001:0016b020       ?visualize@IncrementalAABBPrunerCore@Gu@physx@@QEBAXAEAVPxRenderOutput@3@I@Z 000000018016c020 f   GuIncrementalAABBPrunerCore.obj
 0001:0016b080       ??0IncrementalAABBPruner@Gu@physx@@QEAA@I_K@Z 000000018016c080 f   GuIncrementalAABBPruner.obj
 0001:0016b130       ??R?$AABBTreeOverlap@$00USphereAABBTest@Gu@physx@@VIncrementalAABBTree@23@VIncrementalAABBTreeNode@23@UOverlapCallbackAdapter@23@@Gu@physx@@QEAA_NAEBVAABBTreeBounds@12@AEBVIncrementalAABBTree@12@AEBUSphereAABBTest@12@AEAUOverlapCallbackAdapter@12@@Z 000000018016c130 f i GuIncrementalAABBPruner.obj
 0001:0016b400       ??_EBasePruner@Gu@physx@@UEAAPEAXI@Z 000000018016c400 f i GuIncrementalAABBPruner.obj
 0001:0016b400       ??_GBasePruner@Gu@physx@@UEAAPEAXI@Z 000000018016c400 f i GuIncrementalAABBPruner.obj
 0001:0016b450       ??_EIncrementalAABBPruner@Gu@physx@@UEAAPEAXI@Z 000000018016c450 f i GuIncrementalAABBPruner.obj
 0001:0016b450       ??_GIncrementalAABBPruner@Gu@physx@@UEAAPEAXI@Z 000000018016c450 f i GuIncrementalAABBPruner.obj
 0001:0016b560       ?addObjects@IncrementalAABBPruner@Gu@physx@@UEAA_NPEAIPEBVPxBounds3@3@PEBUPrunerPayload@23@PEBV?$PxTransformT@M@3@I_N@Z 000000018016c560 f   GuIncrementalAABBPruner.obj
 0001:0016b6e0       ?commit@IncrementalAABBPruner@Gu@physx@@UEAAXXZ 000000018016c6e0 f   GuIncrementalAABBPruner.obj
 0001:0016b8b0       ?getGlobalBounds@IncrementalAABBPruner@Gu@physx@@UEBAXAEAVPxBounds3@3@@Z 000000018016c8b0 f   GuIncrementalAABBPruner.obj
 0001:0016b920       ?getPayloadData@IncrementalAABBPruner@Gu@physx@@UEBAAEBUPrunerPayload@23@IPEAUPrunerPayloadData@23@@Z 000000018016c920 f i GuIncrementalAABBPruner.obj
 0001:0016b970       ?overlap@IncrementalAABBPruner@Gu@physx@@UEBA_NAEBVShapeData@23@AEAUPrunerOverlapCallback@23@@Z 000000018016c970 f   GuIncrementalAABBPruner.obj
 0001:0016c080       ?preallocate@IncrementalAABBPruner@Gu@physx@@UEAAXI@Z 000000018016d080 f i GuIncrementalAABBPruner.obj
 0001:0016c090       ?purge@IncrementalAABBPruner@Gu@physx@@UEAAXXZ 000000018016d090 f   GuIncrementalAABBPruner.obj
 0001:0016c0e0       ?raycast@IncrementalAABBPruner@Gu@physx@@UEBA_NAEBV?$PxVec3T@M@3@0AEAMAEAUPrunerRaycastCallback@23@@Z 000000018016d0e0 f   GuIncrementalAABBPruner.obj
 0001:0016c160       ?removeObjects@IncrementalAABBPruner@Gu@physx@@UEAAXPEBIIPEAUPrunerPayloadRemovalCallback@23@@Z 000000018016d160 f   GuIncrementalAABBPruner.obj
 0001:0016c360       ?resize@?$PxArray@PEAVIncrementalAABBTreeNode@Gu@physx@@V?$PxReflectionAllocator@PEAVIncrementalAABBTreeNode@Gu@physx@@@3@@physx@@QEAAXIAEBQEAVIncrementalAABBTreeNode@Gu@2@@Z 000000018016d360 f i GuIncrementalAABBPruner.obj
 0001:0016c420       ?resizeUninitialized@?$PxArray@PEAVIncrementalAABBTreeNode@Gu@physx@@V?$PxReflectionAllocator@PEAVIncrementalAABBTreeNode@Gu@physx@@@3@@physx@@QEAAXI@Z 000000018016d420 f i GuIncrementalAABBPruner.obj
 0001:0016c460       ?setTransform@IncrementalAABBPruner@Gu@physx@@UEAA_NIAEBV?$PxTransformT@M@3@@Z 000000018016d460 f i GuIncrementalAABBPruner.obj
 0001:0016c4c0       ?shiftOrigin@IncrementalAABBPruner@Gu@physx@@UEAAXAEBV?$PxVec3T@M@3@@Z 000000018016d4c0 f   GuIncrementalAABBPruner.obj
 0001:0016c500       ?sweep@IncrementalAABBPruner@Gu@physx@@UEBA_NAEBVShapeData@23@AEBV?$PxVec3T@M@3@AEAMAEAUPrunerRaycastCallback@23@@Z 000000018016d500 f   GuIncrementalAABBPruner.obj
 0001:0016c620       ?updateMapping@IncrementalAABBPruner@Gu@physx@@AEAAXIPEAVIncrementalAABBTreeNode@23@@Z 000000018016d620 f   GuIncrementalAABBPruner.obj
 0001:0016c710       ?updateObjects@IncrementalAABBPruner@Gu@physx@@UEAAXPEBIIM0PEBVPxBounds3@3@PEBUPxTransformPadded@3@@Z 000000018016d710 f   GuIncrementalAABBPruner.obj
 0001:0016c8d0       ?visualize@IncrementalAABBPruner@Gu@physx@@UEBAXAEAVPxRenderOutput@3@II@Z 000000018016d8d0 f   GuIncrementalAABBPruner.obj
 0001:0016cac0       ??0PruningPool@Gu@physx@@QEAA@_KW4TransformCacheMode@12@@Z 000000018016dac0 f   GuPruningPool.obj
 0001:0016caf0       ??1PruningPool@Gu@physx@@QEAA@XZ 000000018016daf0 f   GuPruningPool.obj
 0001:0016cbb0       ?addObjects@PruningPool@Gu@physx@@QEAAIPEAIPEBVPxBounds3@3@PEBUPrunerPayload@23@PEBV?$PxTransformT@M@3@I@Z 000000018016dbb0 f   GuPruningPool.obj
 0001:0016ce30       ?preallocate@PruningPool@Gu@physx@@QEAAXI@Z 000000018016de30 f   GuPruningPool.obj
 0001:0016ce40       ?removeObject@PruningPool@Gu@physx@@QEAAIIPEAUPrunerPayloadRemovalCallback@23@@Z 000000018016de40 f   GuPruningPool.obj
 0001:0016d010       ?resize@PruningPool@Gu@physx@@QEAA_NI@Z 000000018016e010 f   GuPruningPool.obj
 0001:0016d3a0       ?shiftOrigin@PruningPool@Gu@physx@@QEAAXAEBV?$PxVec3T@M@3@@Z 000000018016e3a0 f   GuPruningPool.obj
 0001:0016d7f0       ?updateAndInflateBounds@PruningPool@Gu@physx@@QEAAXPEBI0PEBVPxBounds3@3@PEBUPxTransformPadded@3@IM@Z 000000018016e7f0 f   GuPruningPool.obj
 0001:0016f300       ??0BucketPruner@Gu@physx@@QEAA@_K@Z 0000000180170300 f   GuBucketPruner.obj
 0001:0016f350       ??0BucketPrunerCore@Gu@physx@@QEAA@_N@Z 0000000180170350 f   GuBucketPruner.obj
 0001:0016f6d0       ??1BucketPrunerCore@Gu@physx@@QEAA@XZ 00000001801706d0 f   GuBucketPruner.obj
 0001:0016f810       ??R?$BucketPrunerOverlapTraversal@UBucketPrunerAABBAABBTest@@$00@@QEBA_NAEBVBucketPrunerCore@Gu@physx@@AEBUBucketPrunerAABBAABBTest@@AEAUPrunerOverlapCallback@23@AEBVPxBounds3@3@@Z 0000000180170810 f i GuBucketPruner.obj
 0001:0016fdd0       ??R?$BucketPrunerOverlapTraversal@UOBBAABBTest_SIMD@@$0A@@@QEBA_NAEBVBucketPrunerCore@Gu@physx@@AEBUOBBAABBTest_SIMD@@AEAUPrunerOverlapCallback@23@AEBVPxBounds3@3@@Z 0000000180170dd0 f i GuBucketPruner.obj
 0001:00170650       ??R?$BucketPrunerOverlapTraversal@USphereAABBTest_SIMD@@$00@@QEBA_NAEBVBucketPrunerCore@Gu@physx@@AEBUSphereAABBTest_SIMD@@AEAUPrunerOverlapCallback@23@AEBVPxBounds3@3@@Z 0000000180171650 f i GuBucketPruner.obj
 0001:00170c30       ??_FBucketPrunerCore@Gu@physx@@QEAAXXZ 0000000180171c30 f i GuBucketPruner.obj
 0001:00170c40       ??_EBucketPruner@Gu@physx@@UEAAPEAXI@Z 0000000180171c40 f i GuBucketPruner.obj
 0001:00170c40       ??_GBucketPruner@Gu@physx@@UEAAPEAXI@Z 0000000180171c40 f i GuBucketPruner.obj
 0001:00170cc0       ?addObject@BucketPrunerCore@Gu@physx@@QEAA_NAEBUPrunerPayload@23@AEBVPxBounds3@3@AEBV?$PxTransformT@M@3@I@Z 0000000180171cc0 f   GuBucketPruner.obj
 0001:00170fe0       ?addObjects@BucketPruner@Gu@physx@@UEAA_NPEAIPEBVPxBounds3@3@PEBUPrunerPayload@23@PEBV?$PxTransformT@M@3@I_N@Z 0000000180171fe0 f   GuBucketPruner.obj
 0001:00171070       ?addPair@BucketPrunerMap@Gu@physx@@QEAAPEAUBucketPrunerPair@23@AEBUPrunerPayload@23@II@Z 0000000180172070 f   GuBucketPruner.obj
 0001:00171270       ?allocateSortedMemory@BucketPrunerCore@Gu@physx@@AEAAXI@Z 0000000180172270 f   GuBucketPruner.obj
 0001:00171420       ?classifyBoxes@BucketPrunerCore@Gu@physx@@AEAAXXZ 0000000180172420 f   GuBucketPruner.obj
 0001:00171c00       ?classifyBoxes@BucketPrunerNode@Gu@physx@@QEAAXMMIPEIAUBucketBox@23@PEIBUPrunerPayload@23@PEIBV?$PxTransformT@M@3@0PEIAU523@PEIAV63@_NI@Z 0000000180172c00 f   GuBucketPruner.obj
 0001:00172480       ?build@CompanionPrunerBucket@@UEAAXXZ 0000000180173480 f   GuSecondaryPruner.obj
 0001:00172480       ?commit@BucketPruner@Gu@physx@@UEAAXXZ 0000000180173480 f   GuBucketPruner.obj
 0001:00172490       ?findPair@BucketPrunerMap@Gu@physx@@QEBAPEBUBucketPrunerPair@23@AEBUPrunerPayload@23@@Z 0000000180173490 f   GuBucketPruner.obj
 0001:00172880       ?getGlobalBounds@BucketPruner@Gu@physx@@UEBAXAEAVPxBounds3@3@@Z 0000000180173880 f   GuBucketPruner.obj
 0001:00172900       ?getGlobalBounds@BucketPrunerCore@Gu@physx@@QEBAXAEAVPxBounds3@3@@Z 0000000180173900 f   GuBucketPruner.obj
 0001:00172980       ?getPayloadData@BucketPruner@Gu@physx@@UEBAAEBUPrunerPayload@23@IPEAUPrunerPayloadData@23@@Z 0000000180173980 f i GuBucketPruner.obj
 0001:001729e0       ?overlap@BucketPruner@Gu@physx@@UEBA_NAEBVShapeData@23@AEAUPrunerOverlapCallback@23@@Z 00000001801739e0 f   GuBucketPruner.obj
 0001:00172a00       ?overlap@BucketPrunerCore@Gu@physx@@QEBA_NAEBVShapeData@23@AEAUPrunerOverlapCallback@23@@Z 0000000180173a00 f   GuBucketPruner.obj
 0001:00172ce0       ?preallocate@BucketPruner@Gu@physx@@UEAAXI@Z 0000000180173ce0 f i GuBucketPruner.obj
 0001:00172ec0       ?purge@BucketPrunerMap@Gu@physx@@QEAAXXZ 0000000180173ec0 f   GuBucketPruner.obj
 0001:00172f50       ?raycast@BucketPruner@Gu@physx@@UEBA_NAEBV?$PxVec3T@M@3@0AEAMAEAUPrunerRaycastCallback@23@@Z 0000000180173f50 f   GuBucketPruner.obj
 0001:00172fa0       ?raycast@BucketPrunerCore@Gu@physx@@QEBA_NAEBV?$PxVec3T@M@3@0AEAMAEAUPrunerRaycastCallback@23@@Z 0000000180173fa0 f   GuBucketPruner.obj
 0001:00172fe0       ?reallocPairs@BucketPrunerMap@Gu@physx@@QEAAXXZ 0000000180173fe0 f   GuBucketPruner.obj
 0001:00173210       ?release@BucketPrunerCore@Gu@physx@@QEAAXXZ 0000000180174210 f   GuBucketPruner.obj
 0001:00173340       ?removeMarkedObjects@BucketPrunerCore@Gu@physx@@QEAAII@Z 0000000180174340 f   GuBucketPruner.obj
 0001:00173710       ?removeObject@BucketPrunerCore@Gu@physx@@QEAA_NAEBUPrunerPayload@23@AEAI@Z 0000000180174710 f   GuBucketPruner.obj
 0001:001739d0       ?removeObjects@BucketPruner@Gu@physx@@UEAAXPEBIIPEAUPrunerPayloadRemovalCallback@23@@Z 00000001801749d0 f   GuBucketPruner.obj
 0001:00173a80       ?removePair@BucketPrunerMap@Gu@physx@@QEAA_NAEBUPrunerPayload@23@AEAI1@Z 0000000180174a80 f   GuBucketPruner.obj
 0001:00173c00       ?removePairInternal@BucketPrunerMap@Gu@physx@@QEAAXAEBUPrunerPayload@23@II@Z 0000000180174c00 f   GuBucketPruner.obj
 0001:00173d90       ?resizeCore@BucketPrunerCore@Gu@physx@@AEAAXXZ 0000000180174d90 f   GuBucketPruner.obj
 0001:00173fd0       ?setTransform@BucketPruner@Gu@physx@@UEAA_NIAEBV?$PxTransformT@M@3@@Z 0000000180174fd0 f i GuBucketPruner.obj
 0001:00174030       ?shiftOrigin@BucketPruner@Gu@physx@@UEAAXAEBV?$PxVec3T@M@3@@Z 0000000180175030 f   GuBucketPruner.obj
 0001:00174030       ?shiftOrigin@CompanionPrunerBucket@@UEAAXAEBV?$PxVec3T@M@physx@@@Z 0000000180175030 f   GuSecondaryPruner.obj
 0001:00174040       ?shiftOrigin@BucketPrunerCore@Gu@physx@@QEAAXAEBV?$PxVec3T@M@3@@Z 0000000180175040 f   GuBucketPruner.obj
 0001:00174e70       ?sweep@BucketPruner@Gu@physx@@UEBA_NAEBVShapeData@23@AEBV?$PxVec3T@M@3@AEAMAEAUPrunerRaycastCallback@23@@Z 0000000180175e70 f   GuBucketPruner.obj
 0001:00174e90       ?sweep@BucketPrunerCore@Gu@physx@@QEBA_NAEBVShapeData@23@AEBV?$PxVec3T@M@3@AEAMAEAUPrunerRaycastCallback@23@@Z 0000000180175e90 f   GuBucketPruner.obj
 0001:00174f60       ?updateObject@BucketPrunerCore@Gu@physx@@QEAA_NAEBVPxBounds3@3@AEBUPrunerPayload@23@AEBV?$PxTransformT@M@3@@Z 0000000180175f60 f   GuBucketPruner.obj
 0001:00174fc0       ?updateObjects@BucketPruner@Gu@physx@@UEAAXPEBIIM0PEBVPxBounds3@3@PEBUPxTransformPadded@3@@Z 0000000180175fc0 f   GuBucketPruner.obj
 0001:001750d0       ?visualize@BucketPruner@Gu@physx@@UEBAXAEAVPxRenderOutput@3@II@Z 00000001801760d0 f   GuBucketPruner.obj
 0001:001750d0       ?visualize@CompanionPrunerBucket@@UEBAXAEAVPxRenderOutput@physx@@I@Z 00000001801760d0 f   GuSecondaryPruner.obj
 0001:001750e0       ?visualize@BucketPrunerCore@Gu@physx@@QEBAXAEAVPxRenderOutput@3@I@Z 00000001801760e0 f   GuBucketPruner.obj
 0001:001753d0       ?addObject@MaverickNode@Gu@physx@@QEAA_NAEBUPrunerPayload@23@IAEBVPxBounds3@3@AEBV?$PxTransformT@M@3@I@Z 00000001801763d0 f   GuMaverickNode.obj
 0001:001754b0       ?removeMarkedObjects@MaverickNode@Gu@physx@@QEAAII@Z 00000001801764b0 f   GuMaverickNode.obj
 0001:00175640       ?removeObject@MaverickNode@Gu@physx@@QEAA_NIAEAI@Z 0000000180176640 f   GuMaverickNode.obj
 0001:001757d0       ?shiftOrigin@MaverickNode@Gu@physx@@QEAAXAEBV?$PxVec3T@M@3@@Z 00000001801767d0 f   GuMaverickNode.obj
 0001:001758c0       ?updateObject@MaverickNode@Gu@physx@@QEAA_NIAEBVPxBounds3@3@AEBV?$PxTransformT@M@3@@Z 00000001801768c0 f   GuMaverickNode.obj
 0001:001759a0       ??0ExtendedBucketPruner@Gu@physx@@QEAA@_KW4CompanionPrunerType@12@PEBVPruningPool@12@@Z 00000001801769a0 f   GuExtendedBucketPruner.obj
 0001:00175bf0       ??1ExtendedBucketPruner@Gu@physx@@QEAA@XZ 0000000180176bf0 f   GuExtendedBucketPruner.obj
 0001:00175d50       ??R?$AABBTreeOverlap@$00U?$OBBAABBTests@$00@Gu@physx@@VAABBTree@23@UBVHNode@23@U?$MainTreeOverlapPrunerCallback@U?$OBBAABBTests@$00@Gu@physx@@@@@Gu@physx@@QEAA_NAEBVAABBTreeBounds@12@AEBVAABBTree@12@AEBU?$OBBAABBTests@$00@12@AEAU?$MainTreeOverlapPrunerCallback@U?$OBBAABBTests@$00@Gu@physx@@@@@Z 0000000180176d50 f i GuExtendedBucketPruner.obj
 0001:00176330       ??R?$AABBTreeOverlap@$00U?$OBBAABBTests@$00@Gu@physx@@VAABBTree@23@UBVHNode@23@UOverlapCallbackAdapter@23@@Gu@physx@@QEAA_NAEBVAABBTreeBounds@12@AEBVAABBTree@12@AEBU?$OBBAABBTests@$00@12@AEAUOverlapCallbackAdapter@12@@Z 0000000180177330 f i GuExtendedBucketPruner.obj
 0001:001768f0       ??R?$AABBTreeOverlap@$00UAABBAABBTest@Gu@physx@@VAABBTree@23@UBVHNode@23@U?$MainTreeOverlapPrunerCallback@UAABBAABBTest@Gu@physx@@@@@Gu@physx@@QEAA_NAEBVAABBTreeBounds@12@AEBVAABBTree@12@AEBUAABBAABBTest@12@AEAU?$MainTreeOverlapPrunerCallback@UAABBAABBTest@Gu@physx@@@@@Z 00000001801778f0 f i GuExtendedBucketPruner.obj
 0001:00176ba0       ??R?$AABBTreeOverlap@$00UAABBAABBTest@Gu@physx@@VAABBTree@23@UBVHNode@23@UOverlapCallbackAdapter@23@@Gu@physx@@QEAA_NAEBVAABBTreeBounds@12@AEBVAABBTree@12@AEBUAABBAABBTest@12@AEAUOverlapCallbackAdapter@12@@Z 0000000180177ba0 f i GuExtendedBucketPruner.obj
 0001:00176e30       ??R?$AABBTreeOverlap@$00UCapsuleAABBTest@Gu@physx@@VAABBTree@23@UBVHNode@23@U?$MainTreeOverlapPrunerCallback@UCapsuleAABBTest@Gu@physx@@@@@Gu@physx@@QEAA_NAEBVAABBTreeBounds@12@AEBVAABBTree@12@AEBUCapsuleAABBTest@12@AEAU?$MainTreeOverlapPrunerCallback@UCapsuleAABBTest@Gu@physx@@@@@Z 0000000180177e30 f i GuExtendedBucketPruner.obj
 0001:001772a0       ??R?$AABBTreeOverlap@$00UCapsuleAABBTest@Gu@physx@@VAABBTree@23@UBVHNode@23@UOverlapCallbackAdapter@23@@Gu@physx@@QEAA_NAEBVAABBTreeBounds@12@AEBVAABBTree@12@AEBUCapsuleAABBTest@12@AEAUOverlapCallbackAdapter@12@@Z 00000001801782a0 f i GuExtendedBucketPruner.obj
 0001:001776e0       ??R?$AABBTreeOverlap@$00USphereAABBTest@Gu@physx@@VAABBTree@23@UBVHNode@23@U?$MainTreeOverlapPrunerCallback@USphereAABBTest@Gu@physx@@@@@Gu@physx@@QEAA_NAEBVAABBTreeBounds@12@AEBVAABBTree@12@AEBUSphereAABBTest@12@AEAU?$MainTreeOverlapPrunerCallback@USphereAABBTest@Gu@physx@@@@@Z 00000001801786e0 f i GuExtendedBucketPruner.obj
 0001:00177a00       ??R?$AABBTreeOverlap@$00USphereAABBTest@Gu@physx@@VAABBTree@23@UBVHNode@23@UOverlapCallbackAdapter@23@@Gu@physx@@QEAA_NAEBVAABBTreeBounds@12@AEBVAABBTree@12@AEBUSphereAABBTest@12@AEAUOverlapCallbackAdapter@12@@Z 0000000180178a00 f i GuExtendedBucketPruner.obj
 0001:00177cf0       ??R?$AABBTreeRaycast@$00$00VAABBTree@Gu@physx@@UBVHNode@23@U?$MainTreeRaycastPrunerCallback@$00@@@Gu@physx@@QEAA_NAEBVAABBTreeBounds@12@AEBVAABBTree@12@AEBV?$PxVec3T@M@2@2AEAM2AEAU?$MainTreeRaycastPrunerCallback@$00@@@Z 0000000180178cf0 f i GuExtendedBucketPruner.obj
 0001:00178410       ??R?$AABBTreeRaycast@$00$00VAABBTree@Gu@physx@@UBVHNode@23@URaycastCallbackAdapter@23@@Gu@physx@@QEAA_NAEBVAABBTreeBounds@12@AEBVAABBTree@12@AEBV?$PxVec3T@M@2@2AEAM2AEAURaycastCallbackAdapter@12@@Z 0000000180179410 f i GuExtendedBucketPruner.obj
 0001:00178af0       ??R?$AABBTreeRaycast@$0A@$00VAABBTree@Gu@physx@@UBVHNode@23@U?$MainTreeRaycastPrunerCallback@$0A@@@@Gu@physx@@QEAA_NAEBVAABBTreeBounds@12@AEBVAABBTree@12@AEBV?$PxVec3T@M@2@2AEAM2AEAU?$MainTreeRaycastPrunerCallback@$0A@@@@Z 0000000180179af0 f i GuExtendedBucketPruner.obj
 0001:001791b0       ??R?$AABBTreeRaycast@$0A@$00VAABBTree@Gu@physx@@UBVHNode@23@URaycastCallbackAdapter@23@@Gu@physx@@QEAA_NAEBVAABBTreeBounds@12@AEBVAABBTree@12@AEBV?$PxVec3T@M@2@2AEAM2AEAURaycastCallbackAdapter@12@@Z 000000018017a1b0 f i GuExtendedBucketPruner.obj
 0001:00179830       ?addTree@ExtendedBucketPruner@Gu@physx@@QEAAXAEBVAABBTreeMergeData@23@I@Z 000000018017a830 f   GuExtendedBucketPruner.obj
 0001:00179b10       ?buildMainAABBTree@ExtendedBucketPruner@Gu@physx@@AEAAXXZ 000000018017ab10 f   GuExtendedBucketPruner.obj
 0001:00179bb0       ?create@?$PxHashBase@V?$PxPair@$$CBUPrunerPayload@Gu@physx@@UExtendedBucketPrunerData@23@@physx@@UPrunerPayload@Gu@2@UExtendedBucketPrunerHash@42@UGetKey@?$PxHashMapBase@UPrunerPayload@Gu@physx@@UExtendedBucketPrunerData@23@UExtendedBucketPrunerHash@23@VPxAllocator@3@@2@VPxAllocator@2@$00@physx@@QEAAPEAV?$PxPair@$$CBUPrunerPayload@Gu@physx@@UExtendedBucketPrunerData@23@@2@AEBUPrunerPayload@Gu@2@AEA_N@Z 000000018017abb0 f i GuExtendedBucketPruner.obj
 0001:00179d80       ?eraseInternal@?$PxHashBase@V?$PxPair@$$CBUPrunerPayload@Gu@physx@@UExtendedBucketPrunerData@23@@physx@@UPrunerPayload@Gu@2@UExtendedBucketPrunerHash@42@UGetKey@?$PxHashMapBase@UPrunerPayload@Gu@physx@@UExtendedBucketPrunerData@23@UExtendedBucketPrunerHash@23@VPxAllocator@3@@2@VPxAllocator@2@$00@physx@@AEAA_NPEAI@Z 000000018017ad80 f i GuExtendedBucketPruner.obj
 0001:00179ea0       ?find@?$PxHashMapBase@UPrunerPayload@Gu@physx@@UExtendedBucketPrunerData@23@UExtendedBucketPrunerHash@23@VPxAllocator@3@@physx@@QEBAPEBV?$PxPair@$$CBUPrunerPayload@Gu@physx@@UExtendedBucketPrunerData@23@@2@AEBUPrunerPayload@Gu@2@@Z 000000018017aea0 f i GuExtendedBucketPruner.obj
 0001:00179f90       ?getGlobalBounds@ExtendedBucketPruner@Gu@physx@@QEBAXAEAVPxBounds3@3@@Z 000000018017af90 f   GuExtendedBucketPruner.obj
 0001:0017a060       ?invalidateObject@ExtendedBucketPruner@Gu@physx@@AEAAXAEBUExtendedBucketPrunerData@23@IAEBUPrunerPayload@23@I@Z 000000018017b060 f   GuExtendedBucketPruner.obj
 0001:0017a1a0       ?overlap@ExtendedBucketPruner@Gu@physx@@QEBA_NAEBVShapeData@23@AEAUPrunerOverlapCallback@23@@Z 000000018017b1a0 f   GuExtendedBucketPruner.obj
 0001:0017a980       ?raycast@ExtendedBucketPruner@Gu@physx@@QEBA_NAEBV?$PxVec3T@M@3@0AEAMAEAUPrunerRaycastCallback@23@@Z 000000018017b980 f   GuExtendedBucketPruner.obj
 0001:0017aa60       ?refitMarkedNodes@ExtendedBucketPruner@Gu@physx@@QEAAXPEBVPxBounds3@3@@Z 000000018017ba60 f   GuExtendedBucketPruner.obj
 0001:0017afd0       ?release@ExtendedBucketPruner@Gu@physx@@QEAAXXZ 000000018017bfd0 f   GuExtendedBucketPruner.obj
 0001:0017b0a0       ?removeMarkedObjects@ExtendedBucketPruner@Gu@physx@@QEAAII@Z 000000018017c0a0 f   GuExtendedBucketPruner.obj
 0001:0017b3c0       ?removeObject@ExtendedBucketPruner@Gu@physx@@QEAA_NAEBUPrunerPayload@23@II0I@Z 000000018017c3c0 f   GuExtendedBucketPruner.obj
 0001:0017b5b0       ?reserveInternal@?$PxHashBase@V?$PxPair@$$CBUPrunerPayload@Gu@physx@@UExtendedBucketPrunerData@23@@physx@@UPrunerPayload@Gu@2@UExtendedBucketPrunerHash@42@UGetKey@?$PxHashMapBase@UPrunerPayload@Gu@physx@@UExtendedBucketPrunerData@23@UExtendedBucketPrunerHash@23@VPxAllocator@3@@2@VPxAllocator@2@$00@physx@@AEAAXI@Z 000000018017c5b0 f i GuExtendedBucketPruner.obj
 0001:0017b7b0       ?shiftOrigin@ExtendedBucketPruner@Gu@physx@@QEAAXAEBV?$PxVec3T@M@3@@Z 000000018017c7b0 f   GuExtendedBucketPruner.obj
 0001:0017b830       ?swapIndex@ExtendedBucketPruner@Gu@physx@@QEAAXIAEBUPrunerPayload@23@I_N@Z 000000018017c830 f   GuExtendedBucketPruner.obj
 0001:0017b900       ?sweep@ExtendedBucketPruner@Gu@physx@@QEBA_NAEBVShapeData@23@AEBV?$PxVec3T@M@3@AEAMAEAUPrunerRaycastCallback@23@@Z 000000018017c900 f   GuExtendedBucketPruner.obj
 0001:0017ba90       ?updateObject@ExtendedBucketPruner@Gu@physx@@QEAA_NAEBVPxBounds3@3@AEBV?$PxTransformT@M@3@AEBUPrunerPayload@23@II@Z 000000018017ca90 f   GuExtendedBucketPruner.obj
 0001:0017bb60       ?visualize@ExtendedBucketPruner@Gu@physx@@QEBAXAEAVPxRenderOutput@3@I@Z 000000018017cb60 f   GuExtendedBucketPruner.obj
 0001:0017bbf0       ??0?$OBBAABBTests@$00@Gu@physx@@QEAA@AEBV?$PxVec3T@M@2@AEBV?$PxMat33T@M@2@0@Z 000000018017cbf0 f i GuSecondaryPruner.obj
 0001:0017db30       ??_ECompanionPruner@Gu@physx@@UEAAPEAXI@Z 000000018017eb30 f i GuSecondaryPruner.obj
 0001:0017db30       ??_GCompanionPruner@Gu@physx@@UEAAPEAXI@Z 000000018017eb30 f i GuSecondaryPruner.obj
 0001:0017db80       ??_ECompanionPrunerAABBTree@@UEAAPEAXI@Z 000000018017eb80 f i GuSecondaryPruner.obj
 0001:0017db80       ??_GCompanionPrunerAABBTree@@UEAAPEAXI@Z 000000018017eb80 f i GuSecondaryPruner.obj
 0001:0017dc30       ??_ECompanionPrunerBucket@@UEAAPEAXI@Z 000000018017ec30 f i GuSecondaryPruner.obj
 0001:0017dc30       ??_GCompanionPrunerBucket@@UEAAPEAXI@Z 000000018017ec30 f i GuSecondaryPruner.obj
 0001:0017dcb0       ??_ECompanionPrunerIncremental@@UEAAPEAXI@Z 000000018017ecb0 f i GuSecondaryPruner.obj
 0001:0017dcb0       ??_GCompanionPrunerIncremental@@UEAAPEAXI@Z 000000018017ecb0 f i GuSecondaryPruner.obj
 0001:0017dd30       ?addObject@CompanionPrunerAABBTree@@UEAA_NAEBUPrunerPayload@Gu@physx@@IAEBVPxBounds3@4@AEBV?$PxTransformT@M@4@II@Z 000000018017ed30 f   GuSecondaryPruner.obj
 0001:0017df70       ?addObject@CompanionPrunerBucket@@UEAA_NAEBUPrunerPayload@Gu@physx@@IAEBVPxBounds3@4@AEBV?$PxTransformT@M@4@II@Z 000000018017ef70 f i GuSecondaryPruner.obj
 0001:0017df90       ?addObject@CompanionPrunerIncremental@@UEAA_NAEBUPrunerPayload@Gu@physx@@IAEBVPxBounds3@4@AEBV?$PxTransformT@M@4@II@Z 000000018017ef90 f i GuSecondaryPruner.obj
 0001:0017dfb0       ?addObjectInternal@CompanionPrunerAABBTree@@QEAA_NII@Z 000000018017efb0 f   GuSecondaryPruner.obj
 0001:0017e150       ?build@CompanionPrunerAABBTree@@UEAAXXZ 000000018017f150 f   GuSecondaryPruner.obj
 0001:0017e630       ?createCompanionPruner@Gu@physx@@YAPEAVCompanionPruner@12@_KW4CompanionPrunerType@12@PEBVPruningPool@12@@Z 000000018017f630 f   GuSecondaryPruner.obj
 0001:0017e840       ?getGlobalBounds@CompanionPrunerAABBTree@@UEBAXAEAVPxBounds3@physx@@@Z 000000018017f840 f   GuSecondaryPruner.obj
 0001:0017e950       ?getGlobalBounds@CompanionPrunerBucket@@UEBAXAEAVPxBounds3@physx@@@Z 000000018017f950 f i GuSecondaryPruner.obj
 0001:0017e960       ?getGlobalBounds@CompanionPrunerIncremental@@UEBAXAEAVPxBounds3@physx@@@Z 000000018017f960 f i GuSecondaryPruner.obj
 0001:0017e970       ?getNbObjects@CompanionPrunerAABBTree@@UEBAIXZ 000000018017f970 f   GuSecondaryPruner.obj
 0001:0017e980       ?getNbObjects@CompanionPrunerBucket@@UEBAIXZ 000000018017f980 f i GuSecondaryPruner.obj
 0001:0017e990       ?getNbObjects@CompanionPrunerIncremental@@UEBAIXZ 000000018017f990 f i GuSecondaryPruner.obj
 0001:0017e9a0       ?growAndPushBack@?$PxArray@ULocalData@CompanionPrunerAABBTree@@V?$PxReflectionAllocator@ULocalData@CompanionPrunerAABBTree@@@physx@@@physx@@IEAAAEAULocalData@CompanionPrunerAABBTree@@AEBU34@@Z 000000018017f9a0 f i GuSecondaryPruner.obj
 0001:0017eac0       ?overlap@CompanionPrunerAABBTree@@UEBA_NAEBVShapeData@Gu@physx@@AEAUPrunerOverlapCallback@34@@Z 000000018017fac0 f   GuSecondaryPruner.obj
 0001:0017fa50       ?overlap@CompanionPrunerBucket@@UEBA_NAEBVShapeData@Gu@physx@@AEAUPrunerOverlapCallback@34@@Z 0000000180180a50 f i GuSecondaryPruner.obj
 0001:0017fa70       ?overlap@CompanionPrunerIncremental@@UEBA_NAEBVShapeData@Gu@physx@@AEAUPrunerOverlapCallback@34@@Z 0000000180180a70 f i GuSecondaryPruner.obj
 0001:0017fa90       ?raycast@CompanionPrunerAABBTree@@UEBA_NAEBV?$PxVec3T@M@physx@@0AEAMAEAUPrunerRaycastCallback@Gu@3@@Z 0000000180180a90 f   GuSecondaryPruner.obj
 0001:0017fe70       ?raycast@CompanionPrunerBucket@@UEBA_NAEBV?$PxVec3T@M@physx@@0AEAMAEAUPrunerRaycastCallback@Gu@3@@Z 0000000180180e70 f i GuSecondaryPruner.obj
 0001:0017fe90       ?raycast@CompanionPrunerIncremental@@UEBA_NAEBV?$PxVec3T@M@physx@@0AEAMAEAUPrunerRaycastCallback@Gu@3@@Z 0000000180180e90 f i GuSecondaryPruner.obj
 0001:0017feb0       ?release@CompanionPrunerAABBTree@@UEAAXXZ 0000000180180eb0 f   GuSecondaryPruner.obj
 0001:0017fec0       ?release@CompanionPrunerBucket@@UEAAXXZ 0000000180180ec0 f i GuSecondaryPruner.obj
 0001:0017fed0       ?release@CompanionPrunerIncremental@@UEAAXXZ 0000000180180ed0 f i GuSecondaryPruner.obj
 0001:0017fee0       ?releaseInternal@CompanionPrunerAABBTree@@QEAAXXZ 0000000180180ee0 f   GuSecondaryPruner.obj
 0001:0017ff60       ?removeMarkedObjects@CompanionPrunerAABBTree@@UEAAII@Z 0000000180180f60 f   GuSecondaryPruner.obj
 0001:0017ff80       ?removeMarkedObjects@CompanionPrunerBucket@@UEAAII@Z 0000000180180f80 f i GuSecondaryPruner.obj
 0001:0017ff90       ?removeMarkedObjects@CompanionPrunerIncremental@@UEAAII@Z 0000000180180f90 f i GuSecondaryPruner.obj
 0001:0017ffa0       ?removeObject@CompanionPrunerAABBTree@@UEAA_NAEBUPrunerPayload@Gu@physx@@III@Z 0000000180180fa0 f   GuSecondaryPruner.obj
 0001:00180040       ?removeObject@CompanionPrunerBucket@@UEAA_NAEBUPrunerPayload@Gu@physx@@III@Z 0000000180181040 f i GuSecondaryPruner.obj
 0001:00180060       ?removeObject@CompanionPrunerIncremental@@UEAA_NAEBUPrunerPayload@Gu@physx@@III@Z 0000000180181060 f i GuSecondaryPruner.obj
 0001:00180080       ?shiftOrigin@CompanionPrunerAABBTree@@UEAAXAEBV?$PxVec3T@M@physx@@@Z 0000000180181080 f   GuSecondaryPruner.obj
 0001:001801b0       ?shiftOrigin@CompanionPrunerIncremental@@UEAAXAEBV?$PxVec3T@M@physx@@@Z 00000001801811b0 f i GuSecondaryPruner.obj
 0001:001801c0       ?swapIndex@CompanionPrunerIncremental@@UEAAXII@Z 00000001801811c0 f i GuSecondaryPruner.obj
 0001:001801d0       ?sweep@CompanionPrunerAABBTree@@UEBA_NAEBVShapeData@Gu@physx@@AEBV?$PxVec3T@M@4@AEAMAEAUPrunerRaycastCallback@34@@Z 00000001801811d0 f   GuSecondaryPruner.obj
 0001:00180710       ?sweep@CompanionPrunerBucket@@UEBA_NAEBVShapeData@Gu@physx@@AEBV?$PxVec3T@M@4@AEAMAEAUPrunerRaycastCallback@34@@Z 0000000180181710 f i GuSecondaryPruner.obj
 0001:00180730       ?sweep@CompanionPrunerIncremental@@UEBA_NAEBVShapeData@Gu@physx@@AEBV?$PxVec3T@M@4@AEAMAEAUPrunerRaycastCallback@34@@Z 0000000180181730 f i GuSecondaryPruner.obj
 0001:00180750       ?timeStampChange@CompanionPrunerIncremental@@UEAAXXZ 0000000180181750 f i GuSecondaryPruner.obj
 0001:00180770       ?updateObject@CompanionPrunerAABBTree@@UEAA_NAEBUPrunerPayload@Gu@physx@@IAEBVPxBounds3@4@AEBV?$PxTransformT@M@4@I@Z 0000000180181770 f   GuSecondaryPruner.obj
 0001:001807f0       ?updateObject@CompanionPrunerBucket@@UEAA_NAEBUPrunerPayload@Gu@physx@@IAEBVPxBounds3@4@AEBV?$PxTransformT@M@4@I@Z 00000001801817f0 f i GuSecondaryPruner.obj
 0001:00180810       ?updateObject@CompanionPrunerIncremental@@UEAA_NAEBUPrunerPayload@Gu@physx@@IAEBVPxBounds3@4@AEBV?$PxTransformT@M@4@I@Z 0000000180181810 f i GuSecondaryPruner.obj
 0001:00180820       ?visualize@CompanionPrunerAABBTree@@UEBAXAEAVPxRenderOutput@physx@@I@Z 0000000180181820 f   GuSecondaryPruner.obj
 0001:00180840       ?visualize@CompanionPrunerIncremental@@UEBAXAEAVPxRenderOutput@physx@@I@Z 0000000180181840 f i GuSecondaryPruner.obj
 0001:00180850       ??0AABBPruner@Gu@physx@@QEAA@_N_KW4CompanionPrunerType@12@W4BVHBuildStrategy@12@I@Z 0000000180181850 f   GuAABBPruner.obj
 0001:00180980       ??1AABBPruner@Gu@physx@@UEAA@XZ 0000000180181980 f   GuAABBPruner.obj
 0001:00180ad0       ??_EAABBPruner@Gu@physx@@UEAAPEAXI@Z 0000000180181ad0 f i GuAABBPruner.obj
 0001:00180ad0       ??_GAABBPruner@Gu@physx@@UEAAPEAXI@Z 0000000180181ad0 f i GuAABBPruner.obj
 0001:00180b40       ?addObjects@AABBPruner@Gu@physx@@UEAA_NPEAIPEBVPxBounds3@3@PEBUPrunerPayload@23@PEBV?$PxTransformT@M@3@I_N@Z 0000000180181b40 f   GuAABBPruner.obj
 0001:00180e20       ?buildStep@AABBPruner@Gu@physx@@UEAA_N_N@Z 0000000180181e20 f   GuAABBPruner.obj
 0001:00181220       ?commit@AABBPruner@Gu@physx@@UEAAXXZ 0000000180182220 f   GuAABBPruner.obj
 0001:001818f0       ?fullRebuildAABBTree@AABBPruner@Gu@physx@@QEAA_NXZ 00000001801828f0 f   GuAABBPruner.obj
 0001:00181af0       ?getGlobalBounds@AABBPruner@Gu@physx@@UEBAXAEAVPxBounds3@3@@Z 0000000180182af0 f   GuAABBPruner.obj
 0001:00181c30       ?getPayloadData@AABBPruner@Gu@physx@@UEBAAEBUPrunerPayload@23@IPEAUPrunerPayloadData@23@@Z 0000000180182c30 f i GuAABBPruner.obj
 0001:00181c90       ?growAndPushBack@?$PxArray@UNewTreeFixup@AABBPruner@Gu@physx@@V?$PxReflectionAllocator@UNewTreeFixup@AABBPruner@Gu@physx@@@4@@physx@@IEAAAEAUNewTreeFixup@AABBPruner@Gu@2@AEBU3452@@Z 0000000180182c90 f i GuAABBPruner.obj
 0001:00181db0       ?isDynamic@AABBPruner@Gu@physx@@UEBA_NXZ 0000000180182db0 f i GuAABBPruner.obj
 0001:00181dc0       ?merge@AABBPruner@Gu@physx@@UEAAXPEBX@Z 0000000180182dc0 f   GuAABBPruner.obj
 0001:00181e40       ?overlap@AABBPruner@Gu@physx@@UEBA_NAEBVShapeData@23@AEAUPrunerOverlapCallback@23@@Z 0000000180182e40 f   GuAABBPruner.obj
 0001:00182410       ?preallocate@AABBPruner@Gu@physx@@UEAAXI@Z 0000000180183410 f i GuAABBPruner.obj
 0001:00182420       ?prepareBuild@AABBPruner@Gu@physx@@UEAA_NXZ 0000000180183420 f   GuAABBPruner.obj
 0001:00182630       ?purge@AABBPruner@Gu@physx@@UEAAXXZ 0000000180183630 f   GuAABBPruner.obj
 0001:00182650       ?raycast@AABBPruner@Gu@physx@@UEBA_NAEBV?$PxVec3T@M@3@0AEAMAEAUPrunerRaycastCallback@23@@Z 0000000180183650 f   GuAABBPruner.obj
 0001:00182740       ?refitUpdatedAndRemoved@AABBPruner@Gu@physx@@QEAAXXZ 0000000180183740 f   GuAABBPruner.obj
 0001:00182810       ?release@AABBPruner@Gu@physx@@QEAAXXZ 0000000180183810 f   GuAABBPruner.obj
 0001:00182940       ?removeObjects@AABBPruner@Gu@physx@@UEAAXPEBIIPEAUPrunerPayloadRemovalCallback@23@@Z 0000000180183940 f   GuAABBPruner.obj
 0001:00182c10       ?setRebuildRateHint@AABBPruner@Gu@physx@@UEAAXI@Z 0000000180183c10 f   GuAABBPruner.obj
 0001:00182c30       ?setTransform@AABBPruner@Gu@physx@@UEAA_NIAEBV?$PxTransformT@M@3@@Z 0000000180183c30 f i GuAABBPruner.obj
 0001:00182c90       ?shiftOrigin@AABBPruner@Gu@physx@@UEAAXAEBV?$PxVec3T@M@3@@Z 0000000180183c90 f   GuAABBPruner.obj
 0001:00182d00       ?sweep@AABBPruner@Gu@physx@@UEBA_NAEBVShapeData@23@AEBV?$PxVec3T@M@3@AEAMAEAUPrunerRaycastCallback@23@@Z 0000000180183d00 f   GuAABBPruner.obj
 0001:00182e90       ?updateObjects@AABBPruner@Gu@physx@@UEAAXPEBIIM0PEBVPxBounds3@3@PEBUPxTransformPadded@3@@Z 0000000180183e90 f   GuAABBPruner.obj
 0001:00183130       ?visualize@AABBPruner@Gu@physx@@UEBAXAEAVPxRenderOutput@3@II@Z 0000000180184130 f   GuAABBPruner.obj
 0001:001831e0       ??0ActorShapeMap@Gu@physx@@QEAA@XZ 00000001801841e0 f   GuActorShapeMap.obj
 0001:00183240       ??1ActorShapeMap@Gu@physx@@QEAA@XZ 0000000180184240 f   GuActorShapeMap.obj
 0001:001832a0       ?add@ActorShapeMap@Gu@physx@@QEAA_NIPEBX0_K@Z 00000001801842a0 f   GuActorShapeMap.obj
 0001:00183430       ?create@?$PxHashBase@V?$PxPair@$$CBUActorShape@ActorShapeMap@Gu@physx@@_K@physx@@UActorShape@ActorShapeMap@Gu@2@U?$PxHash@UActorShape@ActorShapeMap@Gu@physx@@@2@UGetKey@?$PxHashMapBase@UActorShape@ActorShapeMap@Gu@physx@@_KU?$PxHash@UActorShape@ActorShapeMap@Gu@physx@@@4@VPxAllocator@4@@2@VPxAllocator@2@$00@physx@@QEAAPEAV?$PxPair@$$CBUActorShape@ActorShapeMap@Gu@physx@@_K@2@AEBUActorShape@ActorShapeMap@Gu@2@AEA_N@Z 0000000180184430 f i GuActorShapeMap.obj
 0001:00183620       ?eraseInternal@?$PxHashBase@V?$PxPair@$$CBUActorShape@ActorShapeMap@Gu@physx@@_K@physx@@UActorShape@ActorShapeMap@Gu@2@U?$PxHash@UActorShape@ActorShapeMap@Gu@physx@@@2@UGetKey@?$PxHashMapBase@UActorShape@ActorShapeMap@Gu@physx@@_KU?$PxHash@UActorShape@ActorShapeMap@Gu@physx@@@4@VPxAllocator@4@@2@VPxAllocator@2@$00@physx@@AEAA_NPEAI@Z 0000000180184620 f i GuActorShapeMap.obj
 0001:00183730       ?find@ActorShapeMap@Gu@physx@@QEBA_KIPEBX0@Z 0000000180184730 f   GuActorShapeMap.obj
 0001:00183820       ?remove@ActorShapeMap@Gu@physx@@QEAA_NIPEBX0PEA_K@Z 0000000180184820 f   GuActorShapeMap.obj
 0001:00183970       ?reserveInternal@?$PxHashBase@V?$PxPair@$$CBUActorShape@ActorShapeMap@Gu@physx@@_K@physx@@UActorShape@ActorShapeMap@Gu@2@U?$PxHash@UActorShape@ActorShapeMap@Gu@physx@@@2@UGetKey@?$PxHashMapBase@UActorShape@ActorShapeMap@Gu@physx@@_KU?$PxHash@UActorShape@ActorShapeMap@Gu@physx@@@4@VPxAllocator@4@@2@VPxAllocator@2@$00@physx@@AEAAXI@Z 0000000180184970 f i GuActorShapeMap.obj
 0001:00183b80       ??0QuerySystem@Gu@physx@@QEAA@_KMAEBVAdapter@12@_N@Z 0000000180184b80 f   GuQuerySystem.obj
 0001:00183c60       ??1QuerySystem@Gu@physx@@QEAA@XZ 0000000180184c60 f   GuQuerySystem.obj
 0001:00183ea0       ??_GPrunerExt@QuerySystem@Gu@physx@@QEAAPEAXI@Z 0000000180184ea0 f i GuQuerySystem.obj
 0001:00183fa0       ?addPruner@QuerySystem@Gu@physx@@QEAAIPEAVPruner@23@I@Z 0000000180184fa0 f   GuQuerySystem.obj
 0001:001840d0       ?addPrunerShape@QuerySystem@Gu@physx@@QEAA_KAEBUPrunerPayload@23@I_NAEBV?$PxTransformT@M@3@PEBVPxBounds3@3@@Z 00000001801850d0 f   GuQuerySystem.obj
 0001:00184210       ?addToDirtyList@PrunerExt@QuerySystem@Gu@physx@@QEAAXIIAEBV?$PxTransformT@M@4@PEBVPxBounds3@4@@Z 0000000180185210 f   GuQuerySystem.obj
 0001:00184450       ?commitUpdates@QuerySystem@Gu@physx@@QEAAXXZ 0000000180185450 f   GuQuerySystem.obj
 0001:00184570       ?createTreeOfPruners@QuerySystem@Gu@physx@@QEAAXXZ 0000000180185570 f   GuQuerySystem.obj
 0001:00184750       ?flushMemory@QuerySystem@Gu@physx@@QEAAXXZ 0000000180185750 f   GuQuerySystem.obj
 0001:001847e0       ?getPayloadData@QuerySystem@Gu@physx@@QEBAAEBUPrunerPayload@23@_KPEAUPrunerPayloadData@23@@Z 00000001801857e0 f   GuQuerySystem.obj
 0001:00184800       ?growAndPushBack@?$PxArray@PEAUPrunerExt@QuerySystem@Gu@physx@@V?$PxReflectionAllocator@PEAUPrunerExt@QuerySystem@Gu@physx@@@4@@physx@@IEAAAEAPEAUPrunerExt@QuerySystem@Gu@2@AEBQEAU3452@@Z 0000000180185800 f i GuQuerySystem.obj
 0001:00184920       ?overlap@QuerySystem@Gu@physx@@QEBAXAEBVShapeData@23@AEAUPrunerOverlapCallback@23@PEBVPrunerFilter@23@@Z 0000000180185920 f   GuQuerySystem.obj
 0001:00184a20       ?processDirtyList@PrunerExt@QuerySystem@Gu@physx@@QEAA_NAEBVAdapter@34@M@Z 0000000180185a20 f   GuQuerySystem.obj
 0001:00184c60       ?processDirtyLists@QuerySystem@Gu@physx@@AEAAXXZ 0000000180185c60 f   GuQuerySystem.obj
 0001:00184dc0       ?raycast@QuerySystem@Gu@physx@@QEBAXAEBV?$PxVec3T@M@3@0AEAMAEAUPrunerRaycastCallback@23@PEBVPrunerFilter@23@@Z 0000000180185dc0 f   GuQuerySystem.obj
 0001:00184f00       ?recreate@?$PxArray@UData@PrunerExt@QuerySystem@Gu@physx@@V?$PxReflectionAllocator@UData@PrunerExt@QuerySystem@Gu@physx@@@5@@physx@@IEAAXI@Z 0000000180185f00 f i GuQuerySystem.obj
 0001:00185210       ?removePruner@QuerySystem@Gu@physx@@QEAAXI@Z 0000000180186210 f   GuQuerySystem.obj
 0001:001852f0       ?removePrunerShape@QuerySystem@Gu@physx@@QEAAX_KPEAUPrunerPayloadRemovalCallback@23@@Z 00000001801862f0 f   GuQuerySystem.obj
 0001:00185520       ?sweep@QuerySystem@Gu@physx@@QEBAXAEBVShapeData@23@AEBV?$PxVec3T@M@3@AEAMAEAUPrunerRaycastCallback@23@PEBVPrunerFilter@23@@Z 0000000180186520 f   GuQuerySystem.obj
 0001:00185650       ?sync@QuerySystem@Gu@physx@@QEAAXIPEBI0PEBVPxBounds3@3@PEBUPxTransformPadded@3@I@Z 0000000180186650 f   GuQuerySystem.obj
 0001:00185700       ?update@QuerySystem@Gu@physx@@QEAAX_N0@Z 0000000180186700 f   GuQuerySystem.obj
 0001:00185870       ?updatePrunerShape@QuerySystem@Gu@physx@@QEAAX_K_NAEBV?$PxTransformT@M@3@PEBVPxBounds3@3@@Z 0000000180186870 f   GuQuerySystem.obj
 0001:00185a60       createAABBPruner           0000000180186a60 f   GuFactory.obj
 0001:00185b20       createBucketPruner         0000000180186b20 f   GuFactory.obj
 0001:00185bb0       createIncrementalPruner    0000000180186bb0 f   GuFactory.obj
 0001:00185c40       ??$PxSmallSort@I$$CBUSortBoundsPredicate@physx@@@physx@@YAXPEAIHHAEBUSortBoundsPredicate@0@@Z 0000000180186c40 f i GuRTreeCooking.obj
 0001:00185ee0       ??$PxSort@IU?$PxLess@I@physx@@V?$PxReflectionAllocator@I@2@@physx@@YAXPEAIIAEBU?$PxLess@I@0@AEBV?$PxReflectionAllocator@I@0@I@Z 0000000180186ee0 f i GuRTreeCooking.obj
 0001:00186330       ??$PxSort@IUSortBoundsPredicate@physx@@V?$PxReflectionAllocator@I@2@@physx@@YAXPEAIIAEBUSortBoundsPredicate@0@AEBV?$PxReflectionAllocator@I@0@I@Z 0000000180187330 f i GuRTreeCooking.obj
 0001:001867f0       ??$quickSelectFirstK@UBoundsLTE@physx@@@quickSelect@physx@@YAXPEIAIIIIAEBUBoundsLTE@1@@Z 00000001801877f0 f i GuRTreeCooking.obj
 0001:001869d0       ?allocate@?$PxArray@UInterval@physx@@V?$PxInlineAllocator@$0CAAA@V?$PxReflectionAllocator@UInterval@physx@@@physx@@@2@@physx@@IEAAPEAUInterval@2@I@Z 00000001801879d0 f i GuRTreeCooking.obj
 0001:00186a90       ?allocate@?$PxArray@UPxBounds3V@physx@@V?$PxReflectionAllocator@UPxBounds3V@physx@@@2@@physx@@IEAAPEAUPxBounds3V@2@I@Z 0000000180187a90 f i GuRTreeCooking.obj
 0001:00186b30       ?allocate@?$PxArray@URTreeNodeNQ@physx@@V?$PxReflectionAllocator@URTreeNodeNQ@physx@@@2@@physx@@IEAAPEAURTreeNodeNQ@2@I@Z 0000000180187b30 f i GuRTreeCooking.obj
 0001:00186bd0       ?allocate@?$PxArray@URTreeNodeQ@Gu@physx@@V?$PxReflectionAllocator@URTreeNodeQ@Gu@physx@@@3@@physx@@IEAAPEAURTreeNodeQ@Gu@2@I@Z 0000000180187bd0 f i GuRTreeCooking.obj
 0001:001878e0       ?buildFromTriangles@RTreeCooker@physx@@SAXAEAURTree@Gu@2@PEBV?$PxVec3T@M@2@IPEBGPEBIIAEAV?$PxArray@IV?$PxReflectionAllocator@I@physx@@@2@PEAURemapCallback@12@MW4Enum@PxMeshCookingHint@2@@Z 00000001801888e0 f   GuRTreeCooking.obj
 0001:00187ba0       ?copy@?$PxArray@URTreeNodeNQ@physx@@V?$PxReflectionAllocator@URTreeNodeNQ@physx@@@2@@physx@@KAXPEAURTreeNodeNQ@2@0PEBU32@@Z 0000000180188ba0 f i GuRTreeCooking.obj
 0001:00187d60       ?growAndPushBack@?$PxArray@UInterval@physx@@V?$PxInlineAllocator@$0CAAA@V?$PxReflectionAllocator@UInterval@physx@@@physx@@@2@@physx@@IEAAAEAUInterval@2@AEBU32@@Z 0000000180188d60 f i GuRTreeCooking.obj
 0001:00187e40       ?growAndPushBack@?$PxArray@UPxBounds3V@physx@@V?$PxReflectionAllocator@UPxBounds3V@physx@@@2@@physx@@IEAAAEAUPxBounds3V@2@AEBU32@@Z 0000000180188e40 f i GuRTreeCooking.obj
 0001:00187f10       ?growAndPushBack@?$PxArray@URTreeNodeNQ@physx@@V?$PxReflectionAllocator@URTreeNodeNQ@physx@@@2@@physx@@IEAAAEAURTreeNodeNQ@2@AEBU32@@Z 0000000180188f10 f i GuRTreeCooking.obj
 0001:00187ff0       ?growAndPushBack@?$PxArray@URTreeNodeQ@Gu@physx@@V?$PxReflectionAllocator@URTreeNodeQ@Gu@physx@@@3@@physx@@IEAAAEAURTreeNodeQ@Gu@2@AEBU342@@Z 0000000180188ff0 f i GuRTreeCooking.obj
 0001:001880d0       ?recreate@?$PxArray@UPxBounds3V@physx@@V?$PxReflectionAllocator@UPxBounds3V@physx@@@2@@physx@@IEAAXI@Z 00000001801890d0 f i GuRTreeCooking.obj
 0001:00188180       ?recreate@?$PxArray@URTreeNodeNQ@physx@@V?$PxReflectionAllocator@URTreeNodeNQ@physx@@@2@@physx@@IEAAXI@Z 0000000180189180 f i GuRTreeCooking.obj
 0001:00188210       ?recreate@?$PxArray@URTreeNodeQ@Gu@physx@@V?$PxReflectionAllocator@URTreeNodeQ@Gu@physx@@@3@@physx@@IEAAXI@Z 0000000180189210 f i GuRTreeCooking.obj
 0001:001882d0       ?resizeUninitialized@?$PxArray@URTreeNodeNQ@physx@@V?$PxReflectionAllocator@URTreeNodeNQ@physx@@@2@@physx@@QEAAXI@Z 00000001801892d0 f i GuRTreeCooking.obj
 0001:00188310       ?sort4@SubSortQuick@physx@@QEAAXPEIAIIAEAV?$PxArray@URTreeNodeNQ@physx@@V?$PxReflectionAllocator@URTreeNodeNQ@physx@@@2@@2@AEAIAEAUPxBounds3V@2@I@Z 0000000180189310 f i GuRTreeCooking.obj
 0001:001886a0       ?sort4@SubSortSAH@physx@@QEAAXPEAIIAEAV?$PxArray@URTreeNodeNQ@physx@@V?$PxReflectionAllocator@URTreeNodeNQ@physx@@@2@@2@AEAIIPEAURTreeNodeNQ@2@@Z 00000001801896a0 f i GuRTreeCooking.obj
 0001:00188f00       ?split@SubSortSAH@physx@@QEAAIPEAII@Z 0000000180189f00 f i GuRTreeCooking.obj
 0001:00189980       cookBVH                    000000018018a980 f   GuCookingBVH.obj
 0001:00189ae0       createBVH                  000000018018aae0 f   GuCookingBVH.obj
 0001:00189c40       cookHeightField            000000018018ac40 f   GuCookingHF.obj
 0001:00189d00       createHeightField          000000018018ad00 f   GuCookingHF.obj
 0001:0018a2e0       ?isFinite@?$PxVec3T@M@physx@@QEBA_NXZ 000000018018b2e0 f i GuCookingConvexMesh.obj
 0001:0018a340       computeHullPolygons        000000018018b340 f   GuCookingConvexMesh.obj
 0001:0018a520       cookConvexMesh             000000018018b520 f   GuCookingConvexMesh.obj
 0001:0018a690       createConvexMesh           000000018018b690 f   GuCookingConvexMesh.obj
 0001:0018a830       validateConvexMesh         000000018018b830 f   GuCookingConvexMesh.obj
 0001:0018a950       ??1BV4TriangleMeshBuilder@physx@@UEAA@XZ 000000018018b950 f   GuCookingTriangleMesh.obj
 0001:0018a9e0       ??1RTreeTriangleMeshBuilder@physx@@UEAA@XZ 000000018018b9e0 f   GuCookingTriangleMesh.obj
 0001:0018aa50       ??_EBV4TriangleMeshBuilder@physx@@UEAAPEAXI@Z 000000018018ba50 f i GuCookingTriangleMesh.obj
 0001:0018aa50       ??_GBV4TriangleMeshBuilder@physx@@UEAAPEAXI@Z 000000018018ba50 f i GuCookingTriangleMesh.obj
 0001:0018aa90       ??_ERTreeTriangleMeshBuilder@physx@@UEAAPEAXI@Z 000000018018ba90 f i GuCookingTriangleMesh.obj
 0001:0018aa90       ??_GRTreeTriangleMeshBuilder@physx@@UEAAPEAXI@Z 000000018018ba90 f i GuCookingTriangleMesh.obj
 0001:0018aad0       ??_ETriangleMeshBuilder@physx@@UEAAPEAXI@Z 000000018018bad0 f i GuCookingTriangleMesh.obj
 0001:0018aad0       ??_GTriangleMeshBuilder@physx@@UEAAPEAXI@Z 000000018018bad0 f i GuCookingTriangleMesh.obj
 0001:0018b480       ?buildInertiaTensor@TriangleMeshBuilder@physx@@IEAAXXZ 000000018018c480 f   GuCookingTriangleMesh.obj
 0001:0018b5d0       ?buildInertiaTensorFromSDF@TriangleMeshBuilder@physx@@IEAAXXZ 000000018018c5d0 f   GuCookingTriangleMesh.obj
 0001:0018b7f0       ?cleanMesh@TriangleMeshBuilder@physx@@QEAA_N_NPEAW4Enum@PxTriangleMeshCookingResult@2@@Z 000000018018c7f0 f   GuCookingTriangleMesh.obj
 0001:0018bc80       ?createGRBMidPhaseAndData@TriangleMeshBuilder@physx@@QEAAXI@Z 000000018018cc80 f   GuCookingTriangleMesh.obj
 0001:0018be30       ?createMidPhaseStructure@BV32TriangleMeshBuilder@physx@@SAXAEBUPxCookingParams@2@AEAVTriangleMeshData@Gu@2@AEAVBV32Tree@52@@Z 000000018018ce30 f   GuCookingTriangleMesh.obj
 0001:0018c070       ?createMidPhaseStructure@BV4TriangleMeshBuilder@physx@@UEAAXXZ 000000018018d070 f   GuCookingTriangleMesh.obj
 0001:0018c310       ?createMidPhaseStructure@RTreeTriangleMeshBuilder@physx@@UEAAXXZ 000000018018d310 f   GuCookingTriangleMesh.obj
 0001:0018c400       ?createSharedEdgeData@TriangleMeshBuilder@physx@@QEAAX_N0@Z 000000018018d400 f   GuCookingTriangleMesh.obj
 0001:0018caa0       ?createVertMapping@TriangleMeshBuilder@physx@@QEAAXXZ 000000018018daa0 f   GuCookingTriangleMesh.obj
 0001:0018ce00       ?importMesh@TriangleMeshBuilder@physx@@IEAA_NAEBVPxTriangleMeshDesc@2@AEBUPxCookingParams@2@PEAW4Enum@PxTriangleMeshCookingResult@2@_N@Z 000000018018de00 f   GuCookingTriangleMesh.obj
 0001:0018d2d0       ?isValid@PxTriangleMeshDesc@physx@@QEBA_NXZ 000000018018e2d0 f i GuCookingTriangleMesh.obj
 0001:0018d3a0       ?loadFromDescInternal@TriangleMeshBuilder@physx@@IEAA_NAEAVPxTriangleMeshDesc@2@PEAW4Enum@PxTriangleMeshCookingResult@2@_N@Z 000000018018e3a0 f   GuCookingTriangleMesh.obj
 0001:0018d5b0       ?onMeshIndexFormatChange@BV4TriangleMeshBuilder@physx@@UEAAXXZ 000000018018e5b0 f   GuCookingTriangleMesh.obj
 0001:0018d5f0       ?remap@RTreeCookerRemap@@UEAAXPEAIII@Z 000000018018e5f0 f i GuCookingTriangleMesh.obj
 0001:0018d610       ?remapTopology@TriangleMeshBuilder@physx@@QEAAXPEBI@Z 000000018018e610 f   GuCookingTriangleMesh.obj
 0001:0018d8a0       ?save@TriangleMeshBuilder@physx@@QEBA_NAEAVPxOutputStream@2@_NAEBUPxCookingParams@2@@Z 000000018018e8a0 f   GuCookingTriangleMesh.obj
 0001:0018e050       ?saveMidPhaseStructure@BV32TriangleMeshBuilder@physx@@SAXPEAVBV32Tree@Gu@2@AEAVPxOutputStream@2@_N@Z 000000018018f050 f   GuCookingTriangleMesh.obj
 0001:0018e250       ?saveMidPhaseStructure@BV4TriangleMeshBuilder@physx@@UEBAXAEAVPxOutputStream@2@_N@Z 000000018018f250 f   GuCookingTriangleMesh.obj
 0001:0018e400       ?saveMidPhaseStructure@RTreeTriangleMeshBuilder@physx@@UEBAXAEAVPxOutputStream@2@_N@Z 000000018018f400 f   GuCookingTriangleMesh.obj
 0001:0018e640       cookTriangleMesh           000000018018f640 f   GuCookingTriangleMesh.obj
 0001:0018e950       createTriangleMesh         000000018018f950 f   GuCookingTriangleMesh.obj
 0001:0018eb60       validateTriangleMesh       000000018018fb60 f   GuCookingTriangleMesh.obj
 0001:0018ee10       ??0SoftBodyCollisionData@Gu@physx@@QEAA@XZ 000000018018fe10 f i GuCookingTetrahedronMesh.obj
 0001:0018ee70       ??_ECollisionTetrahedronMeshData@Gu@physx@@UEAAPEAXI@Z 000000018018fe70 f i GuCookingTetrahedronMesh.obj
 0001:0018ee70       ??_GCollisionTetrahedronMeshData@Gu@physx@@UEAAPEAXI@Z 000000018018fe70 f i GuCookingTetrahedronMesh.obj
 0001:0018ef40       ??_EPxCollisionTetrahedronMeshData@physx@@UEAAPEAXI@Z 000000018018ff40 f i GuCookingTetrahedronMesh.obj
 0001:0018ef40       ??_GPxCollisionTetrahedronMeshData@physx@@UEAAPEAXI@Z 000000018018ff40 f i GuCookingTetrahedronMesh.obj
 0001:0018ef90       ??_EPxSimulationTetrahedronMeshData@physx@@UEAAPEAXI@Z 000000018018ff90 f i GuCookingTetrahedronMesh.obj
 0001:0018ef90       ??_GPxSimulationTetrahedronMeshData@physx@@UEAAPEAXI@Z 000000018018ff90 f i GuCookingTetrahedronMesh.obj
 0001:0018efe0       ??_ESimulationTetrahedronMeshData@Gu@physx@@UEAAPEAXI@Z 000000018018ffe0 f i GuCookingTetrahedronMesh.obj
 0001:0018efe0       ??_GSimulationTetrahedronMeshData@Gu@physx@@UEAAPEAXI@Z 000000018018ffe0 f i GuCookingTetrahedronMesh.obj
 0001:0018f0b0       ?closestPtPointTetrahedron@Gu@physx@@YA?AV?$PxVec3T@M@2@AEBV32@0000@Z 00000001801900b0 f i GuCookingTetrahedronMesh.obj
 0001:001901f0       ?combineGridModelPartitions@@YAXAEBVTetrahedronMeshData@Gu@physx@@AEAVSoftBodySimulationData@23@PEAPEAI@Z 00000001801911f0 f   GuCookingTetrahedronMesh.obj
 0001:00190a30       ?combineGridModelPartitionsHexMesh@@YAXAEBVTetrahedronMeshData@Gu@physx@@AEAVSoftBodySimulationData@23@PEAPEAI@Z 0000000180191a30 f   GuCookingTetrahedronMesh.obj
 0001:00191360       ?computeBarycentric@physx@@YAXAEBV?$PxVec3T@M@1@0000AEAV?$PxVec4T@M@1@@Z 0000000180192360 f i GuCookingTetrahedronMesh.obj
 0001:00191610       ?computeCollisionData@TetrahedronMeshBuilder@physx@@SA_NAEBVPxTetrahedronMeshDesc@2@AEAVTetrahedronMeshData@Gu@2@AEAVSoftBodyCollisionData@52@AEBUPxCookingParams@2@_N@Z 0000000180192610 f   GuCookingTetrahedronMesh.obj
 0001:00191840       ?computeGridModelTetrahedronPartitions@@YAPEAIAEBVTetrahedronMeshData@Gu@physx@@AEAVSoftBodySimulationData@23@@Z 0000000180192840 f   GuCookingTetrahedronMesh.obj
 0001:00191cd0       ?computeModelsMapping@TetrahedronMeshBuilder@physx@@SAXAEAVTetrahedronMeshData@Gu@2@AEBV342@AEBVSoftBodyCollisionData@42@AEAVCollisionMeshMappingData@42@_NPEBUPxBoundedData@2@@Z 0000000180192cd0 f   GuCookingTetrahedronMesh.obj
 0001:001928c0       ?computeRestPoseAndPointMass@@YAXPEAU?$TetrahedronT@I@Gu@physx@@IPEBV?$PxVec3T@M@3@PEAMPEAV?$PxMat33T@M@3@@Z 00000001801938c0 f   GuCookingTetrahedronMesh.obj
 0001:00192d00       ?computeSimData@TetrahedronMeshBuilder@physx@@SAXAEBVPxTetrahedronMeshDesc@2@AEAVTetrahedronMeshData@Gu@2@AEAVSoftBodySimulationData@52@AEBUPxCookingParams@2@@Z 0000000180193d00 f   GuCookingTetrahedronMesh.obj
 0001:001933d0       ?computeTetData@TetrahedronMeshBuilder@physx@@SAXAEBVPxTetrahedronMeshDesc@2@AEAVTetrahedronMeshData@Gu@2@@Z 00000001801943d0 f   GuCookingTetrahedronMesh.obj
 0001:001934b0       ?computeTetrahedronPartition@@YAIPEBU?$TetrahedronT@I@Gu@physx@@IPEAII@Z 00000001801944b0 f   GuCookingTetrahedronMesh.obj
 0001:001935a0       ?createCollisionModelMapping@TetrahedronMeshBuilder@physx@@SAXAEBVTetrahedronMeshData@Gu@2@AEBVSoftBodyCollisionData@42@AEAVCollisionMeshMappingData@42@@Z 00000001801945a0 f   GuCookingTetrahedronMesh.obj
 0001:00193b60       ?createGRBMidPhaseAndData@TetrahedronMeshBuilder@physx@@SAXIAEAVTetrahedronMeshData@Gu@2@AEAVSoftBodyCollisionData@42@AEBUPxCookingParams@2@@Z 0000000180194b60 f   GuCookingTetrahedronMesh.obj
 0001:001948a0       ?createMidPhaseStructure@BV32TetrahedronMeshBuilder@physx@@SAXAEBUPxCookingParams@2@AEAVTetrahedronMeshData@Gu@2@AEAVBV32Tree@52@AEAVSoftBodyCollisionData@52@@Z 00000001801958a0 f   GuCookingTetrahedronMesh.obj
 0001:00194b70       ?createMidPhaseStructure@TetrahedronMeshBuilder@physx@@SAXAEAVTetrahedronMeshData@Gu@2@AEAVSoftBodyCollisionData@42@AEBUPxCookingParams@2@@Z 0000000180195b70 f   GuCookingTetrahedronMesh.obj
 0001:00195830       ?getData@CollisionTetrahedronMeshData@Gu@physx@@UEAAPEAVPxSoftBodyCollisionData@3@XZ 0000000180196830 f i GuCookingTetrahedronMesh.obj
 0001:00195830       ?getData@CollisionTetrahedronMeshData@Gu@physx@@UEBAPEBVPxSoftBodyCollisionData@3@XZ 0000000180196830 f i GuCookingTetrahedronMesh.obj
 0001:00195830       ?getData@SimulationTetrahedronMeshData@Gu@physx@@UEAAPEAVPxSoftBodySimulationData@3@XZ 0000000180196830 f i GuCookingTetrahedronMesh.obj
 0001:00195850       ?importMesh@TetrahedronMeshBuilder@physx@@SA_NAEBVPxTetrahedronMeshDesc@2@AEBUPxCookingParams@2@AEAVTetrahedronMeshData@Gu@2@AEAVSoftBodyCollisionData@62@_N@Z 0000000180196850 f   GuCookingTetrahedronMesh.obj
 0001:00195b40       ?isValid@PxTetrahedronMeshDesc@physx@@QEBA_NXZ 0000000180196b40 f i GuCookingTetrahedronMesh.obj
 0001:00195bb0       ?loadFromDesc@TetrahedronMeshBuilder@physx@@SA_NAEBVPxTetrahedronMeshDesc@2@0VPxSoftBodySimulationDataDesc@2@AEAVTetrahedronMeshData@Gu@2@AEAVSoftBodySimulationData@62@2AEAVSoftBodyCollisionData@62@AEAVCollisionMeshMappingData@62@AEBUPxCookingParams@2@_N@Z 0000000180196bb0 f   GuCookingTetrahedronMesh.obj
 0001:00195d20       ?release@CollisionTetrahedronMeshData@Gu@physx@@UEAAXXZ 0000000180196d20 f i GuCookingTetrahedronMesh.obj
 0001:00195d40       ?reserveInternal@?$PxHashBase@V?$PxPair@$$CBVSortedTriangleInds@@I@physx@@VSortedTriangleInds@@USortedTriangleIndsHash@@UGetKey@?$PxHashMapBase@VSortedTriangleInds@@IUSortedTriangleIndsHash@@VPxAllocator@physx@@@2@VPxAllocator@2@$00@physx@@AEAAXI@Z 0000000180196d40 f i GuCookingTetrahedronMesh.obj
 0001:00195f80       ?saveSoftBodyMeshData@TetrahedronMeshBuilder@physx@@SA_NAEAVPxOutputStream@2@_NAEBUPxCookingParams@2@AEBVTetrahedronMeshData@Gu@2@AEBVSoftBodySimulationData@62@3AEBVSoftBodyCollisionData@62@AEBVCollisionMeshMappingData@62@@Z 0000000180196f80 f   GuCookingTetrahedronMesh.obj
 0001:00196690       ?saveTetrahedronMeshData@TetrahedronMeshBuilder@physx@@SA_NAEAVPxOutputStream@2@_NAEBUPxCookingParams@2@AEBVTetrahedronMeshData@Gu@2@@Z 0000000180197690 f   GuCookingTetrahedronMesh.obj
 0001:00196840       ?smoothMassRatiosWhilePreservingTotalMass@@YAXPEAMIPEBIHMM@Z 0000000180197840 f   GuCookingTetrahedronMesh.obj
 0001:00196ce0       ?support@?$LocalConvex@VTetrahedronV@Gu@physx@@@Gu@physx@@UEBA?AT__m128@@AEBT4@@Z 0000000180197ce0 f i GuCookingTetrahedronMesh.obj
 0001:00196da0       ?support@?$LocalConvex@VTetrahedronV@Gu@physx@@@Gu@physx@@UEBA?AT__m128@@AEBT4@AEAH@Z 0000000180197da0 f i GuCookingTetrahedronMesh.obj
 0001:00196f50       assembleSoftBodyMesh       0000000180197f50 f   GuCookingTetrahedronMesh.obj
 0001:00196fb0       assembleSoftBodyMesh_Sim   0000000180197fb0 f   GuCookingTetrahedronMesh.obj
 0001:00197060       computeCollisionData       0000000180198060 f   GuCookingTetrahedronMesh.obj
 0001:00197270       computeModelsMapping       0000000180198270 f   GuCookingTetrahedronMesh.obj
 0001:00197380       computeSimulationData      0000000180198380 f   GuCookingTetrahedronMesh.obj
 0001:00197580       cookSoftBodyMesh           0000000180198580 f   GuCookingTetrahedronMesh.obj
 0001:00197b60       cookTetrahedronMesh        0000000180198b60 f   GuCookingTetrahedronMesh.obj
 0001:00197c50       createSoftBodyMesh         0000000180198c50 f   GuCookingTetrahedronMesh.obj
 0001:001982b0       createTetrahedronMesh      00000001801992b0 f   GuCookingTetrahedronMesh.obj
 0001:00199fa0       ?computeVolumeIntegrals@physx@@YA_NAEBVPxSimpleTriangleMesh@1@MAEAUPxIntegrals@1@@Z 000000018019afa0 f   GuCookingVolumeIntegration.obj
 0001:00199fe0       ?computeVolumeIntegralsEberly@physx@@YA_NAEBVPxConvexMeshDesc@1@MAEAUPxIntegrals@1@AEBV?$PxVec3T@M@1@_N@Z 000000018019afe0 f   GuCookingVolumeIntegration.obj
 0001:0019a640       ??0QuickHull@local@@QEAA@AEBUPxCookingParams@physx@@AEBVPxConvexMeshDesc@3@@Z 000000018019b640 f   GuCookingQuickHullConvexHullLib.obj
 0001:0019a6f0       ??0QuickHullConvexHullLib@physx@@QEAA@AEBVPxConvexMeshDesc@1@AEBUPxCookingParams@1@@Z 000000018019b6f0 f   GuCookingQuickHullConvexHullLib.obj
 0001:0019a7e0       ??1?$MemBlock@UQuickHullFace@local@@$00@local@@QEAA@XZ 000000018019b7e0 f i GuCookingQuickHullConvexHullLib.obj
 0001:0019a7e0       ??1?$MemBlock@UQuickHullHalfEdge@local@@$0A@@local@@QEAA@XZ 000000018019b7e0 f i GuCookingQuickHullConvexHullLib.obj
 0001:0019a8a0       ??1QuickHull@local@@QEAA@XZ 000000018019b8a0 f   GuCookingQuickHullConvexHullLib.obj
 0001:0019a9f0       ??_GConvexHull@physx@@QEAAPEAXI@Z 000000018019b9f0 f i GuCookingQuickHullConvexHullLib.obj
 0001:0019aad0       ??_EConvexHullLib@physx@@UEAAPEAXI@Z 000000018019bad0 f i GuCookingQuickHullConvexHullLib.obj
 0001:0019aad0       ??_GConvexHullLib@physx@@UEAAPEAXI@Z 000000018019bad0 f i GuCookingQuickHullConvexHullLib.obj
 0001:0019ab10       ??_EQuickHullConvexHullLib@physx@@UEAAPEAXI@Z 000000018019bb10 f i GuCookingQuickHullConvexHullLib.obj
 0001:0019ab10       ??_GQuickHullConvexHullLib@physx@@UEAAPEAXI@Z 000000018019bb10 f i GuCookingQuickHullConvexHullLib.obj
 0001:0019ac20       ?addPointToHull@QuickHull@local@@IEAA_NPEBUQuickHullVertex@2@AEAUQuickHullFace@2@AEA_N@Z 000000018019bc20 f   GuCookingQuickHullConvexHullLib.obj
 0001:0019aef0       ?addSimplex@QuickHull@local@@IEAAXPEAUQuickHullVertex@2@_N@Z 000000018019bef0 f   GuCookingQuickHullConvexHullLib.obj
 0001:0019b3c0       ?allocate@?$PxArray@PEAUQuickHullFace@local@@V?$PxReflectionAllocator@PEAUQuickHullFace@local@@@physx@@@physx@@IEAAPEAPEAUQuickHullFace@local@@I@Z 000000018019c3c0 f i GuCookingQuickHullConvexHullLib.obj
 0001:0019b460       ?allocate@?$PxArray@PEAUQuickHullHalfEdge@local@@V?$PxReflectionAllocator@PEAUQuickHullHalfEdge@local@@@physx@@@physx@@IEAAPEAPEAUQuickHullHalfEdge@local@@I@Z 000000018019c460 f i GuCookingQuickHullConvexHullLib.obj
 0001:0019b500       ?allocate@?$PxArray@PEAUQuickHullVertex@local@@V?$PxReflectionAllocator@PEAUQuickHullVertex@local@@@physx@@@physx@@IEAAPEAPEAUQuickHullVertex@local@@I@Z 000000018019c500 f i GuCookingQuickHullConvexHullLib.obj
 0001:0019b5a0       ?allocate@?$PxArray@UExpandPoint@local@@V?$PxReflectionAllocator@UExpandPoint@local@@@physx@@@physx@@IEAAPEAUExpandPoint@local@@I@Z 000000018019c5a0 f i GuCookingQuickHullConvexHullLib.obj
 0001:0019b640       ?allocate@?$PxArray@VPxPlane@physx@@V?$PxReflectionAllocator@VPxPlane@physx@@@2@@physx@@IEAAPEAVPxPlane@2@I@Z 000000018019c640 f i GuCookingQuickHullConvexHullLib.obj
 0001:0019b6e0       ?buildHull@QuickHull@local@@QEAA?AW4Enum@QuickHullResult@2@XZ 000000018019c6e0 f   GuCookingQuickHullConvexHullLib.obj
 0001:0019b920       ?calculateHorizon@QuickHull@local@@IEAAXAEBV?$PxVec3T@M@physx@@PEAUQuickHullHalfEdge@2@AEAUQuickHullFace@2@AEAV?$PxArray@PEAUQuickHullHalfEdge@local@@V?$PxReflectionAllocator@PEAUQuickHullHalfEdge@local@@@physx@@@4@AEAV?$PxArray@PEAUQuickHullFace@local@@V?$PxReflectionAllocator@PEAUQuickHullFace@local@@@physx@@@4@@Z 000000018019c920 f   GuCookingQuickHullConvexHullLib.obj
 0001:0019bad0       ?canMergeFaces@QuickHull@local@@IEAA_NAEBUQuickHullHalfEdge@2@@Z 000000018019cad0 f   GuCookingQuickHullConvexHullLib.obj
 0001:0019c300       ?cleanupForSimplex@QuickHullConvexHullLib@physx@@IEAA_NPEAV?$PxVec3T@M@2@IPEAUQuickHullVertex@local@@1AEAM2@Z 000000018019d300 f   GuCookingQuickHullConvexHullLib.obj
 0001:0019cf10       ?computeMinMaxVerts@QuickHull@local@@IEAAXXZ 000000018019df10 f   GuCookingQuickHullConvexHullLib.obj
 0001:0019d2e0       ?connectHalfEdges@QuickHullFace@local@@AEAAPEAU12@PEAUQuickHullHalfEdge@2@0@Z 000000018019e2e0 f   GuCookingQuickHullConvexHullLib.obj
 0001:0019d650       ?copy@?$PxArray@UExpandPoint@local@@V?$PxReflectionAllocator@UExpandPoint@local@@@physx@@@physx@@KAXPEAUExpandPoint@local@@0PEBU34@@Z 000000018019e650 f i GuCookingQuickHullConvexHullLib.obj
 0001:0019d700       ?copy@?$PxArray@VPxPlane@physx@@V?$PxReflectionAllocator@VPxPlane@physx@@@2@@physx@@KAXPEAVPxPlane@2@0PEBV32@@Z 000000018019e700 f i GuCookingQuickHullConvexHullLib.obj
 0001:0019d800       ?createConvexHull@QuickHullConvexHullLib@physx@@UEAA?AW4Enum@PxConvexMeshCookingResult@2@XZ 000000018019e800 f   GuCookingQuickHullConvexHullLib.obj
 0001:0019dbf0       ?createEdgeList@QuickHullConvexHullLib@physx@@UEAA_NIPEBEPEAPEAEPEAPEAG2@Z 000000018019ebf0 f   GuCookingQuickHullConvexHullLib.obj
 0001:0019de10       ?createTriangle@QuickHull@local@@IEAAPEAUQuickHullFace@2@AEBUQuickHullVertex@2@00@Z 000000018019ee10 f   GuCookingQuickHullConvexHullLib.obj
 0001:0019e1f0       ?doAdjacentMerge@QuickHull@local@@IEAA_NAEAUQuickHullFace@2@_NAEA_N@Z 000000018019f1f0 f   GuCookingQuickHullConvexHullLib.obj
 0001:0019e540       ?expandHull@QuickHullConvexHullLib@physx@@IEAA?AW4Enum@PxConvexMeshCookingResult@2@XZ 000000018019f540 f   GuCookingQuickHullConvexHullLib.obj
 0001:0019ee70       ?expandHullOBB@QuickHullConvexHullLib@physx@@IEAA?AW4Enum@PxConvexMeshCookingResult@2@XZ 000000018019fe70 f   GuCookingQuickHullConvexHullLib.obj
 0001:0019f2a0       ?fillConvexMeshDesc@QuickHullConvexHullLib@physx@@UEAAXAEAVPxConvexMeshDesc@2@@Z 00000001801a02a0 f   GuCookingQuickHullConvexHullLib.obj
 0001:0019f2f0       ?fillConvexMeshDescFromCroppedHull@QuickHullConvexHullLib@physx@@IEAAXAEAVPxConvexMeshDesc@2@@Z 00000001801a02f0 f   GuCookingQuickHullConvexHullLib.obj
 0001:0019f4e0       ?fillConvexMeshDescFromQuickHull@QuickHullConvexHullLib@physx@@IEAAXAEAVPxConvexMeshDesc@2@@Z 00000001801a04e0 f   GuCookingQuickHullConvexHullLib.obj
 0001:0019f850       ?findSimplex@QuickHull@local@@IEAA_NXZ 00000001801a0850 f   GuCookingQuickHullConvexHullLib.obj
 0001:001a04d0       ?getFreeItem@?$MemBlock@UQuickHullFace@local@@$00@local@@QEAAPEAUQuickHullFace@2@XZ 00000001801a14d0 f i GuCookingQuickHullConvexHullLib.obj
 0001:001a0600       ?getFreeItem@?$MemBlock@UQuickHullHalfEdge@local@@$0A@@local@@QEAAPEAUQuickHullHalfEdge@2@XZ 00000001801a1600 f i GuCookingQuickHullConvexHullLib.obj
 0001:001a06d0       ?growAndPushBack@?$PxArray@PEAUQuickHullFace@local@@V?$PxReflectionAllocator@PEAUQuickHullFace@local@@@physx@@@physx@@IEAAAEAPEAUQuickHullFace@local@@AEBQEAU34@@Z 00000001801a16d0 f i GuCookingQuickHullConvexHullLib.obj
 0001:001a0790       ?growAndPushBack@?$PxArray@PEAUQuickHullHalfEdge@local@@V?$PxReflectionAllocator@PEAUQuickHullHalfEdge@local@@@physx@@@physx@@IEAAAEAPEAUQuickHullHalfEdge@local@@AEBQEAU34@@Z 00000001801a1790 f i GuCookingQuickHullConvexHullLib.obj
 0001:001a0850       ?growAndPushBack@?$PxArray@PEAUQuickHullVertex@local@@V?$PxReflectionAllocator@PEAUQuickHullVertex@local@@@physx@@@physx@@IEAAAEAPEAUQuickHullVertex@local@@AEBQEAU34@@Z 00000001801a1850 f i GuCookingQuickHullConvexHullLib.obj
 0001:001a0910       ?growAndPushBack@?$PxArray@UExpandPoint@local@@V?$PxReflectionAllocator@UExpandPoint@local@@@physx@@@physx@@IEAAAEAUExpandPoint@local@@AEBU34@@Z 00000001801a1910 f i GuCookingQuickHullConvexHullLib.obj
 0001:001a0a10       ?growAndPushBack@?$PxArray@VPxPlane@physx@@V?$PxReflectionAllocator@VPxPlane@physx@@@2@@physx@@IEAAAEAVPxPlane@2@AEBV32@@Z 00000001801a1a10 f i GuCookingQuickHullConvexHullLib.obj
 0001:001a0ad0       ?init@?$MemBlock@UQuickHullFace@local@@$00@local@@QEAAXI@Z 00000001801a1ad0 f i GuCookingQuickHullConvexHullLib.obj
 0001:001a0bd0       ?init@?$MemBlock@UQuickHullHalfEdge@local@@$0A@@local@@QEAAXI@Z 00000001801a1bd0 f i GuCookingQuickHullConvexHullLib.obj
 0001:001a0c60       ?mergeAdjacentFace@QuickHullFace@local@@QEAA_NPEAUQuickHullHalfEdge@2@AEAV?$PxArray@PEAUQuickHullFace@local@@V?$PxReflectionAllocator@PEAUQuickHullFace@local@@@physx@@@physx@@@Z 00000001801a1c60 f   GuCookingQuickHullConvexHullLib.obj
 0001:001a10b0       ?nextPointToAdd@QuickHull@local@@IEAAPEAUQuickHullVertex@2@AEAPEAUQuickHullFace@2@@Z 00000001801a20b0 f   GuCookingQuickHullConvexHullLib.obj
 0001:001a1230       ?parseInputVertices@QuickHull@local@@QEAAXPEBV?$PxVec3T@M@physx@@I@Z 00000001801a2230 f   GuCookingQuickHullConvexHullLib.obj
 0001:001a13b0       ?postMergeHull@QuickHull@local@@IEAAXXZ 00000001801a23b0 f   GuCookingQuickHullConvexHullLib.obj
 0001:001a1610       ?preallocate@QuickHull@local@@QEAAXI@Z 00000001801a2610 f   GuCookingQuickHullConvexHullLib.obj
 0001:001a1750       ?recreate@?$PxArray@PEAUQuickHullFace@local@@V?$PxReflectionAllocator@PEAUQuickHullFace@local@@@physx@@@physx@@IEAAXI@Z 00000001801a2750 f i GuCookingQuickHullConvexHullLib.obj
 0001:001a17f0       ?recreate@?$PxArray@PEAUQuickHullHalfEdge@local@@V?$PxReflectionAllocator@PEAUQuickHullHalfEdge@local@@@physx@@@physx@@IEAAXI@Z 00000001801a27f0 f i GuCookingQuickHullConvexHullLib.obj
 0001:001a1890       ?recreate@?$PxArray@PEAUQuickHullVertex@local@@V?$PxReflectionAllocator@PEAUQuickHullVertex@local@@@physx@@@physx@@IEAAXI@Z 00000001801a2890 f i GuCookingQuickHullConvexHullLib.obj
 0001:001a1930       ?recreate@?$PxArray@UExpandPoint@local@@V?$PxReflectionAllocator@UExpandPoint@local@@@physx@@@physx@@IEAAXI@Z 00000001801a2930 f i GuCookingQuickHullConvexHullLib.obj
 0001:001a19c0       ?recreate@?$PxArray@VPxPlane@physx@@V?$PxReflectionAllocator@VPxPlane@physx@@@2@@physx@@IEAAXI@Z 00000001801a29c0 f i GuCookingQuickHullConvexHullLib.obj
 0001:001a1a50       ?resolveUnclaimedPoints@QuickHull@local@@IEAAXAEBV?$PxArray@PEAUQuickHullFace@local@@V?$PxReflectionAllocator@PEAUQuickHullFace@local@@@physx@@@physx@@@Z 00000001801a2a50 f   GuCookingQuickHullConvexHullLib.obj
 0001:001a1cd0       ??$copy@V?$PxReflectionAllocator@VPair@@@physx@@@?$PxArray@VPair@@V?$PxReflectionAllocator@VPair@@@physx@@@physx@@IEAAXAEBV01@@Z 00000001801a2cd0 f i GuCookingConvexPolygonsBuilder.obj
 0001:001a1d50       ??0ConvexPolygonsBuilder@physx@@QEAA@PEAUConvexHullData@Gu@1@_N@Z 00000001801a2d50 f   GuCookingConvexPolygonsBuilder.obj
 0001:001a1d70       ??1ConvexPolygonsBuilder@physx@@QEAA@XZ 00000001801a2d70 f   GuCookingConvexPolygonsBuilder.obj
 0001:001a25c0       ?allocate@?$PxArray@VPair@@V?$PxReflectionAllocator@VPair@@@physx@@@physx@@IEAAPEAVPair@@I@Z 00000001801a35c0 f i GuCookingConvexPolygonsBuilder.obj
 0001:001a30a0       ?computeHullPolygons@ConvexPolygonsBuilder@physx@@QEAA_NAEBIPEBV?$PxVec3T@M@2@0PEBI@Z 00000001801a40a0 f   GuCookingConvexPolygonsBuilder.obj
 0001:001a4360       ?createPolygonData@ConvexPolygonsBuilder@physx@@AEAA_NXZ 00000001801a5360 f   GuCookingConvexPolygonsBuilder.obj
 0001:001a4d90       ?createTrianglesFromPolygons@ConvexPolygonsBuilder@physx@@AEAA_NXZ 00000001801a5d90 f   GuCookingConvexPolygonsBuilder.obj
 0001:001a6400       ?growAndPushBack@?$PxArray@VPair@@V?$PxReflectionAllocator@VPair@@@physx@@@physx@@IEAAAEAVPair@@AEBV3@@Z 00000001801a7400 f i GuCookingConvexPolygonsBuilder.obj
 0001:001a6590       ??0ConvexMeshBuilder@physx@@QEAA@_N@Z 00000001801a7590 f   GuCookingConvexMeshBuilder.obj
 0001:001a6600       ??1ConvexMeshBuilder@physx@@QEAA@XZ 00000001801a7600 f   GuCookingConvexMeshBuilder.obj
 0001:001a6a90       ?build@ConvexMeshBuilder@physx@@QEAA_NAEBVPxConvexMeshDesc@2@I_NPEAVConvexHullLib@2@@Z 00000001801a7a90 f   GuCookingConvexMeshBuilder.obj
 0001:001a6e20       ?computeHullPolygons@ConvexMeshBuilder@physx@@QEAA_NAEBIPEBV?$PxVec3T@M@2@0PEBIAEAVPxAllocatorCallback@2@AEAIAEAPEAV32@4AEAPEAI4AEAPEAUPxHullPolygon@2@@Z 00000001801a7e20 f   GuCookingConvexMeshBuilder.obj
 0001:001a7030       ?computeMassInfo@ConvexMeshBuilder@physx@@QEAAX_N@Z 00000001801a8030 f   GuCookingConvexMeshBuilder.obj
 0001:001a73c0       ?computeSDF@ConvexMeshBuilder@physx@@QEAAXAEBVPxConvexMeshDesc@2@@Z 00000001801a83c0 f   GuCookingConvexMeshBuilder.obj
 0001:001a77c0       ?copy@ConvexMeshBuilder@physx@@QEAA_NAEAUConvexHullInitData@Gu@2@@Z 00000001801a87c0 f   GuCookingConvexMeshBuilder.obj
 0001:001a7920       ?loadConvexHull@ConvexMeshBuilder@physx@@QEAA_NAEBVPxConvexMeshDesc@2@PEAVConvexHullLib@2@@Z 00000001801a8920 f   GuCookingConvexMeshBuilder.obj
 0001:001a7b70       ?save@ConvexMeshBuilder@physx@@QEBA_NAEAVPxOutputStream@2@_N@Z 00000001801a8b70 f   GuCookingConvexMeshBuilder.obj
 0001:001a7f90       ??0ConvexHull@physx@@QEAA@AEBV?$PxVec3T@M@1@AEBV?$PxTransformT@M@1@AEBV?$PxArray@VPxPlane@physx@@V?$PxReflectionAllocator@VPxPlane@physx@@@2@@1@@Z 00000001801a8f90 f   GuCookingConvexHullUtils.obj
 0001:001a90b0       ?allocate@?$PxArray@VHalfEdge@ConvexHull@physx@@V?$PxReflectionAllocator@VHalfEdge@ConvexHull@physx@@@3@@physx@@IEAAPEAVHalfEdge@ConvexHull@2@I@Z 00000001801aa0b0 f i GuCookingConvexHullUtils.obj
 0001:001a9150       ?assertIntact@ConvexHull@physx@@QEBA_NM@Z 00000001801aa150 f   GuCookingConvexHullUtils.obj
 0001:001a9470       ?computeOBBFromConvex@physx@@YA_NAEBVPxConvexMeshDesc@1@AEAV?$PxVec3T@M@1@AEAV?$PxTransformT@M@1@@Z 00000001801aa470 f   GuCookingConvexHullUtils.obj
 0001:001a9ac0       ?computeOBBSIMD@local@@YAXIPEBT__m128@@AEAT2@AEBT2@1@Z 00000001801aaac0 f   GuCookingConvexHullUtils.obj
 0001:001a9e70       ?convexHullCrop@physx@@YAPEAVConvexHull@1@AEBV21@AEBVPxPlane@1@M@Z 00000001801aae70 f   GuCookingConvexHullUtils.obj
 0001:001aac70       ?findCandidatePlane@ConvexHull@physx@@QEBAHMM@Z 00000001801abc70 f   GuCookingConvexHullUtils.obj
 0001:001ab0c0       ?growAndPushBack@?$PxArray@VHalfEdge@ConvexHull@physx@@V?$PxReflectionAllocator@VHalfEdge@ConvexHull@physx@@@3@@physx@@IEAAAEAVHalfEdge@ConvexHull@2@AEBV342@@Z 00000001801ac0c0 f i GuCookingConvexHullUtils.obj
 0001:001ab180       ?maxNumVertsPerFace@ConvexHull@physx@@QEBAIXZ 00000001801ac180 f   GuCookingConvexHullUtils.obj
 0001:001ab1f0       ?recreate@?$PxArray@VHalfEdge@ConvexHull@physx@@V?$PxReflectionAllocator@VHalfEdge@ConvexHull@physx@@@3@@physx@@IEAAXI@Z 00000001801ac1f0 f i GuCookingConvexHullUtils.obj
 0001:001ab290       ?resize@?$PxArray@VHalfEdge@ConvexHull@physx@@V?$PxReflectionAllocator@VHalfEdge@ConvexHull@physx@@@3@@physx@@QEAAXIAEBVHalfEdge@ConvexHull@2@@Z 00000001801ac290 f i GuCookingConvexHullUtils.obj
 0001:001ab350       ?resize@?$PxArray@VPxPlane@physx@@V?$PxReflectionAllocator@VPxPlane@physx@@@2@@physx@@QEAAXIAEBVPxPlane@2@@Z 00000001801ac350 f i GuCookingConvexHullUtils.obj
 0001:001ab470       ??1ConvexHullLib@physx@@UEAA@XZ 00000001801ac470 f   GuCookingConvexHullLib.obj
 0001:001aba60       ?cleanupVertices@ConvexHullLib@physx@@IEAA_NIPEBV?$PxVec3T@M@2@IAEAIPEAV32@@Z 00000001801aca60 f   GuCookingConvexHullLib.obj
 0001:001abba0       ?shiftAndcleanupVertices@ConvexHullLib@physx@@IEAA_NIPEBV?$PxVec3T@M@2@IAEAIPEAV32@@Z 00000001801acba0 f   GuCookingConvexHullLib.obj
 0001:001ac180       ?shiftConvexMeshDesc@ConvexHullLib@physx@@IEAAXAEAVPxConvexMeshDesc@2@@Z 00000001801ad180 f   GuCookingConvexHullLib.obj
 0001:001ac240       ?swapLargestFace@ConvexHullLib@physx@@IEAAXAEAVPxConvexMeshDesc@2@@Z 00000001801ad240 f   GuCookingConvexHullLib.obj
 0001:001ac470       ??0ConvexHullBuilder@physx@@QEAA@PEAUConvexHullData@Gu@1@_N@Z 00000001801ad470 f   GuCookingConvexHullBuilder.obj
 0001:001ac4a0       ??1ConvexHullBuilder@physx@@QEAA@XZ 00000001801ad4a0 f   GuCookingConvexHullBuilder.obj
 0001:001ac5b0       ?calculateVertexMapTable@ConvexHullBuilder@physx@@QEAA_NI_N@Z 00000001801ad5b0 f   GuCookingConvexHullBuilder.obj
 0001:001ac770       ?checkHullPolygons@ConvexHullBuilder@physx@@QEBA_NXZ 00000001801ad770 f   GuCookingConvexHullBuilder.obj
 0001:001acd30       ?copy@ConvexHullBuilder@physx@@QEAA_NAEAUConvexHullData@Gu@2@AEAI@Z 00000001801add30 f   GuCookingConvexHullBuilder.obj
 0001:001acfa0       ?createEdgeList@ConvexHullBuilder@physx@@QEAA_N_NI@Z 00000001801adfa0 f   GuCookingConvexHullBuilder.obj
 0001:001ad6e0       ?init@ConvexHullBuilder@physx@@QEAA_NIPEBV?$PxVec3T@M@2@PEBIIIPEBUPxHullPolygon@2@_NPEAVConvexHullLib@2@@Z 00000001801ae6e0 f   GuCookingConvexHullBuilder.obj
 0001:001ae010       ?save@ConvexHullBuilder@physx@@QEBA_NAEAVPxOutputStream@2@_N@Z 00000001801af010 f   GuCookingConvexHullBuilder.obj
 0001:001ae330       ??0BigConvexDataBuilder@physx@@QEAA@PEBUConvexHullData@Gu@1@PEAVBigConvexData@1@PEBV?$PxVec3T@M@1@@Z 00000001801af330 f   GuCookingBigConvexDataBuilder.obj
 0001:001ae340       ?computeValencies@BigConvexDataBuilder@physx@@QEAA_NAEBVConvexHullBuilder@2@@Z 00000001801af340 f   GuCookingBigConvexDataBuilder.obj
 0001:001ae730       ?precompute@BigConvexDataBuilder@physx@@QEAA_NI@Z 00000001801af730 f   GuCookingBigConvexDataBuilder.obj
 0001:001af320       ?save@BigConvexDataBuilder@physx@@QEBA_NAEAVPxOutputStream@2@_N@Z 00000001801b0320 f   GuCookingBigConvexDataBuilder.obj
 0001:001af50c       __imp_load_PxGetFoundation 00000001801b050c f   PhysXFoundation_64:PhysXFoundation_64.dll
 0001:001af518       __tailMerge_physxfoundation_64_dll 00000001801b0518     PhysXFoundation_64:PhysXFoundation_64.dll
 0001:001af591       __imp_load_PxGetBroadcastAllocator 00000001801b0591 f   PhysXFoundation_64:PhysXFoundation_64.dll
 0001:001af59d       __imp_load_?PxAtomicIncrement@physx@@YAHPECH@Z 00000001801b059d f   PhysXFoundation_64:PhysXFoundation_64.dll
 0001:001af5a9       __imp_load_??0PxMutexImpl@physx@@QEAA@XZ 00000001801b05a9 f   PhysXFoundation_64:PhysXFoundation_64.dll
 0001:001af5b5       __imp_load_??1PxMutexImpl@physx@@QEAA@XZ 00000001801b05b5 f   PhysXFoundation_64:PhysXFoundation_64.dll
 0001:001af5c1       __imp_load_?lock@PxMutexImpl@physx@@QEAAXXZ 00000001801b05c1 f   PhysXFoundation_64:PhysXFoundation_64.dll
 0001:001af5cd       __imp_load_?unlock@PxMutexImpl@physx@@QEAAXXZ 00000001801b05cd f   PhysXFoundation_64:PhysXFoundation_64.dll
 0001:001af5d9       __imp_load_?getSize@PxMutexImpl@physx@@SAIXZ 00000001801b05d9 f   PhysXFoundation_64:PhysXFoundation_64.dll
 0001:001af5e5       __imp_load_?PxAtomicDecrement@physx@@YAHPECH@Z 00000001801b05e5 f   PhysXFoundation_64:PhysXFoundation_64.dll
 0001:001af5f1       __imp_load_?PxTransformFromSegment@physx@@YA?AV?$PxTransformT@M@1@AEBV?$PxVec3T@M@1@0PEAM@Z 00000001801b05f1 f   PhysXFoundation_64:PhysXFoundation_64.dll
 0001:001af5fd       __imp_load_?PxAtomicAdd@physx@@YAHPECHH@Z 00000001801b05fd f   PhysXFoundation_64:PhysXFoundation_64.dll
 0001:001af609       __imp_load_?getDefaultStackSize@PxThreadImpl@physx@@SAIXZ 00000001801b0609 f   PhysXFoundation_64:PhysXFoundation_64.dll
 0001:001af615       __imp_load_??0PxThreadImpl@physx@@QEAA@P6APEAXPEAX@Z0PEBD@Z 00000001801b0615 f   PhysXFoundation_64:PhysXFoundation_64.dll
 0001:001af621       __imp_load_??1PxThreadImpl@physx@@QEAA@XZ 00000001801b0621 f   PhysXFoundation_64:PhysXFoundation_64.dll
 0001:001af62d       __imp_load_?start@PxThreadImpl@physx@@QEAAXIPEAVPxRunnable@2@@Z 00000001801b062d f   PhysXFoundation_64:PhysXFoundation_64.dll
 0001:001af639       __imp_load_?waitForQuit@PxThreadImpl@physx@@QEAA_NXZ 00000001801b0639 f   PhysXFoundation_64:PhysXFoundation_64.dll
 0001:001af645       __imp_load_?getSize@PxThreadImpl@physx@@SAIXZ 00000001801b0645 f   PhysXFoundation_64:PhysXFoundation_64.dll
 0001:001af651       __imp_load_?PxOptimizeBoundingBox@physx@@YA?AV?$PxVec3T@M@1@AEAV?$PxMat33T@M@1@@Z 00000001801b0651 f   PhysXFoundation_64:PhysXFoundation_64.dll
 0001:001af65d       __imp_load_?allocate@PxTempAllocator@physx@@QEAAPEAX_KPEBDH@Z 00000001801b065d f   PhysXFoundation_64:PhysXFoundation_64.dll
 0001:001af669       __imp_load_?deallocate@PxTempAllocator@physx@@QEAAXPEAX@Z 00000001801b0669 f   PhysXFoundation_64:PhysXFoundation_64.dll
 0001:001af675       __imp_load_PxGetProfilerCallback 00000001801b0675 f   PhysXFoundation_64:PhysXFoundation_64.dll
 0001:001af681       __imp_load_??0PxFPUGuard@physx@@QEAA@XZ 00000001801b0681 f   PhysXFoundation_64:PhysXFoundation_64.dll
 0001:001af68d       __imp_load_??1PxFPUGuard@physx@@QEAA@XZ 00000001801b068d f   PhysXFoundation_64:PhysXFoundation_64.dll
 0001:001af699       __imp_load_?PxDiagonalize@physx@@YA?AV?$PxVec3T@M@1@AEBV?$PxMat33T@M@1@AEAV?$PxQuatT@M@1@@Z 00000001801b0699 f   PhysXFoundation_64:PhysXFoundation_64.dll
 0001:001af6a8       ?DloadAcquireSectionWriteAccess@@YAXXZ 00000001801b06a8 f i Delayimp:delayhlp.obj
 0001:001af754       ?DloadGetSRWLockFunctionPointers@@YAEXZ 00000001801b0754 f i Delayimp:delayhlp.obj
 0001:001af7f4       ?DloadMakePermanentImageCommit@@YAXPEAX_K@Z 00000001801b07f4 f i Delayimp:delayhlp.obj
 0001:001af88c       ?DloadObtainSection@@YAPEAXPEAK0@Z 00000001801b088c f i Delayimp:delayhlp.obj
 0001:001af928       ?DloadProtectSection@@YAXKPEAK@Z 00000001801b0928 f i Delayimp:delayhlp.obj
 0001:001af9b8       ?DloadReleaseSectionWriteAccess@@YAXXZ 00000001801b09b8 f i Delayimp:delayhlp.obj
 0001:001afa4c       __delayLoadHelper2         00000001801b0a4c f   Delayimp:delayhlp.obj
 0001:001afd24       ??3@YAXPEAX_K@Z            00000001801b0d24 f   LIBCMT:delete_scalar_size.obj
 0001:001afd24       ??_V@YAXPEAX@Z             00000001801b0d24 f   LIBCMT:delete_array.obj
 0001:001afd2c       ??_Etype_info@@UEAAPEAXI@Z 00000001801b0d2c f i LIBCMT:std_type_info_static.obj
 0001:001afd2c       ??_Gtype_info@@UEAAPEAXI@Z 00000001801b0d2c f i LIBCMT:std_type_info_static.obj
 0001:001afd58       ?__scrt_initialize_type_info@@YAXXZ 00000001801b0d58 f   LIBCMT:tncleanup.obj
 0001:001afd68       ?__scrt_uninitialize_type_info@@YAXXZ 00000001801b0d68 f   LIBCMT:tncleanup.obj
 0001:001afd90       __chkstk                   00000001801b0d90 f   LIBCMT:chkstk.obj
 0001:001afd90       _alloca_probe              00000001801b0d90 f   LIBCMT:chkstk.obj
 0001:001afde0       __vdecl_sinf4              00000001801b0de0 f   LIBCMT:svml_ssinf4_dispatch.obj
 0001:001afe00       __libm_sse2_sincosf_       00000001801b0e00 f   LIBCMT:svml_ssinf4_dispatch.obj
 0001:001afe43       __libm_sse2_sincosf4_      00000001801b0e43 f   LIBCMT:svml_ssinf4_dispatch.obj
 0001:001afe50       ??3@YAXPEAX@Z              00000001801b0e50 f   LIBCMT:delete_scalar.obj
 0001:001afe58       __scrt_acquire_startup_lock 00000001801b0e58 f   LIBCMT:utility.obj
 0001:001afe94       __scrt_dllmain_after_initialize_c 00000001801b0e94 f   LIBCMT:utility.obj
 0001:001afec8       __scrt_dllmain_before_initialize_c 00000001801b0ec8 f   LIBCMT:utility.obj
 0001:001afee0       __scrt_dllmain_crt_thread_attach 00000001801b0ee0 f   LIBCMT:utility.obj
 0001:001aff08       __scrt_dllmain_crt_thread_detach 00000001801b0f08 f   LIBCMT:utility.obj
 0001:001aff20       __scrt_dllmain_exception_filter 00000001801b0f20 f   LIBCMT:utility.obj
 0001:001aff80       __scrt_dllmain_uninitialize_c 00000001801b0f80 f   LIBCMT:utility.obj
 0001:001affb0       __scrt_dllmain_uninitialize_critical 00000001801b0fb0 f   LIBCMT:utility.obj
 0001:001affc4       __scrt_initialize_crt      00000001801b0fc4 f   LIBCMT:utility.obj
 0001:001b0010       __scrt_initialize_onexit_tables 00000001801b1010 f   LIBCMT:utility.obj
 0001:001b009c       __scrt_is_nonwritable_in_current_image 00000001801b109c f   LIBCMT:utility.obj
 0001:001b0134       __scrt_release_startup_lock 00000001801b1134 f   LIBCMT:utility.obj
 0001:001b0158       __scrt_uninitialize_crt    00000001801b1158 f   LIBCMT:utility.obj
 0001:001b0184       _onexit                    00000001801b1184 f   LIBCMT:utility.obj
 0001:001b01c0       atexit                     00000001801b11c0 f   LIBCMT:utility.obj
 0001:001b04f8       _DllMainCRTStartup         00000001801b14f8 f   LIBCMT:dll_dllmain.obj
 0001:001b0538       __isa_available_init       00000001801b1538 f   LIBCMT:cpu_disp.obj
 0001:001b06f0       __sse2_sinf4@@16           00000001801b16f0 f   LIBCMT:svml_ssinf4_sse2.obj
 0001:001b1030       __sse4_sinf4@@16           00000001801b2030 f   LIBCMT:svml_ssinf4_sse4.obj
 0001:001b17a4       __scrt_is_ucrt_dll_in_use  00000001801b27a4 f   LIBCMT:ucrt_detection.obj
 0001:001b17b0       __crt_debugger_hook        00000001801b27b0 f   LIBCMT:utility_desktop.obj
 0001:001b17b8       __scrt_fastfail            00000001801b27b8 f   LIBCMT:utility_desktop.obj
 0001:001b1904       __security_init_cookie     00000001801b2904 f   LIBCMT:gs_support.obj
 0001:001b19b0       __local_stdio_scanf_options 00000001801b29b0 f i LIBCMT:default_local_stdio_options.obj
 0001:001b19b8       __scrt_initialize_default_local_stdio_options 00000001801b29b8 f   LIBCMT:default_local_stdio_options.obj
 0001:001b19d4       __scrt_get_dyn_tls_init_callback 00000001801b29d4 f   LIBCMT:dyn_tls_init.obj
 0001:001b19dc       _RTC_Initialize            00000001801b29dc f   LIBCMT:initsect.obj
 0001:001b1a18       _RTC_Terminate             00000001801b2a18 f   LIBCMT:initsect.obj
 0001:001b1a60       __common_ssin_cout_rare    00000001801b2a60 f   LIBCMT:svml_s_sin_cout.obj
 0001:001b1ae0       memcpy_repmovs             00000001801b2ae0 f   libvcruntime:memcpy.obj
 0001:001b1b00       memcpy                     00000001801b2b00 f   libvcruntime:memcpy.obj
 0001:001b1b00       memmove                    00000001801b2b00 f   libvcruntime:memcpy.obj
 0001:001b2178       _get_purecall_handler      00000001801b3178 f   libvcruntime:purevirt.obj
 0001:001b2184       _purecall                  00000001801b3184 f   libvcruntime:purevirt.obj
 0001:001b21a8       __std_type_info_compare    00000001801b31a8 f   libvcruntime:std_type_info.obj
 0001:001b21d0       __std_type_info_destroy_list 00000001801b31d0 f   libvcruntime:std_type_info.obj
 0001:001b21fc       __std_type_info_name       00000001801b31fc f   libvcruntime:std_type_info.obj
 0001:001b2330       memset_repstos             00000001801b3330 f   libvcruntime:memset.obj
 0001:001b2350       memset                     00000001801b3350 f   libvcruntime:memset.obj
 0001:001b26d8       strstr                     00000001801b36d8 f   libvcruntime:strstr.obj
 0001:001b28d0       __vcrt_initialize          00000001801b38d0 f   libvcruntime:initialization.obj
 0001:001b28f8       __vcrt_thread_attach       00000001801b38f8 f   libvcruntime:initialization.obj
 0001:001b290c       __vcrt_thread_detach       00000001801b390c f   libvcruntime:initialization.obj
 0001:001b2920       __vcrt_uninitialize        00000001801b3920 f   libvcruntime:initialization.obj
 0001:001b293c       __vcrt_uninitialize_critical 00000001801b393c f   libvcruntime:initialization.obj
 0001:001b294c       __C_specific_handler       00000001801b394c f   libvcruntime:riscchandler.obj
 0001:001b2b44       __DestructExceptionObject  00000001801b3b44 f   libvcruntime:ehhelpers.obj
 0001:001b2bb4       ?_CallMemberFunction0@@YAXQEAX0@Z 00000001801b3bb4 f i libvcruntime:ehhelpers.obj
 0001:001b2bb8       _IsExceptionObjectToBeDestroyed 00000001801b3bb8 f   libvcruntime:ehhelpers.obj
 0001:001b2be8       __AdjustPointer            00000001801b3be8 f   libvcruntime:ehhelpers.obj
 0001:001b2c0c       __FrameUnwindFilter        00000001801b3c0c f   libvcruntime:ehhelpers.obj
 0001:001b2c74       __std_terminate            00000001801b3c74 f   libvcruntime:ehhelpers.obj
 0001:001b2c80       ??$?0$00@DName@@QEAA@PEBDU?$StringLifeSelector@$00@@@Z 00000001801b3c80 f i libvcruntime:undname.obj
 0001:001b2cc0       ??$?0$01@DName@@QEAA@PEBDU?$StringLifeSelector@$01@@@Z 00000001801b3cc0 f i libvcruntime:undname.obj
 0001:001b2cc0       ??$?0$0A@@DName@@QEAA@PEBDU?$StringLifeSelector@$0A@@@@Z 00000001801b3cc0 f i libvcruntime:undname.obj
 0001:001b2d00       ??$?0$01@pcharNode@@QEAA@PEBDHU?$StringLifeSelector@$01@@@Z 00000001801b3d00 f i libvcruntime:undname.obj
 0001:001b2d00       ??$?0$0A@@pcharNode@@QEAA@PEBDHU?$StringLifeSelector@$0A@@@@Z 00000001801b3d00 f i libvcruntime:undname.obj
 0001:001b2d74       ??$append@VDNameNode@@@DName@@AEAAXPEBVDNameNode@@@Z 00000001801b3d74 f i libvcruntime:undname.obj
 0001:001b2d74       ??$append@VDNameStatusNode@@@DName@@AEAAXPEBVDNameStatusNode@@@Z 00000001801b3d74 f i libvcruntime:undname.obj
 0001:001b2d74       ??$append@VcharNode@@@DName@@AEAAXPEBVcharNode@@@Z 00000001801b3d74 f i libvcruntime:undname.obj
 0001:001b2d74       ??$append@VpcharNode@@@DName@@AEAAXPEBVpcharNode@@@Z 00000001801b3d74 f i libvcruntime:undname.obj
 0001:001b2dd8       ??$doPchar@$00@DName@@AEAAXPEBDH@Z 00000001801b3dd8 f i libvcruntime:undname.obj
 0001:001b2e7c       ??$doPchar@$01@DName@@AEAAXPEBDH@Z 00000001801b3e7c f i libvcruntime:undname.obj
 0001:001b2e7c       ??$doPchar@$0A@@DName@@AEAAXPEBDH@Z 00000001801b3e7c f i libvcruntime:undname.obj
 0001:001b2f14       ??0DName@@QEAA@AEAPEBDD@Z  00000001801b3f14 f   libvcruntime:undname.obj
 0001:001b2fc4       ??0DName@@QEAA@AEBUStringLiteral@@@Z 00000001801b3fc4 f   libvcruntime:undname.obj
 0001:001b2ff0       ??0DName@@QEAA@PEAV0@@Z    00000001801b3ff0 f   libvcruntime:undname.obj
 0001:001b3074       ??0DName@@QEAA@_J@Z        00000001801b4074 f   libvcruntime:undname.obj
 0001:001b311c       ??0DName@@QEAA@_K@Z        00000001801b411c f   libvcruntime:undname.obj
 0001:001b31ac       ??2@YAPEAX_KAEAV_HeapManager@@H@Z 00000001801b41ac f   libvcruntime:undname.obj
 0001:001b31d8       ??4DName@@QEAAAEAV0@W4DNameStatus@@@Z 00000001801b41d8 f   libvcruntime:undname.obj
 0001:001b3208       ??AReplicator@@QEBA?AVDName@@H@Z 00000001801b4208 f   libvcruntime:undname.obj
 0001:001b3248       ??HDName@@QEBA?AV0@AEBUStringLiteral@@@Z 00000001801b4248 f   libvcruntime:undname.obj
 0001:001b3274       ??HDName@@QEBA?AV0@AEBV0@@Z 00000001801b4274 f   libvcruntime:undname.obj
 0001:001b32a0       ??HDName@@QEBA?AV0@D@Z     00000001801b42a0 f   libvcruntime:undname.obj
 0001:001b32cc       ??HDName@@QEBA?AV0@W4DNameStatus@@@Z 00000001801b42cc f   libvcruntime:undname.obj
 0001:001b32f8       ??YDName@@QEAAAEAV0@AEBUStringLiteral@@@Z 00000001801b42f8 f   libvcruntime:undname.obj
 0001:001b3378       ??YDName@@QEAAAEAV0@AEBV0@@Z 00000001801b4378 f   libvcruntime:undname.obj
 0001:001b33d0       ??YDName@@QEAAAEAV0@D@Z    00000001801b43d0 f   libvcruntime:undname.obj
 0001:001b343c       ??YDName@@QEAAAEAV0@W4DNameStatus@@@Z 00000001801b443c f   libvcruntime:undname.obj
 0001:001b3494       ??YReplicator@@QEAAAEAV0@AEBVDName@@@Z 00000001801b4494 f   libvcruntime:undname.obj
 0001:001b34ec       ?UScore@UnDecorator@@SA?AUStringLiteral@@W4Tokens@@@Z 00000001801b44ec f   libvcruntime:undname.obj
 0001:001b3538       ?composeDeclaration@UnDecorator@@CA?AVDName@@AEBV2@@Z 00000001801b4538 f i libvcruntime:undname.obj
 0001:001b442c       ?doPchar@DName@@AEAAXD@Z   00000001801b542c f   libvcruntime:undname.obj
 0001:001b447c       ?getAddressOf@UnDecorator@@CA?AVDName@@XZ 00000001801b547c f   libvcruntime:undname.obj
 0001:001b450c       ?getArgumentList@UnDecorator@@CA?AVDName@@XZ 00000001801b550c f   libvcruntime:undname.obj
 0001:001b46c0       ?getArgumentTypes@UnDecorator@@CA?AVDName@@XZ 00000001801b56c0 f   libvcruntime:undname.obj
 0001:001b480c       ?getArrayAccess@UnDecorator@@CA?AVDName@@XZ 00000001801b580c f   libvcruntime:undname.obj
 0001:001b48a8       ?getArrayObject@UnDecorator@@CA?AVDName@@XZ 00000001801b58a8 f   libvcruntime:undname.obj
 0001:001b4964       ?getArrayType@UnDecorator@@CA?AVDName@@AEBV2@@Z 00000001801b5964 f i libvcruntime:undname.obj
 0001:001b4bac       ?getBasedType@UnDecorator@@CA?AVDName@@XZ 00000001801b5bac f   libvcruntime:undname.obj
 0001:001b4ca4       ?getBasicDataType@UnDecorator@@CA?AVDName@@AEBV2@@Z 00000001801b5ca4 f   libvcruntime:undname.obj
 0001:001b52a8       ?getCallingConvention@UnDecorator@@CA?AVDName@@XZ 00000001801b62a8 f   libvcruntime:undname.obj
 0001:001b53e0       ?getDataIndirectType@UnDecorator@@CA?AVDName@@AEBV2@W4IndirectionKind@@0H@Z 00000001801b63e0 f   libvcruntime:undname.obj
 0001:001b5d04       ?getDataType@UnDecorator@@CA?AVDName@@PEAV2@@Z 00000001801b6d04 f   libvcruntime:undname.obj
 0001:001b5e18       ?getDecoratedName@UnDecorator@@CA?AVDName@@XZ 00000001801b6e18 f   libvcruntime:undname.obj
 0001:001b6100       ?getDimension@UnDecorator@@CA?AVDName@@_N@Z 00000001801b7100 f   libvcruntime:undname.obj
 0001:001b6248       ?getDispatchTarget@UnDecorator@@CA?AVDName@@XZ 00000001801b7248 f   libvcruntime:undname.obj
 0001:001b62a8       ?getECSUDataType@UnDecorator@@CA?AVDName@@XZ 00000001801b72a8 f   libvcruntime:undname.obj
 0001:001b64a4       ?getEnumType@UnDecorator@@CA?AVDName@@XZ 00000001801b74a4 f i libvcruntime:undname.obj
 0001:001b65d4       ?getExtendedDataIndirectType@UnDecorator@@CA?AVDName@@AEAW4IndirectionKind@@AEA_NH@Z 00000001801b75d4 f   libvcruntime:undname.obj
 0001:001b67d8       ?getExternalDataType@UnDecorator@@CA?AVDName@@AEBV2@@Z 00000001801b77d8 f i libvcruntime:undname.obj
 0001:001b6898       ?getFloatingPoint@UnDecorator@@CA?AVDName@@H@Z 00000001801b7898 f   libvcruntime:undname.obj
 0001:001b6a00       ?getFunctionIndirectType@UnDecorator@@CA?AVDName@@AEBV2@@Z 00000001801b7a00 f   libvcruntime:undname.obj
 0001:001b6f34       ?getLastChar@DNameStatusNode@@UEBADXZ 00000001801b7f34 f i libvcruntime:undname.obj
 0001:001b6f40       ?getLastChar@charNode@@UEBADXZ 00000001801b7f40 f i libvcruntime:undname.obj
 0001:001b6f44       ?getLastChar@pDNameNode@@UEBADXZ 00000001801b7f44 f i libvcruntime:undname.obj
 0001:001b6f70       ?getLastChar@pairNode@@UEBADXZ 00000001801b7f70 f i libvcruntime:undname.obj
 0001:001b6fa8       ?getLastChar@pcharNode@@UEBADXZ 00000001801b7fa8 f i libvcruntime:undname.obj
 0001:001b6fbc       ?getLexicalFrame@UnDecorator@@CA?AVDName@@XZ 00000001801b7fbc f i libvcruntime:undname.obj
 0001:001b7020       ?getMemberAccess@UnDecorator@@CA?AVDName@@XZ 00000001801b8020 f   libvcruntime:undname.obj
 0001:001b70b4       ?getMemoryWithBuffer@_HeapManager@@QEAAPEAX_K@Z 00000001801b80b4 f   libvcruntime:undname.obj
 0001:001b7144       ?getNoexcept@UnDecorator@@CA?AVDName@@XZ 00000001801b8144 f   libvcruntime:undname.obj
 0001:001b71a8       ?getNumberOfDimensions@UnDecorator@@CAHXZ 00000001801b81a8 f   libvcruntime:undname.obj
 0001:001b7210       ?getOperatorName@UnDecorator@@CA?AVDName@@_NPEA_N@Z 00000001801b8210 f i libvcruntime:undname.obj
 0001:001b7bc0       ?getPointerToMember@UnDecorator@@CA?AVDName@@XZ 00000001801b8bc0 f   libvcruntime:undname.obj
 0001:001b7cb8       ?getPrimaryDataType@UnDecorator@@CA?AVDName@@AEBV2@@Z 00000001801b8cb8 f   libvcruntime:undname.obj
 0001:001b7f70       ?getPtrRefDataType@UnDecorator@@CA?AVDName@@AEBV2@H@Z 00000001801b8f70 f   libvcruntime:undname.obj
 0001:001b813c       ?getPtrRefType@UnDecorator@@CA?AVDName@@AEBV2@0W4IndirectionKind@@@Z 00000001801b913c f   libvcruntime:undname.obj
 0001:001b8314       ?getRestrictionSpec@UnDecorator@@CA?AVDName@@XZ 00000001801b9314 f   libvcruntime:undname.obj
 0001:001b84f0       ?getReturnType@UnDecorator@@CA?AVDName@@PEAV2@@Z 00000001801b94f0 f   libvcruntime:undname.obj
 0001:001b8524       ?getScope@UnDecorator@@CA?AVDName@@XZ 00000001801b9524 f   libvcruntime:undname.obj
 0001:001b89e0       ?getScopedName@UnDecorator@@CA?AVDName@@XZ 00000001801b99e0 f   libvcruntime:undname.obj
 0001:001b8b20       ?getSignedDimension@UnDecorator@@CA?AVDName@@XZ 00000001801b9b20 f   libvcruntime:undname.obj
 0001:001b8ba8       ?getString@DNameStatusNode@@UEBAPEADPEAD0@Z 00000001801b9ba8 f i libvcruntime:undname.obj
 0001:001b8bf0       ?getString@charNode@@UEBAPEADPEAD0@Z 00000001801b9bf0 f i libvcruntime:undname.obj
 0001:001b8c04       ?getString@pDNameNode@@UEBAPEADPEAD0@Z 00000001801b9c04 f i libvcruntime:undname.obj
 0001:001b8c34       ?getString@pairNode@@UEBAPEADPEAD0@Z 00000001801b9c34 f i libvcruntime:undname.obj
 0001:001b8c80       ?getString@pcharNode@@UEBAPEADPEAD0@Z 00000001801b9c80 f i libvcruntime:undname.obj
 0001:001b8cb8       ?getStringEncoding@UnDecorator@@CA?AVDName@@W4PrefixKind@@H@Z 00000001801b9cb8 f   libvcruntime:undname.obj
 0001:001b8dc8       ?getStringObject@UnDecorator@@CA?AVDName@@XZ 00000001801b9dc8 f   libvcruntime:undname.obj
 0001:001b8e30       ?getSymbolName@UnDecorator@@CA?AVDName@@XZ 00000001801b9e30 f i libvcruntime:undname.obj
 0001:001b8e7c       ?getTemplateArgumentList@UnDecorator@@CA?AVDName@@XZ 00000001801b9e7c f   libvcruntime:undname.obj
 0001:001b9098       ?getTemplateName@UnDecorator@@CA?AVDName@@_N@Z 00000001801ba098 f   libvcruntime:undname.obj
 0001:001b932c       ?getTemplateNonTypeArgument@UnDecorator@@CA?AVDName@@XZ 00000001801ba32c f   libvcruntime:undname.obj
 0001:001b987c       ?getTemplateTypeArgument@UnDecorator@@CA?AVDName@@XZ 00000001801ba87c f   libvcruntime:undname.obj
 0001:001b99e4       ?getThrowTypes@UnDecorator@@CA?AVDName@@XZ 00000001801ba9e4 f   libvcruntime:undname.obj
 0001:001b9a08       ?getTypeEncoding@UnDecorator@@CAHXZ 00000001801baa08 f i libvcruntime:undname.obj
 0001:001b9dc4       ?getUndecoratedName@UnDecorator@@QEAAPEADPEADH@Z 00000001801badc4 f i libvcruntime:undname.obj
 0001:001b9f18       ?getUnionObject@UnDecorator@@CA?AVDName@@XZ 00000001801baf18 f   libvcruntime:undname.obj
 0001:001b9ff0       ?getVCallThunkType@UnDecorator@@CA?AVDName@@XZ 00000001801baff0 f i libvcruntime:undname.obj
 0001:001ba068       ?getValue@UnDecorator@@CA?AV?$optional@_K@std@@XZ 00000001801bb068 f   libvcruntime:undname.obj
 0001:001ba0dc       ?getValueObject@UnDecorator@@CA?AVDName@@XZ 00000001801bb0dc f   libvcruntime:undname.obj
 0001:001ba21c       ?getVdispMapType@UnDecorator@@CA?AVDName@@AEBV2@@Z 00000001801bb21c f i libvcruntime:undname.obj
 0001:001ba298       ?getVfTableType@UnDecorator@@CA?AVDName@@AEBV2@@Z 00000001801bb298 f i libvcruntime:undname.obj
 0001:001ba4a4       ?getZName@UnDecorator@@CA?AVDName@@_N0@Z 00000001801bb4a4 f   libvcruntime:undname.obj
 0001:001ba778       ?length@pDNameNode@@UEBAHXZ 00000001801bb778 f i libvcruntime:undname.obj
 0001:001ba7a0       ?length@pairNode@@UEBAHXZ  00000001801bb7a0 f i libvcruntime:undname.obj
 0001:001ba7e8       ?parseDecoratedName@UnDecorator@@CA?AVDName@@XZ 00000001801bb7e8 f   libvcruntime:undname.obj
 0001:001ba900       ?raw_length@pDNameNode@@UEBAHXZ 00000001801bb900 f i libvcruntime:undname.obj
 0001:001ba904       ?raw_length@pairNode@@UEBAHXZ 00000001801bb904 f i libvcruntime:undname.obj
 0001:001ba908       __unDName                  00000001801bb908 f   libvcruntime:undname.obj
 0001:001ba930       __unDNameEx                00000001801bb930 f   libvcruntime:undname.obj
 0001:001baa64       snprintf                   00000001801bba64 f i libvcruntime:undname.obj
 0001:001baabc       sprintf_s                  00000001801bbabc f i libvcruntime:undname.obj
 0001:001bab10       __vcrt_freefls             00000001801bbb10 f   libvcruntime:per_thread_data.obj
 0001:001bab30       __vcrt_freeptd             00000001801bbb30 f   libvcruntime:per_thread_data.obj
 0001:001bab80       __vcrt_getptd              00000001801bbb80 f   libvcruntime:per_thread_data.obj
 0001:001bab9c       __vcrt_getptd_noexit       00000001801bbb9c f   libvcruntime:per_thread_data.obj
 0001:001bac5c       __vcrt_initialize_ptd      00000001801bbc5c f   libvcruntime:per_thread_data.obj
 0001:001baca4       __vcrt_uninitialize_ptd    00000001801bbca4 f   libvcruntime:per_thread_data.obj
 0001:001bacc8       __vcrt_initialize_locks    00000001801bbcc8 f   libvcruntime:locks.obj
 0001:001bad10       __vcrt_lock                00000001801bbd10 f   libvcruntime:locks.obj
 0001:001bad2c       __vcrt_uninitialize_locks  00000001801bbd2c f   libvcruntime:locks.obj
 0001:001bad64       __vcrt_unlock              00000001801bbd64 f   libvcruntime:locks.obj
 0001:001bad90       _NLG_Notify                00000001801bbd90 f   libvcruntime:notify.obj
 0001:001badb0       __NLG_Dispatch2            00000001801bbdb0 f   libvcruntime:notify.obj
 0001:001badc0       __NLG_Return2              00000001801bbdc0 f   libvcruntime:notify.obj
 0001:001badc4       __except_validate_context_record 00000001801bbdc4 f   libvcruntime:jbcxrval.obj
 0001:001badfc       ??$_CallSETranslator@V__FrameHandler3@@@@YAHPEAUEHExceptionRecord@@PEA_KPEAU_CONTEXT@@PEAU_xDISPATCHER_CONTEXT@@PEBU_s_FuncInfo@@K1H@Z 00000001801bbdfc f i libvcruntime:risctrnsctrl.obj
 0001:001bae50       ??$_CallSETranslator@V__FrameHandler4@@@@YAHPEAUEHExceptionRecord@@PEA_KPEAU_CONTEXT@@PEAU_xDISPATCHER_CONTEXT@@PEAUFuncInfo4@FH4@@K1H@Z 00000001801bbe50 f i libvcruntime:risctrnsctrl.obj
 0001:001baea4       ?CatchTryBlock@__FrameHandler3@@SAPEBU_s_TryBlockMapEntry@@PEBU_s_FuncInfo@@H@Z 00000001801bbea4 f   libvcruntime:risctrnsctrl.obj
 0001:001baf08       ?DecompFuncInfo@FH4@@YA_JPEAEAEAUFuncInfo4@1@_KH_N@Z 00000001801bbf08 f i libvcruntime:risctrnsctrl.obj
 0001:001bb02c       ?ExecutionInCatch@__FrameHandler3@@SA_NPEAU_xDISPATCHER_CONTEXT@@PEBU_s_FuncInfo@@@Z 00000001801bc02c f   libvcruntime:risctrnsctrl.obj
 0001:001bb058       ?ExecutionInCatch@__FrameHandler4@@SA_NPEAU_xDISPATCHER_CONTEXT@@PEAUFuncInfo4@FH4@@@Z 00000001801bc058 f   libvcruntime:risctrnsctrl.obj
 0001:001bb060       ?FrameUnwindToEmptyState@__FrameHandler3@@SAXPEA_KPEAU_xDISPATCHER_CONTEXT@@PEBU_s_FuncInfo@@@Z 00000001801bc060 f   libvcruntime:risctrnsctrl.obj
 0001:001bb0c4       ?FrameUnwindToEmptyState@__FrameHandler4@@SAXPEA_KPEAU_xDISPATCHER_CONTEXT@@PEAUFuncInfo4@FH4@@@Z 00000001801bc0c4 f   libvcruntime:risctrnsctrl.obj
 0001:001bb0f8       ?GetEstablisherFrame@__FrameHandler3@@SAPEA_KPEA_KPEAU_xDISPATCHER_CONTEXT@@PEBU_s_FuncInfo@@0@Z 00000001801bc0f8 f   libvcruntime:risctrnsctrl.obj
 0001:001bb1c4       ?GetEstablisherFrame@__FrameHandler4@@SAPEA_KPEA_KPEAU_xDISPATCHER_CONTEXT@@PEAUFuncInfo4@FH4@@0@Z 00000001801bc1c4 f   libvcruntime:risctrnsctrl.obj
 0001:001bb1e8       ?GetRangeOfTrysToCheck@__FrameHandler3@@SA?AU?$pair@Viterator@TryBlockMap@__FrameHandler3@@V123@@std@@AEAVTryBlockMap@1@HPEAU_xDISPATCHER_CONTEXT@@PEBU_s_FuncInfo@@H@Z 00000001801bc1e8 f   libvcruntime:risctrnsctrl.obj
 0001:001bb328       ?GetRangeOfTrysToCheck@__FrameHandler4@@SA?AU?$pair@Viterator@TryBlockMap4@FH4@@V123@@std@@AEAVTryBlockMap4@FH4@@HPEAU_xDISPATCHER_CONTEXT@@PEAUFuncInfo4@5@H@Z 00000001801bc328 f   libvcruntime:risctrnsctrl.obj
 0001:001bb494       ?UnwindNestedFrames@__FrameHandler3@@SAXPEA_KPEAUEHExceptionRecord@@PEAU_CONTEXT@@0PEAXPEBU_s_FuncInfo@@HHPEBU_s_HandlerType@@PEAU_xDISPATCHER_CONTEXT@@E@Z 00000001801bc494 f   libvcruntime:risctrnsctrl.obj
 0001:001bb598       ?UnwindNestedFrames@__FrameHandler4@@SAXPEA_KPEAUEHExceptionRecord@@PEAU_CONTEXT@@0PEAXPEAUFuncInfo4@FH4@@HHPEAUHandlerType4@5@PEAU_xDISPATCHER_CONTEXT@@E@Z 00000001801bc598 f   libvcruntime:risctrnsctrl.obj
 0001:001bb6b8       ?setBuffer@TryBlockMap4@FH4@@QEAAXViterator@12@@Z 00000001801bc6b8 f i libvcruntime:risctrnsctrl.obj
 0001:001bb87c       _CreateFrameInfo           00000001801bc87c f   libvcruntime:risctrnsctrl.obj
 0001:001bb8b8       _FindAndUnlinkFrame        00000001801bc8b8 f   libvcruntime:risctrnsctrl.obj
 0001:001bb90c       _GetImageBase              00000001801bc90c f   libvcruntime:risctrnsctrl.obj
 0001:001bb920       _GetThrowImageBase         00000001801bc920 f   libvcruntime:risctrnsctrl.obj
 0001:001bb934       _SetImageBase              00000001801bc934 f   libvcruntime:risctrnsctrl.obj
 0001:001bb94c       _SetThrowImageBase         00000001801bc94c f   libvcruntime:risctrnsctrl.obj
 0001:001bb964       __CxxFrameHandler3         00000001801bc964 f   libvcruntime:risctrnsctrl.obj
 0001:001bb9ec       __CxxFrameHandler4         00000001801bc9ec f   libvcruntime:risctrnsctrl.obj
 0001:001bbbfc       __vcrt_FlsAlloc            00000001801bcbfc f   libvcruntime:winapi_downlevel.obj
 0001:001bbc44       __vcrt_FlsFree             00000001801bcc44 f   libvcruntime:winapi_downlevel.obj
 0001:001bbc8c       __vcrt_FlsGetValue         00000001801bcc8c f   libvcruntime:winapi_downlevel.obj
 0001:001bbcd4       __vcrt_FlsSetValue         00000001801bccd4 f   libvcruntime:winapi_downlevel.obj
 0001:001bbd28       __vcrt_InitializeCriticalSectionEx 00000001801bcd28 f   libvcruntime:winapi_downlevel.obj
 0001:001bbd8c       ?GetCurrentState@__FrameHandler3@@SAHPEA_KPEAU_xDISPATCHER_CONTEXT@@PEBU_s_FuncInfo@@@Z 00000001801bcd8c f   libvcruntime:ehstate.obj
 0001:001bbdb4       ?GetUnwindTryBlock@__FrameHandler3@@SAHPEA_KPEAU_xDISPATCHER_CONTEXT@@PEBU_s_FuncInfo@@@Z 00000001801bcdb4 f   libvcruntime:ehstate.obj
 0001:001bbde0       ?SetState@__FrameHandler3@@SAXPEA_KPEBU_s_FuncInfo@@H@Z 00000001801bcde0 f   libvcruntime:ehstate.obj
 0001:001bbdec       ?SetUnwindTryBlock@__FrameHandler3@@SAXPEA_KPEAU_xDISPATCHER_CONTEXT@@PEBU_s_FuncInfo@@H@Z 00000001801bcdec f   libvcruntime:ehstate.obj
 0001:001bbe28       ?StateFromControlPc@__FrameHandler3@@SAHPEBU_s_FuncInfo@@PEAU_xDISPATCHER_CONTEXT@@@Z 00000001801bce28 f   libvcruntime:ehstate.obj
 0001:001bbe30       ?StateFromControlPc@__FrameHandler4@@SAHPEAUFuncInfo4@FH4@@PEAU_xDISPATCHER_CONTEXT@@@Z 00000001801bce30 f   libvcruntime:ehstate.obj
 0001:001bbe38       ?StateFromIp@__FrameHandler3@@SAHPEBU_s_FuncInfo@@PEAU_xDISPATCHER_CONTEXT@@_K@Z 00000001801bce38 f   libvcruntime:ehstate.obj
 0001:001bbea0       ?StateFromIp@__FrameHandler4@@SAHPEAUFuncInfo4@FH4@@PEAU_xDISPATCHER_CONTEXT@@_K@Z 00000001801bcea0 f   libvcruntime:ehstate.obj
 0001:001bd5a0       ??$TypeMatchHelper@V__FrameHandler3@@@@YAHPEBU_s_HandlerType@@PEBU_s_CatchableType@@PEBU_s_ThrowInfo@@@Z 00000001801be5a0 f i libvcruntime:frame.obj
 0001:001bd6e0       ??$TypeMatchHelper@V__FrameHandler4@@@@YAHPEAUHandlerType4@FH4@@PEBU_s_CatchableType@@PEBU_s_ThrowInfo@@@Z 00000001801be6e0 f i libvcruntime:frame.obj
 0001:001bd824       ??$__InternalCxxFrameHandler@V__FrameHandler3@@@@YA?AW4_EXCEPTION_DISPOSITION@@PEAUEHExceptionRecord@@PEA_KPEAU_CONTEXT@@PEAU_xDISPATCHER_CONTEXT@@PEBU_s_FuncInfo@@H1E@Z 00000001801be824 f i libvcruntime:frame.obj
 0001:001bda5c       ??$__InternalCxxFrameHandler@V__FrameHandler4@@@@YA?AW4_EXCEPTION_DISPOSITION@@PEAUEHExceptionRecord@@PEA_KPEAU_CONTEXT@@PEAU_xDISPATCHER_CONTEXT@@PEAUFuncInfo4@FH4@@H1E@Z 00000001801bea5c f i libvcruntime:frame.obj
 0001:001bdcf0       ??$__InternalCxxFrameHandlerWrapper@V__FrameHandler3@@@@YA?AW4_EXCEPTION_DISPOSITION@@PEAUEHExceptionRecord@@PEA_KPEAU_CONTEXT@@PEAU_xDISPATCHER_CONTEXT@@PEBU_s_FuncInfo@@H1E@Z 00000001801becf0 f i libvcruntime:frame.obj
 0001:001bdcf8       ??$__InternalCxxFrameHandlerWrapper@V__FrameHandler4@@@@YA?AW4_EXCEPTION_DISPOSITION@@PEAUEHExceptionRecord@@PEA_KPEAU_CONTEXT@@PEAU_xDISPATCHER_CONTEXT@@PEAUFuncInfo4@FH4@@H1E@Z 00000001801becf8 f i libvcruntime:frame.obj
 0001:001bdd54       ??0HandlerMap4@FH4@@QEAA@PEBUTryBlockMapEntry4@1@_KH@Z 00000001801bed54 f i libvcruntime:frame.obj
 0001:001bddd0       ??0TryBlockMap4@FH4@@QEAA@PEBUFuncInfo4@1@_K@Z 00000001801bedd0 f i libvcruntime:frame.obj
 0001:001bdea8       ??0bad_exception@std@@QEAA@AEBV01@@Z 00000001801beea8 f i libvcruntime:frame.obj
 0001:001bdee4       ??0bad_exception@std@@QEAA@XZ 00000001801beee4 f i libvcruntime:frame.obj
 0001:001bdf04       ??0exception@std@@QEAA@AEBV01@@Z 00000001801bef04 f i libvcruntime:frame.obj
 0001:001bdf38       ??1bad_exception@std@@UEAA@XZ 00000001801bef38 f i libvcruntime:frame.obj
 0001:001bdf4c       ??_Ebad_exception@std@@UEAAPEAXI@Z 00000001801bef4c f i libvcruntime:frame.obj
 0001:001bdf4c       ??_Eexception@std@@UEAAPEAXI@Z 00000001801bef4c f i libvcruntime:frame.obj
 0001:001bdf4c       ??_Gbad_exception@std@@UEAAPEAXI@Z 00000001801bef4c f i libvcruntime:frame.obj
 0001:001bdf4c       ??_Gexception@std@@UEAAPEAXI@Z 00000001801bef4c f i libvcruntime:frame.obj
 0001:001bdf90       ?CxxCallCatchBlock@__FrameHandler3@@SAPEAXPEAU_EXCEPTION_RECORD@@@Z 00000001801bef90 f   libvcruntime:frame.obj
 0001:001be17c       ?CxxCallCatchBlock@__FrameHandler4@@SAPEAXPEAU_EXCEPTION_RECORD@@@Z 00000001801bf17c f   libvcruntime:frame.obj
 0001:001be3cc       ?DecompHandler@HandlerMap4@FH4@@AEAAXXZ 00000001801bf3cc f i libvcruntime:frame.obj
 0001:001be618       ?FrameUnwindToState@__FrameHandler3@@SAXPEA_KPEAU_xDISPATCHER_CONTEXT@@PEBU_s_FuncInfo@@H@Z 00000001801bf618 f   libvcruntime:frame.obj
 0001:001be7a4       ?FrameUnwindToState@__FrameHandler4@@SAXPEA_KPEAU_xDISPATCHER_CONTEXT@@PEAUFuncInfo4@FH4@@H@Z 00000001801bf7a4 f   libvcruntime:frame.obj
 0001:001beaa0       ?GetHandlerSearchState@__FrameHandler3@@SAHPEA_KPEAU_xDISPATCHER_CONTEXT@@PEBU_s_FuncInfo@@@Z 00000001801bfaa0 f i libvcruntime:frame.obj
 0001:001becb0       ?ReadEntry@UWMap4@FH4@@AEAAXPEAPEAE@Z 00000001801bfcb0 f i libvcruntime:frame.obj
 0001:001bed4c       ?_CallMemberFunction1@@YAXQEAX00@Z 00000001801bfd4c f i libvcruntime:frame.obj
 0001:001bed58       ?_CallMemberFunction2@@YAXQEAX00H@Z 00000001801bfd58 f i libvcruntime:frame.obj
 0001:001bed68       ?getStartStop@UWMap4@FH4@@QEAAXHHAEAViterator@12@0@Z 00000001801bfd68 f i libvcruntime:frame.obj
 0001:001bee38       ?getStateFromIterators@UWMap4@FH4@@SAHAEBViterator@12@H0H0@Z 00000001801bfe38 f i libvcruntime:frame.obj
 0001:001beee8       ?what@exception@std@@UEBAPEBDXZ 00000001801bfee8 f i libvcruntime:frame.obj
 0001:001bef10       _CallSettingFrame          00000001801bff10 f   libvcruntime:handlers.obj
 0001:001bef60       _CallSettingFrame_LookupContinuationIndex 00000001801bff60 f   libvcruntime:handlers.obj
 0001:001bef90       _CallSettingFrame_NotifyContinuationAddr 00000001801bff90 f   libvcruntime:handlers.obj
 0001:001befc0       _CallSettingFrameEncoded   00000001801bffc0 f   libvcruntime:handlers.obj
 0001:001bf008       __std_exception_copy       00000001801c0008 f   libvcruntime:std_exception.obj
 0001:001bf098       __std_exception_destroy    00000001801c0098 f   libvcruntime:std_exception.obj
 0001:001bf0c0       _CxxThrowException         00000001801c00c0 f   libvcruntime:throw.obj
 0001:001bf160       _local_unwind              00000001801c0160 f   libvcruntime:jmpuwind.obj
 0001:001bf190       cosf                       00000001801c0190 f   libucrt:cosf.obj
 0001:001bf690       sinf                       00000001801c0690 f   libucrt:sinf.obj
 0001:001bfd90       tanf                       00000001801c0d90 f   libucrt:tanf.obj
 0001:001c0404       __acrt_initialize_stdio    00000001801c1404 f   libucrt:_file.obj
 0001:001c0524       __acrt_iob_func            00000001801c1524 f   libucrt:_file.obj
 0001:001c0538       __acrt_uninitialize_stdio  00000001801c1538 f   libucrt:_file.obj
 0001:001c0594       _lock_file                 00000001801c1594 f   libucrt:_file.obj
 0001:001c05a0       _unlock_file               00000001801c15a0 f   libucrt:_file.obj
 0001:001c079c       ??$ensure_buffer_is_big_enough@D@formatting_buffer@__crt_stdio_output@@QEAA_N_KAEAV__crt_cached_ptd_host@@@Z 00000001801c179c f i libucrt:output.obj
 0001:001c0844       ??$parse_integer@KV?$c_string_character_source@D@__crt_strtox@@$0A@@__crt_strtox@@YAKAEAV__crt_cached_ptd_host@@V?$c_string_character_source@D@0@H_N@Z 00000001801c1844 f i libucrt:output.obj
 0001:001c0af4       ??$type_case_integer@$07@?$output_processor@DV?$stream_output_adapter@D@__crt_stdio_output@@V?$standard_base@DV?$stream_output_adapter@D@__crt_stdio_output@@@2@@__crt_stdio_output@@AEAA_N_N@Z 00000001801c1af4 f i libucrt:output.obj
 0001:001c0af4       ??$type_case_integer@$07@?$output_processor@DV?$string_output_adapter@D@__crt_stdio_output@@V?$format_validation_base@DV?$string_output_adapter@D@__crt_stdio_output@@@2@@__crt_stdio_output@@AEAA_N_N@Z 00000001801c1af4 f i libucrt:output.obj
 0001:001c0af4       ??$type_case_integer@$07@?$output_processor@DV?$string_output_adapter@D@__crt_stdio_output@@V?$standard_base@DV?$string_output_adapter@D@__crt_stdio_output@@@2@@__crt_stdio_output@@AEAA_N_N@Z 00000001801c1af4 f i libucrt:output.obj
 0001:001c0cdc       ??$type_case_integer@$09@?$output_processor@DV?$stream_output_adapter@D@__crt_stdio_output@@V?$standard_base@DV?$stream_output_adapter@D@__crt_stdio_output@@@2@@__crt_stdio_output@@AEAA_N_N@Z 00000001801c1cdc f i libucrt:output.obj
 0001:001c0cdc       ??$type_case_integer@$09@?$output_processor@DV?$string_output_adapter@D@__crt_stdio_output@@V?$format_validation_base@DV?$string_output_adapter@D@__crt_stdio_output@@@2@@__crt_stdio_output@@AEAA_N_N@Z 00000001801c1cdc f i libucrt:output.obj
 0001:001c0cdc       ??$type_case_integer@$09@?$output_processor@DV?$string_output_adapter@D@__crt_stdio_output@@V?$standard_base@DV?$string_output_adapter@D@__crt_stdio_output@@@2@@__crt_stdio_output@@AEAA_N_N@Z 00000001801c1cdc f i libucrt:output.obj
 0001:001c0ec4       ??$type_case_integer@$0BA@@?$output_processor@DV?$stream_output_adapter@D@__crt_stdio_output@@V?$standard_base@DV?$stream_output_adapter@D@__crt_stdio_output@@@2@@__crt_stdio_output@@AEAA_N_N@Z 00000001801c1ec4 f i libucrt:output.obj
 0001:001c0ec4       ??$type_case_integer@$0BA@@?$output_processor@DV?$string_output_adapter@D@__crt_stdio_output@@V?$format_validation_base@DV?$string_output_adapter@D@__crt_stdio_output@@@2@@__crt_stdio_output@@AEAA_N_N@Z 00000001801c1ec4 f i libucrt:output.obj
 0001:001c0ec4       ??$type_case_integer@$0BA@@?$output_processor@DV?$string_output_adapter@D@__crt_stdio_output@@V?$standard_base@DV?$string_output_adapter@D@__crt_stdio_output@@@2@@__crt_stdio_output@@AEAA_N_N@Z 00000001801c1ec4 f i libucrt:output.obj
 0001:001c10ac       ??$type_case_integer_parse_into_buffer@I$07@?$output_processor@DV?$stream_output_adapter@D@__crt_stdio_output@@V?$standard_base@DV?$stream_output_adapter@D@__crt_stdio_output@@@2@@__crt_stdio_output@@AEAAXI_N@Z 00000001801c20ac f i libucrt:output.obj
 0001:001c10ac       ??$type_case_integer_parse_into_buffer@I$07@?$output_processor@DV?$string_output_adapter@D@__crt_stdio_output@@V?$format_validation_base@DV?$string_output_adapter@D@__crt_stdio_output@@@2@@__crt_stdio_output@@AEAAXI_N@Z 00000001801c20ac f i libucrt:output.obj
 0001:001c10ac       ??$type_case_integer_parse_into_buffer@I$07@?$output_processor@DV?$string_output_adapter@D@__crt_stdio_output@@V?$standard_base@DV?$string_output_adapter@D@__crt_stdio_output@@@2@@__crt_stdio_output@@AEAAXI_N@Z 00000001801c20ac f i libucrt:output.obj
 0001:001c1128       ??$type_case_integer_parse_into_buffer@I$09@?$output_processor@DV?$stream_output_adapter@D@__crt_stdio_output@@V?$standard_base@DV?$stream_output_adapter@D@__crt_stdio_output@@@2@@__crt_stdio_output@@AEAAXI_N@Z 00000001801c2128 f i libucrt:output.obj
 0001:001c1128       ??$type_case_integer_parse_into_buffer@I$09@?$output_processor@DV?$string_output_adapter@D@__crt_stdio_output@@V?$format_validation_base@DV?$string_output_adapter@D@__crt_stdio_output@@@2@@__crt_stdio_output@@AEAAXI_N@Z 00000001801c2128 f i libucrt:output.obj
 0001:001c1128       ??$type_case_integer_parse_into_buffer@I$09@?$output_processor@DV?$string_output_adapter@D@__crt_stdio_output@@V?$standard_base@DV?$string_output_adapter@D@__crt_stdio_output@@@2@@__crt_stdio_output@@AEAAXI_N@Z 00000001801c2128 f i libucrt:output.obj
 0001:001c11d0       ??$type_case_integer_parse_into_buffer@I$0BA@@?$output_processor@DV?$stream_output_adapter@D@__crt_stdio_output@@V?$standard_base@DV?$stream_output_adapter@D@__crt_stdio_output@@@2@@__crt_stdio_output@@AEAAXI_N@Z 00000001801c21d0 f i libucrt:output.obj
 0001:001c11d0       ??$type_case_integer_parse_into_buffer@I$0BA@@?$output_processor@DV?$string_output_adapter@D@__crt_stdio_output@@V?$format_validation_base@DV?$string_output_adapter@D@__crt_stdio_output@@@2@@__crt_stdio_output@@AEAAXI_N@Z 00000001801c21d0 f i libucrt:output.obj
 0001:001c11d0       ??$type_case_integer_parse_into_buffer@I$0BA@@?$output_processor@DV?$string_output_adapter@D@__crt_stdio_output@@V?$standard_base@DV?$string_output_adapter@D@__crt_stdio_output@@@2@@__crt_stdio_output@@AEAAXI_N@Z 00000001801c21d0 f i libucrt:output.obj
 0001:001c125c       ??$type_case_integer_parse_into_buffer@_K$07@?$output_processor@DV?$stream_output_adapter@D@__crt_stdio_output@@V?$standard_base@DV?$stream_output_adapter@D@__crt_stdio_output@@@2@@__crt_stdio_output@@AEAAX_K_N@Z 00000001801c225c f i libucrt:output.obj
 0001:001c125c       ??$type_case_integer_parse_into_buffer@_K$07@?$output_processor@DV?$string_output_adapter@D@__crt_stdio_output@@V?$format_validation_base@DV?$string_output_adapter@D@__crt_stdio_output@@@2@@__crt_stdio_output@@AEAAX_K_N@Z 00000001801c225c f i libucrt:output.obj
 0001:001c125c       ??$type_case_integer_parse_into_buffer@_K$07@?$output_processor@DV?$string_output_adapter@D@__crt_stdio_output@@V?$standard_base@DV?$string_output_adapter@D@__crt_stdio_output@@@2@@__crt_stdio_output@@AEAAX_K_N@Z 00000001801c225c f i libucrt:output.obj
 0001:001c12d8       ??$type_case_integer_parse_into_buffer@_K$09@?$output_processor@DV?$stream_output_adapter@D@__crt_stdio_output@@V?$standard_base@DV?$stream_output_adapter@D@__crt_stdio_output@@@2@@__crt_stdio_output@@AEAAX_K_N@Z 00000001801c22d8 f i libucrt:output.obj
 0001:001c12d8       ??$type_case_integer_parse_into_buffer@_K$09@?$output_processor@DV?$string_output_adapter@D@__crt_stdio_output@@V?$format_validation_base@DV?$string_output_adapter@D@__crt_stdio_output@@@2@@__crt_stdio_output@@AEAAX_K_N@Z 00000001801c22d8 f i libucrt:output.obj
 0001:001c12d8       ??$type_case_integer_parse_into_buffer@_K$09@?$output_processor@DV?$string_output_adapter@D@__crt_stdio_output@@V?$standard_base@DV?$string_output_adapter@D@__crt_stdio_output@@@2@@__crt_stdio_output@@AEAAX_K_N@Z 00000001801c22d8 f i libucrt:output.obj
 0001:001c1384       ??$type_case_integer_parse_into_buffer@_K$0BA@@?$output_processor@DV?$stream_output_adapter@D@__crt_stdio_output@@V?$standard_base@DV?$stream_output_adapter@D@__crt_stdio_output@@@2@@__crt_stdio_output@@AEAAX_K_N@Z 00000001801c2384 f i libucrt:output.obj
 0001:001c1384       ??$type_case_integer_parse_into_buffer@_K$0BA@@?$output_processor@DV?$string_output_adapter@D@__crt_stdio_output@@V?$format_validation_base@DV?$string_output_adapter@D@__crt_stdio_output@@@2@@__crt_stdio_output@@AEAAX_K_N@Z 00000001801c2384 f i libucrt:output.obj
 0001:001c1384       ??$type_case_integer_parse_into_buffer@_K$0BA@@?$output_processor@DV?$string_output_adapter@D@__crt_stdio_output@@V?$standard_base@DV?$string_output_adapter@D@__crt_stdio_output@@@2@@__crt_stdio_output@@AEAAX_K_N@Z 00000001801c2384 f i libucrt:output.obj
 0001:001c152c       ?crop_zeroes@__crt_stdio_output@@YAXPEADQEAU__crt_locale_pointers@@@Z 00000001801c252c f i libucrt:output.obj
 0001:001c15a0       ?get_raw_ptd@__crt_cached_ptd_host@@QEAAPEAU__acrt_ptd@@XZ 00000001801c25a0 f i libucrt:output.obj
 0001:001c1608       ?parse_int_from_format_string@?$output_processor@DV?$stream_output_adapter@D@__crt_stdio_output@@V?$standard_base@DV?$stream_output_adapter@D@__crt_stdio_output@@@2@@__crt_stdio_output@@AEAA_NQEAH@Z 00000001801c2608 f i libucrt:output.obj
 0001:001c1608       ?parse_int_from_format_string@?$output_processor@DV?$string_output_adapter@D@__crt_stdio_output@@V?$format_validation_base@DV?$string_output_adapter@D@__crt_stdio_output@@@2@@__crt_stdio_output@@AEAA_NQEAH@Z 00000001801c2608 f i libucrt:output.obj
 0001:001c1608       ?parse_int_from_format_string@?$output_processor@DV?$string_output_adapter@D@__crt_stdio_output@@V?$standard_base@DV?$string_output_adapter@D@__crt_stdio_output@@@2@@__crt_stdio_output@@AEAA_NQEAH@Z 00000001801c2608 f i libucrt:output.obj
 0001:001c1698       ?process@?$output_processor@DV?$stream_output_adapter@D@__crt_stdio_output@@V?$standard_base@DV?$stream_output_adapter@D@__crt_stdio_output@@@2@@__crt_stdio_output@@QEAAHXZ 00000001801c2698 f i libucrt:output.obj
 0001:001c1a24       ?process@?$output_processor@DV?$string_output_adapter@D@__crt_stdio_output@@V?$format_validation_base@DV?$string_output_adapter@D@__crt_stdio_output@@@2@@__crt_stdio_output@@QEAAHXZ 00000001801c2a24 f i libucrt:output.obj
 0001:001c1db4       ?process@?$output_processor@DV?$string_output_adapter@D@__crt_stdio_output@@V?$standard_base@DV?$string_output_adapter@D@__crt_stdio_output@@@2@@__crt_stdio_output@@QEAAHXZ 00000001801c2db4 f i libucrt:output.obj
 0001:001c2138       ?state_case_size@?$output_processor@DV?$stream_output_adapter@D@__crt_stdio_output@@V?$standard_base@DV?$stream_output_adapter@D@__crt_stdio_output@@@2@@__crt_stdio_output@@AEAA_NXZ 00000001801c3138 f i libucrt:output.obj
 0001:001c22bc       ?state_case_size@?$output_processor@DV?$string_output_adapter@D@__crt_stdio_output@@V?$format_validation_base@DV?$string_output_adapter@D@__crt_stdio_output@@@2@@__crt_stdio_output@@AEAA_NXZ 00000001801c32bc f i libucrt:output.obj
 0001:001c22bc       ?state_case_size@?$output_processor@DV?$string_output_adapter@D@__crt_stdio_output@@V?$standard_base@DV?$string_output_adapter@D@__crt_stdio_output@@@2@@__crt_stdio_output@@AEAA_NXZ 00000001801c32bc f i libucrt:output.obj
 0001:001c2440       ?state_case_type@?$output_processor@DV?$stream_output_adapter@D@__crt_stdio_output@@V?$standard_base@DV?$stream_output_adapter@D@__crt_stdio_output@@@2@@__crt_stdio_output@@AEAA_NXZ 00000001801c3440 f i libucrt:output.obj
 0001:001c2874       ?state_case_type@?$output_processor@DV?$string_output_adapter@D@__crt_stdio_output@@V?$format_validation_base@DV?$string_output_adapter@D@__crt_stdio_output@@@2@@__crt_stdio_output@@AEAA_NXZ 00000001801c3874 f i libucrt:output.obj
 0001:001c2874       ?state_case_type@?$output_processor@DV?$string_output_adapter@D@__crt_stdio_output@@V?$standard_base@DV?$string_output_adapter@D@__crt_stdio_output@@@2@@__crt_stdio_output@@AEAA_NXZ 00000001801c3874 f i libucrt:output.obj
 0001:001c2c40       ?type_case_Z@?$output_processor@DV?$stream_output_adapter@D@__crt_stdio_output@@V?$standard_base@DV?$stream_output_adapter@D@__crt_stdio_output@@@2@@__crt_stdio_output@@AEAA_NXZ 00000001801c3c40 f i libucrt:output.obj
 0001:001c2c40       ?type_case_Z@?$output_processor@DV?$string_output_adapter@D@__crt_stdio_output@@V?$format_validation_base@DV?$string_output_adapter@D@__crt_stdio_output@@@2@@__crt_stdio_output@@AEAA_NXZ 00000001801c3c40 f i libucrt:output.obj
 0001:001c2c40       ?type_case_Z@?$output_processor@DV?$string_output_adapter@D@__crt_stdio_output@@V?$standard_base@DV?$string_output_adapter@D@__crt_stdio_output@@@2@@__crt_stdio_output@@AEAA_NXZ 00000001801c3c40 f i libucrt:output.obj
 0001:001c2cb8       ?type_case_a@?$output_processor@DV?$stream_output_adapter@D@__crt_stdio_output@@V?$standard_base@DV?$stream_output_adapter@D@__crt_stdio_output@@@2@@__crt_stdio_output@@AEAA_NXZ 00000001801c3cb8 f i libucrt:output.obj
 0001:001c2cb8       ?type_case_a@?$output_processor@DV?$string_output_adapter@D@__crt_stdio_output@@V?$format_validation_base@DV?$string_output_adapter@D@__crt_stdio_output@@@2@@__crt_stdio_output@@AEAA_NXZ 00000001801c3cb8 f i libucrt:output.obj
 0001:001c2cb8       ?type_case_a@?$output_processor@DV?$string_output_adapter@D@__crt_stdio_output@@V?$standard_base@DV?$string_output_adapter@D@__crt_stdio_output@@@2@@__crt_stdio_output@@AEAA_NXZ 00000001801c3cb8 f i libucrt:output.obj
 0001:001c2f04       ?type_case_c_tchar@?$output_processor@DV?$stream_output_adapter@D@__crt_stdio_output@@V?$standard_base@DV?$stream_output_adapter@D@__crt_stdio_output@@@2@@__crt_stdio_output@@AEAA_ND@Z 00000001801c3f04 f i libucrt:output.obj
 0001:001c2f04       ?type_case_c_tchar@?$output_processor@DV?$string_output_adapter@D@__crt_stdio_output@@V?$format_validation_base@DV?$string_output_adapter@D@__crt_stdio_output@@@2@@__crt_stdio_output@@AEAA_ND@Z 00000001801c3f04 f i libucrt:output.obj
 0001:001c2f04       ?type_case_c_tchar@?$output_processor@DV?$string_output_adapter@D@__crt_stdio_output@@V?$standard_base@DV?$string_output_adapter@D@__crt_stdio_output@@@2@@__crt_stdio_output@@AEAA_ND@Z 00000001801c3f04 f i libucrt:output.obj
 0001:001c2fc8       ?type_case_n@?$output_processor@DV?$stream_output_adapter@D@__crt_stdio_output@@V?$standard_base@DV?$stream_output_adapter@D@__crt_stdio_output@@@2@@__crt_stdio_output@@AEAA_NXZ 00000001801c3fc8 f i libucrt:output.obj
 0001:001c2fc8       ?type_case_n@?$output_processor@DV?$string_output_adapter@D@__crt_stdio_output@@V?$format_validation_base@DV?$string_output_adapter@D@__crt_stdio_output@@@2@@__crt_stdio_output@@AEAA_NXZ 00000001801c3fc8 f i libucrt:output.obj
 0001:001c2fc8       ?type_case_n@?$output_processor@DV?$string_output_adapter@D@__crt_stdio_output@@V?$standard_base@DV?$string_output_adapter@D@__crt_stdio_output@@@2@@__crt_stdio_output@@AEAA_NXZ 00000001801c3fc8 f i libucrt:output.obj
 0001:001c307c       ?type_case_s@?$output_processor@DV?$stream_output_adapter@D@__crt_stdio_output@@V?$standard_base@DV?$stream_output_adapter@D@__crt_stdio_output@@@2@@__crt_stdio_output@@AEAA_NXZ 00000001801c407c f i libucrt:output.obj
 0001:001c307c       ?type_case_s@?$output_processor@DV?$string_output_adapter@D@__crt_stdio_output@@V?$format_validation_base@DV?$string_output_adapter@D@__crt_stdio_output@@@2@@__crt_stdio_output@@AEAA_NXZ 00000001801c407c f i libucrt:output.obj
 0001:001c307c       ?type_case_s@?$output_processor@DV?$string_output_adapter@D@__crt_stdio_output@@V?$standard_base@DV?$string_output_adapter@D@__crt_stdio_output@@@2@@__crt_stdio_output@@AEAA_NXZ 00000001801c407c f i libucrt:output.obj
 0001:001c3120       ?update_locale_slow@__crt_cached_ptd_host@@AEAAXXZ 00000001801c4120 f i libucrt:output.obj
 0001:001c3198       ?validate_stream_is_ansi_if_required@?$__acrt_stdio_char_traits@D@@SA_NQEAU_iobuf@@@Z 00000001801c4198 f i libucrt:output.obj
 0001:001c3234       ?write_string@?$string_output_adapter@D@__crt_stdio_output@@QEBAXQEBDHQEAHAEAV__crt_cached_ptd_host@@@Z 00000001801c4234 f i libucrt:output.obj
 0001:001c32d8       ?write_string_impl@?$output_adapter_common@DV?$stream_output_adapter@D@__crt_stdio_output@@@__crt_stdio_output@@IEBAXQEBDHQEAHAEAV__crt_cached_ptd_host@@@Z 00000001801c42d8 f i libucrt:output.obj
 0001:001c33a4       __stdio_common_vfprintf    00000001801c43a4 f   libucrt:output.obj
 0001:001c34c8       __stdio_common_vsprintf    00000001801c44c8 f   libucrt:output.obj
 0001:001c371c       __stdio_common_vsprintf_s  00000001801c471c f   libucrt:output.obj
 0001:001c3830       _fpclass                   00000001801c4830 f   libucrt:ieeemisc.obj
 0001:001c38c0       powf                       00000001801c48c0 f   libucrt:powf.obj
 0001:001c4788       atan2f                     00000001801c5788 f   libucrt:atan2f.obj
 0001:001c4b90       strcmp                     00000001801c5b90 f   libucrt:strcmp.obj
 0001:001c4bf8       acosf                      00000001801c5bf8 f   libucrt:acosf.obj
 0001:001c4e24       free                       00000001801c5e24 f   libucrt:free.obj
 0001:001c4e38       _seh_filter_dll            00000001801c5e38 f   libucrt:exception_filter.obj
 0001:001c4e4c       _seh_filter_exe            00000001801c5e4c f   libucrt:exception_filter.obj
 0001:001c5270       __acrt_initialize_thread_local_exit_callback 00000001801c6270 f   libucrt:exit.obj
 0001:001c5278       _cexit                     00000001801c6278 f   libucrt:exit.obj
 0001:001c5288       _exit                      00000001801c6288 f   libucrt:exit.obj
 0001:001c5294       _is_c_termination_complete 00000001801c6294 f   libucrt:exit.obj
 0001:001c545c       __acrt_allocate_buffer_for_argv 00000001801c645c f   libucrt:argv_parsing.obj
 0001:001c54bc       _configure_narrow_argv     00000001801c64bc f   libucrt:argv_parsing.obj
 0001:001c5844       __dcrt_uninitialize_environments_nolock 00000001801c6844 f   libucrt:environment_initialization.obj
 0001:001c5888       _initialize_narrow_environment 00000001801c6888 f   libucrt:environment_initialization.obj
 0001:001c5bd8       _crt_atexit                00000001801c6bd8 f   libucrt:onexit.obj
 0001:001c5be8       _execute_onexit_table      00000001801c6be8 f   libucrt:onexit.obj
 0001:001c5c2c       _initialize_onexit_table   00000001801c6c2c f   libucrt:onexit.obj
 0001:001c5c54       _register_onexit_function  00000001801c6c54 f   libucrt:onexit.obj
 0001:001c5cd4       __acrt_uninitialize_command_line 00000001801c6cd4 f   libucrt:argv_data.obj
 0001:001c5dcc       __acrt_initialize          00000001801c6dcc f   libucrt:initialization.obj
 0001:001c5de0       __acrt_thread_attach       00000001801c6de0 f   libucrt:initialization.obj
 0001:001c5df4       __acrt_thread_detach       00000001801c6df4 f   libucrt:initialization.obj
 0001:001c5e04       __acrt_uninitialize        00000001801c6e04 f   libucrt:initialization.obj
 0001:001c5e3c       __acrt_uninitialize_critical 00000001801c6e3c f   libucrt:initialization.obj
 0001:001c5e4c       _initterm                  00000001801c6e4c f   libucrt:initterm.obj
 0001:001c5e90       _initterm_e                00000001801c6e90 f   libucrt:initterm.obj
 0001:001c5ed8       terminate                  00000001801c6ed8 f   libucrt:terminate.obj
 0001:001c5f04       abort                      00000001801c6f04 f   libucrt:abort.obj
 0001:001c5f5c       malloc                     00000001801c6f5c f   libucrt:malloc.obj
 0001:001c5f64       strcpy_s                   00000001801c6f64 f   libucrt:strcpy_s.obj
 0001:001c5fc4       ??$parse_integer@KV?$c_string_character_source@D@__crt_strtox@@$00@__crt_strtox@@YAKAEAV__crt_cached_ptd_host@@V?$c_string_character_source@D@0@H_N@Z 00000001801c6fc4 f i libucrt:atox.obj
 0001:001c62a4       _ischartype_l              00000001801c72a4 f i libucrt:atox.obj
 0001:001c631c       atol                       00000001801c731c f   libucrt:atox.obj
 0001:001c63e0       strncmp                    00000001801c73e0 f   libucrt:strncmp.obj
 0001:001c6460       calloc                     00000001801c7460 f   libucrt:calloc.obj
 0001:001c6468       wcsncmp                    00000001801c7468 f   libucrt:wcsncmp.obj
 0001:001c64a0       __remainder_piby2d2f_forAsm 00000001801c74a0 f   libucrt:remainder_piby2f_forasm.obj
 0001:001c65f0       __remainder_piby2_fma3     00000001801c75f0 f   libucrt:remainder_piby2_forfma3.obj
 0001:001c67e0       __remainder_piby2_fma3_bdl 00000001801c77e0 f   libucrt:remainder_piby2_forfma3.obj
 0001:001c6858       _cosf_special              00000001801c7858 f   libucrt:sincos_special.obj
 0001:001c68f8       _sinf_special              00000001801c78f8 f   libucrt:sincos_special.obj
 0001:001c690c       _tanf_special              00000001801c790c f   libucrt:sincos_special.obj
 0001:001c6920       _clrfp                     00000001801c7920 f   libucrt:fpctrl.obj
 0001:001c6940       _ctrlfp                    00000001801c7940 f   libucrt:fpctrl.obj
 0001:001c69bc       _set_statfp                00000001801c79bc f   libucrt:fpctrl.obj
 0001:001c69dc       _statfp                    00000001801c79dc f   libucrt:fpctrl.obj
 0001:001c69f0       __acrt_initialize_fma3     00000001801c79f0 f   libucrt:fma3_available.obj
 0001:001c6a60       __remainder_piby2d2f_forC  00000001801c7a60 f   libucrt:remainder_piby2f_forc.obj
 0001:001c6bec       ?get_raw_ptd_noexit@__crt_cached_ptd_host@@QEAAPEAU__acrt_ptd@@XZ 00000001801c7bec f i libucrt:invalid_parameter.obj
 0001:001c6c58       ?value@?$dual_state_global@P6AXPEB_W00I_K@Z@__crt_state_management@@QEAAAEAP6AXPEB_W00I_K@ZAEAV__crt_cached_ptd_host@@@Z 00000001801c7c58 f i libucrt:invalid_parameter.obj
 0001:001c6ca4       __acrt_call_reportfault    00000001801c7ca4 f   libucrt:invalid_parameter.obj
 0001:001c6e00       __acrt_initialize_invalid_parameter_handler 00000001801c7e00 f   libucrt:invalid_parameter.obj
 0001:001c6e08       _invalid_parameter         00000001801c7e08 f   libucrt:invalid_parameter.obj
 0001:001c6ea4       _invalid_parameter_internal 00000001801c7ea4 f   libucrt:invalid_parameter.obj
 0001:001c6f74       _invalid_parameter_noinfo  00000001801c7f74 f   libucrt:invalid_parameter.obj
 0001:001c6f94       _invoke_watson             00000001801c7f94 f   libucrt:invalid_parameter.obj
 0001:001c6fdc       __acrt_errno_from_os_error 00000001801c7fdc f   libucrt:errno.obj
 0001:001c7024       __acrt_errno_map_os_error  00000001801c8024 f   libucrt:errno.obj
 0001:001c706c       __acrt_errno_map_os_error_ptd 00000001801c806c f   libucrt:errno.obj
 0001:001c7090       __doserrno                 00000001801c8090 f   libucrt:errno.obj
 0001:001c70b0       _errno                     00000001801c80b0 f   libucrt:errno.obj
 0001:001c70d0       _calloc_base               00000001801c80d0 f   libucrt:calloc_base.obj
 0001:001c7148       _free_base                 00000001801c8148 f   libucrt:free_base.obj
 0001:001c7344       __acrt_AppPolicyGetProcessTerminationMethodInternal 00000001801c8344 f   libucrt:winapi_thunks.obj
 0001:001c739c       __acrt_AreFileApisANSI     00000001801c839c f   libucrt:winapi_thunks.obj
 0001:001c73e0       __acrt_FlsAlloc            00000001801c83e0 f   libucrt:winapi_thunks.obj
 0001:001c73e8       __acrt_FlsFree             00000001801c83e8 f   libucrt:winapi_thunks.obj
 0001:001c73f0       __acrt_FlsGetValue         00000001801c83f0 f   libucrt:winapi_thunks.obj
 0001:001c73f8       __acrt_FlsSetValue         00000001801c83f8 f   libucrt:winapi_thunks.obj
 0001:001c7400       __acrt_InitializeCriticalSectionEx 00000001801c8400 f   libucrt:winapi_thunks.obj
 0001:001c7470       __acrt_LCMapStringEx       00000001801c8470 f   libucrt:winapi_thunks.obj
 0001:001c755c       __acrt_LocaleNameToLCID    00000001801c855c f   libucrt:winapi_thunks.obj
 0001:001c75bc       __acrt_initialize_winapi_thunks 00000001801c85bc f   libucrt:winapi_thunks.obj
 0001:001c75e0       __acrt_uninitialize_winapi_thunks 00000001801c85e0 f   libucrt:winapi_thunks.obj
 0001:001c7624       _fcloseall                 00000001801c8624 f   libucrt:closeall.obj
 0001:001c78b4       __acrt_stdio_flush_nolock  00000001801c88b4 f   libucrt:fflush.obj
 0001:001c7940       _fflush_nolock             00000001801c8940 f   libucrt:fflush.obj
 0001:001c7a14       _flushall                  00000001801c8a14 f   libucrt:fflush.obj
 0001:001c7a1c       __acrt_stdio_free_buffer_nolock 00000001801c8a1c f   libucrt:_freebuf.obj
 0001:001c7c54       __acrt_initialize_lowio    00000001801c8c54 f   libucrt:ioinit.obj
 0001:001c7c90       __acrt_uninitialize_lowio  00000001801c8c90 f   libucrt:ioinit.obj
 0001:001c7cd0       _malloc_base               00000001801c8cd0 f   libucrt:malloc_base.obj
 0001:001c7d30       strnlen                    00000001801c8d30 f   libucrt:strnlen.obj
 0001:001c7e80       wcsnlen                    00000001801c8e80 f   libucrt:strnlen.obj
 0001:001c8058       __acrt_update_locale_info  00000001801c9058 f   libucrt:locale_update.obj
 0001:001c808c       __acrt_update_locale_info_explicit 00000001801c908c f   libucrt:locale_update.obj
 0001:001c80c4       __acrt_update_multibyte_info 00000001801c90c4 f   libucrt:locale_update.obj
 0001:001c80f8       __acrt_update_multibyte_info_explicit 00000001801c90f8 f   libucrt:locale_update.obj
 0001:001c8c60       __acrt_fp_format           00000001801c9c60 f   libucrt:cvt.obj
 0001:001c8f48       _wctomb_internal           00000001801c9f48 f   libucrt:wctomb.obj
 0001:001c90f8       _mbtowc_internal           00000001801ca0f8 f   libucrt:mbtowc.obj
 0001:001c9270       _fileno                    00000001801ca270 f   libucrt:fileno.obj
 0001:001c9298       _get_printf_count_output   00000001801ca298 f   libucrt:printf_count_output.obj
 0001:001c92b0       _fputc_nolock_internal     00000001801ca2b0 f   libucrt:fputc.obj
 0001:001c92c8       __acrt_should_use_temporary_buffer 00000001801ca2c8 f   libucrt:_sftbuf.obj
 0001:001c9310       __acrt_stdio_begin_temporary_buffering_nolock 00000001801ca310 f   libucrt:_sftbuf.obj
 0001:001c93d8       __acrt_stdio_end_temporary_buffering_nolock 00000001801ca3d8 f   libucrt:_sftbuf.obj
 0001:001c978c       __acrt_freeptd             00000001801ca78c f   libucrt:per_thread_data.obj
 0001:001c97d0       __acrt_getptd              00000001801ca7d0 f   libucrt:per_thread_data.obj
 0001:001c98a4       __acrt_getptd_head         00000001801ca8a4 f   libucrt:per_thread_data.obj
 0001:001c9948       __acrt_getptd_noexit       00000001801ca948 f   libucrt:per_thread_data.obj
 0001:001c9a10       __acrt_getptd_noexit_explicit 00000001801caa10 f   libucrt:per_thread_data.obj
 0001:001c9ad0       __acrt_initialize_ptd      00000001801caad0 f   libucrt:per_thread_data.obj
 0001:001c9b0c       __acrt_uninitialize_ptd    00000001801cab0c f   libucrt:per_thread_data.obj
 0001:001c9ba0       __acrt_set_locale_changed  00000001801caba0 f   libucrt:wsetlocale.obj
 0001:001c9bac       __acrt_uninitialize_locale 00000001801cabac f   libucrt:wsetlocale.obj
 0001:001c9d00       _handle_error              00000001801cad00 f   libucrt:libm_error.obj
 0001:001c9e28       _handle_errorf             00000001801cae28 f   libucrt:libm_error.obj
 0001:001c9f5c       _handle_nan                00000001801caf5c f   libucrt:libm_error.obj
 0001:001c9f78       _handle_nanf               00000001801caf78 f   libucrt:libm_error.obj
 0001:001c9f90       _powf_special              00000001801caf90 f   libucrt:pow_special.obj
 0001:001ca0e0       __acrt_initialize_locks    00000001801cb0e0 f   libucrt:locks.obj
 0001:001ca128       __acrt_lock                00000001801cb128 f   libucrt:locks.obj
 0001:001ca144       __acrt_uninitialize_locks  00000001801cb144 f   libucrt:locks.obj
 0001:001ca17c       __acrt_unlock              00000001801cb17c f   libucrt:locks.obj
 0001:001ca198       __acrt_get_process_end_policy 00000001801cb198 f   libucrt:win_policies.obj
 0001:001ca1e8       ??$__acrt_convert_wcs_mbs_cp@D_WV<lambda_7c9dea7b4ca7285d2cdb541a38da6275>@@U__crt_win32_buffer_internal_dynamic_resizing@@@@YAHQEBDAEAV?$__crt_win32_buffer@_WU__crt_win32_buffer_internal_dynamic_resizing@@@@AEBV<lambda_7c9dea7b4ca7285d2cdb541a38da6275>@@I@Z 00000001801cb1e8 f i libucrt:argv_wildcards.obj
 0001:001ca364       ??$__acrt_convert_wcs_mbs_cp@_WDV<lambda_d8593a27d1aa8c02be35c86a17d324c4>@@U__crt_win32_buffer_internal_dynamic_resizing@@@@YAHQEB_WAEAV?$__crt_win32_buffer@DU__crt_win32_buffer_internal_dynamic_resizing@@@@AEBV<lambda_d8593a27d1aa8c02be35c86a17d324c4>@@I@Z 00000001801cb364 f i libucrt:argv_wildcards.obj
 0001:001cac0c       ??0_LocaleUpdate@@QEAA@QEAU__crt_locale_pointers@@@Z 00000001801cbc0c f i libucrt:argv_wildcards.obj
 0001:001caca8       __acrt_expand_narrow_argv_wildcards 00000001801cbca8 f   libucrt:argv_wildcards.obj
 0001:001cacb0       ??$__acrt_convert_wcs_mbs_cp@_WDV<lambda_f788ae46380686e8b737efdd8c720d07>@@U__crt_win32_buffer_no_resizing@@@@YAHQEB_WAEAV?$__crt_win32_buffer@DU__crt_win32_buffer_no_resizing@@@@AEBV<lambda_f788ae46380686e8b737efdd8c720d07>@@I@Z 00000001801cbcb0 f i libucrt:getmodulefilenamea.obj
 0001:001cadcc       __acrt_GetModuleFileNameA  00000001801cbdcc f   libucrt:getmodulefilenamea.obj
 0001:001cb6e8       __acrt_initialize_multibyte 00000001801cc6e8 f   libucrt:mbctype.obj
 0001:001cb748       __acrt_update_thread_multibyte_data 00000001801cc748 f   libucrt:mbctype.obj
 0001:001cb764       _setmbcp_nolock            00000001801cc764 f   libucrt:mbctype.obj
 0001:001cba98       _ismbblead                 00000001801cca98 f   libucrt:ismbbyte.obj
 0001:001cbaac       __acrt_initialize_command_line 00000001801ccaac f   libucrt:argv_data.obj
 0001:001cbad4       __acrt_MultiByteToWideChar 00000001801ccad4 f   libucrt:multibytetowidechar.obj
 0001:001cbb30       __acrt_WideCharToMultiByte 00000001801ccb30 f   libucrt:widechartomultibyte.obj
 0001:001cbbe0       __dcrt_get_narrow_environment_from_os 00000001801ccbe0 f   libucrt:get_environment_from_os.obj
 0001:001cbcf0       _recalloc_base             00000001801cccf0 f   libucrt:recalloc.obj
 0001:001cbd88       __acrt_initialize_heap     00000001801ccd88 f   libucrt:heap_handle.obj
 0001:001cbda4       __acrt_uninitialize_heap   00000001801ccda4 f   libucrt:heap_handle.obj
 0001:001cbdb0       __acrt_execute_initializers 00000001801ccdb0 f   libucrt:shared_initialization.obj
 0001:001cbe44       __acrt_execute_uninitializers 00000001801cce44 f   libucrt:shared_initialization.obj
 0001:001cbe8c       __acrt_initialize_new_handler 00000001801cce8c f   libucrt:new_handler.obj
 0001:001cbe94       _callnewh                  00000001801cce94 f   libucrt:new_handler.obj
 0001:001cbed0       _query_new_handler         00000001801cced0 f   libucrt:new_handler.obj
 0001:001cbf4c       __acrt_get_sigabrt_handler 00000001801ccf4c f   libucrt:signal.obj
 0001:001cbf7c       __acrt_initialize_signal_handlers 00000001801ccf7c f   libucrt:signal.obj
 0001:001cbf9c       raise                      00000001801ccf9c f   libucrt:signal.obj
 0001:001cc21c       __acrt_has_user_matherr    00000001801cd21c f   libucrt:matherr.obj
 0001:001cc23c       __acrt_initialize_user_matherr 00000001801cd23c f   libucrt:matherr.obj
 0001:001cc244       __acrt_invoke_user_matherr 00000001801cd244 f   libucrt:matherr.obj
 0001:001cc27c       __pctype_func              00000001801cd27c f   libucrt:ctype.obj
 0001:001cc2ac       _isctype_l                 00000001801cd2ac f   libucrt:isctype.obj
 0001:001cc3d0       _get_fpsr                  00000001801cd3d0 f   libucrt:fpsr.obj
 0001:001cc3e0       _set_fpsr                  00000001801cd3e0 f   libucrt:fpsr.obj
 0001:001cc3ea       _fclrf                     00000001801cd3ea f   libucrt:fpsr.obj
 0001:001cc3fe       _frnd                      00000001801cd3fe f   libucrt:fpsr.obj
 0001:001cc420       _query_new_mode            00000001801cd420 f   libucrt:new_mode.obj
 0001:001cc428       __acrt_DownlevelLocaleNameToLCID 00000001801cd428 f   libucrt:lcidtoname_downlevel.obj
 0001:001cc5f0       fclose                     00000001801cd5f0 f   libucrt:fclose.obj
 0001:001cc714       _commit                    00000001801cd714 f   libucrt:commit.obj
 0001:001ccfc4       _write_internal            00000001801cdfc4 f   libucrt:write.obj
 0001:001cd0ec       _write_nolock              00000001801ce0ec f   libucrt:write.obj
 0001:001cd3fc       __acrt_lowio_create_handle_array 00000001801ce3fc f   libucrt:osfinfo.obj
 0001:001cd4a4       __acrt_lowio_destroy_handle_array 00000001801ce4a4 f   libucrt:osfinfo.obj
 0001:001cd4f4       __acrt_lowio_ensure_fh_exists 00000001801ce4f4 f   libucrt:osfinfo.obj
 0001:001cd59c       __acrt_lowio_lock_fh       00000001801ce59c f   libucrt:osfinfo.obj
 0001:001cd5c4       __acrt_lowio_unlock_fh     00000001801ce5c4 f   libucrt:osfinfo.obj
 0001:001cd5ec       _free_osfhnd               00000001801ce5ec f   libucrt:osfinfo.obj
 0001:001cd6a8       _get_osfhandle             00000001801ce6a8 f   libucrt:osfinfo.obj
 0001:001cd720       __acrt_add_locale_ref      00000001801ce720 f   libucrt:locale_refcounting.obj
 0001:001cd7ac       __acrt_free_locale         00000001801ce7ac f   libucrt:locale_refcounting.obj
 0001:001cd924       __acrt_locale_add_lc_time_reference 00000001801ce924 f   libucrt:locale_refcounting.obj
 0001:001cd94c       __acrt_locale_free_lc_time_if_unreferenced 00000001801ce94c f   libucrt:locale_refcounting.obj
 0001:001cd984       __acrt_locale_release_lc_time_reference 00000001801ce984 f   libucrt:locale_refcounting.obj
 0001:001cd9ac       __acrt_release_locale_ref  00000001801ce9ac f   libucrt:locale_refcounting.obj
 0001:001cda54       __acrt_update_thread_locale_data 00000001801cea54 f   libucrt:locale_refcounting.obj
 0001:001cdac4       _updatetlocinfoEx_nolock   00000001801ceac4 f   libucrt:locale_refcounting.obj
 0001:001cdb2c       __acrt_fp_strflt_to_string 00000001801ceb2c f   libucrt:_fptostr.obj
 0001:001cdcb0       ?divide@__crt_strtox@@YA_KAEAUbig_integer@1@AEBU21@@Z 00000001801cecb0 f i libucrt:cfout.obj
 0001:001ce13c       __acrt_fltout              00000001801cf13c f   libucrt:cfout.obj
 0001:001cf404       fegetround                 00000001801d0404 f   libucrt:fegetround.obj
 0001:001cf418       ?__c32rtomb_utf8@__crt_mbstring@@YA_KPEAD_UPEAU_Mbstatet@@AEAV__crt_cached_ptd_host@@@Z 00000001801d0418 f   libucrt:c32rtomb.obj
 0001:001cf4bc       ?__mbrtowc_utf8@__crt_mbstring@@YA_KPEA_WPEBD_KPEAU_Mbstatet@@AEAV__crt_cached_ptd_host@@@Z 00000001801d04bc f   libucrt:mbrtowc.obj
 0001:001cf500       ?__mbsrtowcs_utf8@__crt_mbstring@@YA_KPEA_WPEAPEBD_KPEAU_Mbstatet@@AEAV__crt_cached_ptd_host@@@Z 00000001801d0500 f   libucrt:mbrtowc.obj
 0001:001cf818       __acrt_stdio_flush_and_write_narrow_nolock 00000001801d0818 f   libucrt:_flsbuf.obj
 0001:001cf8dc       _isatty                    00000001801d08dc f   libucrt:isatty.obj
 0001:001cf93c       __acrt_locale_free_monetary 00000001801d093c f   libucrt:initmon.obj
 0001:001cfa48       __acrt_locale_free_numeric 00000001801d0a48 f   libucrt:initnum.obj
 0001:001cfae8       __acrt_locale_free_time    00000001801d0ae8 f   libucrt:inittime.obj
 0001:001cfbf0       __acrt_GetStringTypeA      00000001801d0bf0 f   libucrt:getstringtypea.obj
 0001:001cfd8c       _raise_exc                 00000001801d0d8c f   libucrt:fpexcept.obj
 0001:001cfdb4       _raise_exc_ex              00000001801d0db4 f   libucrt:fpexcept.obj
 0001:001d00c4       _raise_excf                00000001801d10c4 f   libucrt:fpexcept.obj
 0001:001d00f0       _set_errno_from_matherr    00000001801d10f0 f   libucrt:fpexcept.obj
 0001:001d0120       qsort                      00000001801d1120 f   libucrt:qsort.obj
 0001:001d0530       strncpy_s                  00000001801d1530 f   libucrt:strncpy_s.obj
 0001:001d06c0       strpbrk                    00000001801d16c0 f   libucrt:strpbrk.obj
 0001:001d0a88       _mbsdec                    00000001801d1a88 f   libucrt:mbsdec.obj
 0001:001d0a90       _mbsdec_l                  00000001801d1a90 f   libucrt:mbsdec.obj
 0001:001d0e44       __acrt_LCMapStringA        00000001801d1e44 f   libucrt:lcmapstringa.obj
 0001:001d0ef4       _msize_base                00000001801d1ef4 f   libucrt:msize.obj
 0001:001d0f30       _realloc_base              00000001801d1f30 f   libucrt:realloc_base.obj
 0001:001d0fac       __ascii_wcsnicmp           00000001801d1fac f   libucrt:wcsnicmp.obj
 0001:001d1070       _close_internal            00000001801d2070 f   libucrt:close.obj
 0001:001d1134       _close_nolock_internal     00000001801d2134 f   libucrt:close.obj
 0001:001d1204       ?__acrt_stdio_free_stream@@YAXV__crt_stdio_stream@@@Z 00000001801d2204 f   libucrt:stream.obj
 0001:001d13f4       _lseeki64                  00000001801d23f4 f   libucrt:lseek.obj
 0001:001d1490       _lseeki64_nolock_internal  00000001801d2490 f   libucrt:lseek.obj
 0001:001d1498       _putwch_nolock             00000001801d2498 f   libucrt:putwch.obj
 0001:001d14d4       _query_app_type            00000001801d24d4 f   libucrt:report_runtime_error.obj
 0001:001d14dc       _controlfp_s               00000001801d24dc f   libucrt:contrlfp.obj
 0001:001d1540       fegetenv                   00000001801d2540 f   libucrt:fegetenv.obj
 0001:001d1560       fesetenv                   00000001801d2560 f   libucrt:fesetenv.obj
 0001:001d15ac       feholdexcept               00000001801d25ac f   libucrt:feholdexcept.obj
 0001:001d15fc       ceil                       00000001801d25fc f   libucrt:ceil.obj
 0001:001d16c0       log10                      00000001801d26c0 f   libucrt:log10.obj
 0001:001d1c6c       __acrt_fenv_get_common_round_control 00000001801d2c6c f   libucrt:_fenvutils.obj
 0001:001d1c78       __acrt_fenv_get_control    00000001801d2c78 f   libucrt:_fenvutils.obj
 0001:001d1d5c       __acrt_fenv_get_status     00000001801d2d5c f   libucrt:_fenvutils.obj
 0001:001d1db4       __acrt_fenv_set_control    00000001801d2db4 f   libucrt:_fenvutils.obj
 0001:001d1ef0       __acrt_fenv_set_status     00000001801d2ef0 f   libucrt:_fenvutils.obj
 0001:001d1f64       ?reset_and_return@__crt_mbstring@@YA_K_KPEAU_Mbstatet@@@Z 00000001801d2f64 f   libucrt:common_utf8.obj
 0001:001d1f6c       ?return_illegal_sequence@__crt_mbstring@@YA_KPEAU_Mbstatet@@AEAV__crt_cached_ptd_host@@@Z 00000001801d2f6c f   libucrt:common_utf8.obj
 0001:001d1f80       ?__mbrtoc32_utf8@__crt_mbstring@@YA_KPEA_UPEBD_KPEAU_Mbstatet@@AEAV__crt_cached_ptd_host@@@Z 00000001801d2f80 f   libucrt:mbrtoc32.obj
 0001:001d215c       __acrt_stdio_allocate_buffer_nolock 00000001801d315c f   libucrt:_getbuf.obj
 0001:001d21c8       __strncnt                  00000001801d31c8 f   libucrt:strncnt.obj
 0001:001d21e0       __dcrt_lowio_ensure_console_output_initialized 00000001801d31e0 f   libucrt:initcon.obj
 0001:001d2234       __dcrt_terminate_console_output 00000001801d3234 f   libucrt:initcon.obj
 0001:001d2250       __dcrt_write_console       00000001801d3250 f   libucrt:initcon.obj
 0001:001d2310       _clearfp                   00000001801d3310 f   libucrt:ieee.obj
 0001:001d2380       _control87                 00000001801d3380 f   libucrt:ieee.obj
 0001:001d2650       _log10_special             00000001801d3650 f   libucrt:log_special.obj
 0001:001d2710       _FindPESection             00000001801d3710 f   LIBCMT:pesect.obj
 0001:001d2760       _IsNonwritableInCurrentImage 00000001801d3760 f   LIBCMT:pesect.obj
 0001:001d27b0       _ValidateImageBase         00000001801d37b0 f   LIBCMT:pesect.obj
 0001:001d27dc       __GSHandlerCheck           00000001801d37dc f   LIBCMT:gshandler.obj
 0001:001d27fc       __GSHandlerCheckCommon     00000001801d37fc f   LIBCMT:gshandler.obj
 0001:001d2870       __security_check_cookie    00000001801d3870 f   LIBCMT:amdsecgs.obj
 0001:001d2890       __GSHandlerCheck_SEH       00000001801d3890 f   LIBCMT:gshandlerseh.obj
 0001:001d2918       __raise_securityfailure    00000001801d3918 f   LIBCMT:gs_report.obj
 0001:001d294c       __report_gsfailure         00000001801d394c f   LIBCMT:gs_report.obj
 0001:001d2a20       __report_rangecheckfailure 00000001801d3a20 f   LIBCMT:gs_report.obj
 0001:001d2a34       __report_securityfailure   00000001801d3a34 f   LIBCMT:gs_report.obj
 0001:001d2bb4       __GSHandlerCheck_EH        00000001801d3bb4 f   LIBCMT:gshandlereh.obj
 0001:001d2c34       __C_specific_handler_noexcept 00000001801d3c34 f   libvcruntime:chandler_noexcept.obj
 0001:001d2c80       strrchr                    00000001801d3c80 f   libvcruntime:strrchr.obj
 0001:001d2dd0       memcmp                     00000001801d3dd0 f   libvcruntime:memcmp.obj
 0001:001d2eb0       _guard_dispatch_icall_nop  00000001801d3eb0 f   LIBCMT:guard_dispatch.obj
 0001:001d2ed0       _guard_xfg_dispatch_icall_nop 00000001801d3ed0 f   LIBCMT:guard_xfg_dispatch.obj
 0002:00000000       __imp_GetLastError         00000001801d5000     kernel32:KERNEL32.dll
 0002:00000008       __imp_FreeLibrary          00000001801d5008     kernel32:KERNEL32.dll
 0002:00000010       __imp_GetProcAddress       00000001801d5010     kernel32:KERNEL32.dll
 0002:00000018       __imp_LoadLibraryA         00000001801d5018     kernel32:KERNEL32.dll
 0002:00000020       __imp_WriteConsoleW        00000001801d5020     kernel32:KERNEL32.dll
 0002:00000028       __imp_RaiseException       00000001801d5028     kernel32:KERNEL32.dll
 0002:00000030       __imp_GetSystemInfo        00000001801d5030     kernel32:KERNEL32.dll
 0002:00000038       __imp_VirtualProtect       00000001801d5038     kernel32:KERNEL32.dll
 0002:00000040       __imp_VirtualQuery         00000001801d5040     kernel32:KERNEL32.dll
 0002:00000048       __imp_GetModuleHandleW     00000001801d5048     kernel32:KERNEL32.dll
 0002:00000050       __imp_LoadLibraryExA       00000001801d5050     kernel32:KERNEL32.dll
 0002:00000058       __imp_InitializeSListHead  00000001801d5058     kernel32:KERNEL32.dll
 0002:00000060       __imp_RtlCaptureContext    00000001801d5060     kernel32:KERNEL32.dll
 0002:00000068       __imp_RtlLookupFunctionEntry 00000001801d5068     kernel32:KERNEL32.dll
 0002:00000070       __imp_RtlVirtualUnwind     00000001801d5070     kernel32:KERNEL32.dll
 0002:00000078       __imp_IsDebuggerPresent    00000001801d5078     kernel32:KERNEL32.dll
 0002:00000080       __imp_UnhandledExceptionFilter 00000001801d5080     kernel32:KERNEL32.dll
 0002:00000088       __imp_SetUnhandledExceptionFilter 00000001801d5088     kernel32:KERNEL32.dll
 0002:00000090       __imp_GetStartupInfoW      00000001801d5090     kernel32:KERNEL32.dll
 0002:00000098       __imp_IsProcessorFeaturePresent 00000001801d5098     kernel32:KERNEL32.dll
 0002:000000a0       __imp_QueryPerformanceCounter 00000001801d50a0     kernel32:KERNEL32.dll
 0002:000000a8       __imp_GetCurrentProcessId  00000001801d50a8     kernel32:KERNEL32.dll
 0002:000000b0       __imp_GetCurrentThreadId   00000001801d50b0     kernel32:KERNEL32.dll
 0002:000000b8       __imp_GetSystemTimeAsFileTime 00000001801d50b8     kernel32:KERNEL32.dll
 0002:000000c0       __imp_InterlockedPushEntrySList 00000001801d50c0     kernel32:KERNEL32.dll
 0002:000000c8       __imp_InterlockedFlushSList 00000001801d50c8     kernel32:KERNEL32.dll
 0002:000000d0       __imp_RtlUnwindEx          00000001801d50d0     kernel32:KERNEL32.dll
 0002:000000d8       __imp_SetLastError         00000001801d50d8     kernel32:KERNEL32.dll
 0002:000000e0       __imp_EnterCriticalSection 00000001801d50e0     kernel32:KERNEL32.dll
 0002:000000e8       __imp_LeaveCriticalSection 00000001801d50e8     kernel32:KERNEL32.dll
 0002:000000f0       __imp_DeleteCriticalSection 00000001801d50f0     kernel32:KERNEL32.dll
 0002:000000f8       __imp_InitializeCriticalSectionAndSpinCount 00000001801d50f8     kernel32:KERNEL32.dll
 0002:00000100       __imp_TlsAlloc             00000001801d5100     kernel32:KERNEL32.dll
 0002:00000108       __imp_TlsGetValue          00000001801d5108     kernel32:KERNEL32.dll
 0002:00000110       __imp_TlsSetValue          00000001801d5110     kernel32:KERNEL32.dll
 0002:00000118       __imp_TlsFree              00000001801d5118     kernel32:KERNEL32.dll
 0002:00000120       __imp_LoadLibraryExW       00000001801d5120     kernel32:KERNEL32.dll
 0002:00000128       __imp_EncodePointer        00000001801d5128     kernel32:KERNEL32.dll
 0002:00000130       __imp_RtlPcToFileHeader    00000001801d5130     kernel32:KERNEL32.dll
 0002:00000138       __imp_RtlUnwind            00000001801d5138     kernel32:KERNEL32.dll
 0002:00000140       __imp_GetCurrentProcess    00000001801d5140     kernel32:KERNEL32.dll
 0002:00000148       __imp_ExitProcess          00000001801d5148     kernel32:KERNEL32.dll
 0002:00000150       __imp_TerminateProcess     00000001801d5150     kernel32:KERNEL32.dll
 0002:00000158       __imp_GetModuleHandleExW   00000001801d5158     kernel32:KERNEL32.dll
 0002:00000160       __imp_GetModuleFileNameW   00000001801d5160     kernel32:KERNEL32.dll
 0002:00000168       __imp_HeapAlloc            00000001801d5168     kernel32:KERNEL32.dll
 0002:00000170       __imp_HeapFree             00000001801d5170     kernel32:KERNEL32.dll
 0002:00000178       __imp_FlsAlloc             00000001801d5178     kernel32:KERNEL32.dll
 0002:00000180       __imp_FlsGetValue          00000001801d5180     kernel32:KERNEL32.dll
 0002:00000188       __imp_FlsSetValue          00000001801d5188     kernel32:KERNEL32.dll
 0002:00000190       __imp_FlsFree              00000001801d5190     kernel32:KERNEL32.dll
 0002:00000198       __imp_LCMapStringW         00000001801d5198     kernel32:KERNEL32.dll
 0002:000001a0       __imp_GetStdHandle         00000001801d51a0     kernel32:KERNEL32.dll
 0002:000001a8       __imp_GetFileType          00000001801d51a8     kernel32:KERNEL32.dll
 0002:000001b0       __imp_FindClose            00000001801d51b0     kernel32:KERNEL32.dll
 0002:000001b8       __imp_FindFirstFileExW     00000001801d51b8     kernel32:KERNEL32.dll
 0002:000001c0       __imp_FindNextFileW        00000001801d51c0     kernel32:KERNEL32.dll
 0002:000001c8       __imp_IsValidCodePage      00000001801d51c8     kernel32:KERNEL32.dll
 0002:000001d0       __imp_GetACP               00000001801d51d0     kernel32:KERNEL32.dll
 0002:000001d8       __imp_GetOEMCP             00000001801d51d8     kernel32:KERNEL32.dll
 0002:000001e0       __imp_GetCPInfo            00000001801d51e0     kernel32:KERNEL32.dll
 0002:000001e8       __imp_GetCommandLineA      00000001801d51e8     kernel32:KERNEL32.dll
 0002:000001f0       __imp_GetCommandLineW      00000001801d51f0     kernel32:KERNEL32.dll
 0002:000001f8       __imp_MultiByteToWideChar  00000001801d51f8     kernel32:KERNEL32.dll
 0002:00000200       __imp_WideCharToMultiByte  00000001801d5200     kernel32:KERNEL32.dll
 0002:00000208       __imp_GetEnvironmentStringsW 00000001801d5208     kernel32:KERNEL32.dll
 0002:00000210       __imp_FreeEnvironmentStringsW 00000001801d5210     kernel32:KERNEL32.dll
 0002:00000218       __imp_GetProcessHeap       00000001801d5218     kernel32:KERNEL32.dll
 0002:00000220       __imp_FlushFileBuffers     00000001801d5220     kernel32:KERNEL32.dll
 0002:00000228       __imp_WriteFile            00000001801d5228     kernel32:KERNEL32.dll
 0002:00000230       __imp_GetConsoleOutputCP   00000001801d5230     kernel32:KERNEL32.dll
 0002:00000238       __imp_GetConsoleMode       00000001801d5238     kernel32:KERNEL32.dll
 0002:00000240       __imp_SetStdHandle         00000001801d5240     kernel32:KERNEL32.dll
 0002:00000248       __imp_GetFileSizeEx        00000001801d5248     kernel32:KERNEL32.dll
 0002:00000250       __imp_SetFilePointerEx     00000001801d5250     kernel32:KERNEL32.dll
 0002:00000258       __imp_GetStringTypeW       00000001801d5258     kernel32:KERNEL32.dll
 0002:00000260       __imp_HeapSize             00000001801d5260     kernel32:KERNEL32.dll
 0002:00000268       __imp_HeapReAlloc          00000001801d5268     kernel32:KERNEL32.dll
 0002:00000270       __imp_CloseHandle          00000001801d5270     kernel32:KERNEL32.dll
 0002:00000278       __imp_CreateFileW          00000001801d5278     kernel32:KERNEL32.dll
 0002:00000280       \177KERNEL32_NULL_THUNK_DATA 00000001801d5280     kernel32:KERNEL32.dll
 0002:00000288       __guard_check_icall_fptr   00000001801d5288     LIBCMT:guard_support.obj
 0002:00000290       __guard_xfg_check_icall_fptr 00000001801d5290     LIBCMT:guard_support.obj
 0002:00000298       __guard_dispatch_icall_fptr 00000001801d5298     LIBCMT:guard_support.obj
 0002:000002a0       __guard_xfg_dispatch_icall_fptr 00000001801d52a0     LIBCMT:guard_support.obj
 0002:000002a8       __guard_xfg_table_dispatch_icall_fptr 00000001801d52a8     LIBCMT:guard_support.obj
 0002:000002b0       __castguard_check_failure_os_handled_fptr 00000001801d52b0     LIBCMT:guard_support.obj
 0002:000002b8       __guard_memcpy_fptr        00000001801d52b8     libvcruntime:softmemtag.obj
 0002:000002c0       __xc_a                     00000001801d52c0     LIBCMT:initializers.obj
 0002:00001b78       __xc_z                     00000001801d6b78     LIBCMT:initializers.obj
 0002:00001b80       __xi_a                     00000001801d6b80     LIBCMT:initializers.obj
 0002:00001b88       __acrt_stdio_initializer   00000001801d6b88     libucrt:stdio_initializer.obj
 0002:00001b90       __acrt_tran_fma3_initializer 00000001801d6b90     libucrt:fma3_initializer.obj
 0002:00001b98       __acrt_multibyte_initializer 00000001801d6b98     libucrt:multibyte_initializer.obj
 0002:00001ba0       __xi_z                     00000001801d6ba0     LIBCMT:initializers.obj
 0002:00001ba8       __xp_a                     00000001801d6ba8     LIBCMT:initializers.obj
 0002:00001bb0       __acrt_locale_terminator   00000001801d6bb0     libucrt:locale_initializer.obj
 0002:00001bb8       __dcrt_console_output_terminator 00000001801d6bb8     libucrt:console_output_initializer.obj
 0002:00001bc0       __acrt_stdio_terminator    00000001801d6bc0     libucrt:stdio_initializer.obj
 0002:00001bc8       __xp_z                     00000001801d6bc8     LIBCMT:initializers.obj
 0002:00001bd0       __xt_a                     00000001801d6bd0     LIBCMT:initializers.obj
 0002:00001bd8       __xt_z                     00000001801d6bd8     LIBCMT:initializers.obj
 0002:00001be0       ??_C@_08MDGMHCHN@PtrTable@ 00000001801d6be0     CmPtrTable.obj
 0002:00001bec       ??_C@_04GKJNKENE@void@     00000001801d6bec     CmPtrTable.obj
 0002:00001bf8       ??_C@_07DFEBJDHE@mSingle@  00000001801d6bf8     CmPtrTable.obj
 0002:00001c00       ??_C@_05NLHHBMOH@PxU16@    00000001801d6c00     CmPtrTable.obj
 0002:00001c08       ??_C@_06EPKHJPIM@mCount@   00000001801d6c08     CmPtrTable.obj
 0002:00001c10       ??_C@_04DDKJGDCM@bool@     00000001801d6c10     CmPtrTable.obj
 0002:00001c18       ??_C@_0M@DAGELID@mOwnsMemory@ 00000001801d6c18     CmPtrTable.obj
 0002:00001c28       ??_C@_0M@MMPOMMLP@mBufferUsed@ 00000001801d6c28     CmPtrTable.obj
 0002:00001c34       ??_C@_05LMJPANIN@PxU32@    00000001801d6c34     CmPtrTable.obj
 0002:00001c40       ??_C@_09PMLNMEMN@mFreeSlot@ 00000001801d6c40     CmPtrTable.obj
 0002:00001c50       ??_7PxCollection@physx@@6B@ 00000001801d6c50     CmCollection.obj
 0002:00001cd0       ??_C@_00CNPNBAHC@@         00000001801d6cd0     CmCollection.obj
 0002:00001cd8       ??_7Collection@Cm@physx@@6B@ 00000001801d6cd8     CmCollection.obj
 0002:00001d60       ??_C@_0GE@GBACBMOC@PxCollection?3?3add?5called?5for?5an@ 00000001801d6d60     CmCollection.obj
 0002:00001dd0       ??_C@_0FK@EFJJJPLN@D?3?2Code?2OldD3D?2DX12BasicPlaygro@ 00000001801d6dd0     CmCollection.obj
 0002:00001e30       ??_C@_0EM@OMMGDOMK@PxCollection?3?3add?5called?5with?5a@ 00000001801d6e30     CmCollection.obj
 0002:00001e80       ??_C@_0FM@KPBLGAPP@D?3?2Code?2OldD3D?2DX12BasicPlaygro@ 00000001801d6e80     CmCollection.obj
 0002:00001ee0       ??_C@_0BM@OIFKLHDN@?$DMallocation?5names?5disabled?$DO@ 00000001801d6ee0     CmCollection.obj
 0002:00001f00       ??_7RadixSort@Cm@physx@@6B@ 00000001801d6f00     CmRadixSort.obj
 0002:00001f08       ??_7RadixSortBuffered@Cm@physx@@6B@ 00000001801d6f08     CmRadixSort.obj
 0002:00001f10       ??_C@_0FJ@JOFDKKBM@D?3?2Code?2OldD3D?2DX12BasicPlaygro@ 00000001801d6f10     CmRadixSort.obj
 0002:00001f70       __xmm@00000001000000010000000100000001 00000001801d6f70     CmRadixSort.obj
 0002:00001f80       __xmm@00000003000000020000000100000000 00000001801d6f80     CmRadixSort.obj
 0002:00001f90       __real@343bbd2e            00000001801d6f90     CmVisualization.obj
 0002:00001f94       __real@3d00adfd            00000001801d6f94     CmVisualization.obj
 0002:00001f98       __real@3d4ccccd            00000001801d6f98     CmVisualization.obj
 0002:00001f9c       __real@3d80adfd            00000001801d6f9c     CmVisualization.obj
 0002:00001fa0       __real@3e19999a            00000001801d6fa0     CmVisualization.obj
 0002:00001fa4       __real@3e490fdb            00000001801d6fa4     CmVisualization.obj
 0002:00001fa8       __real@3e800000            00000001801d6fa8     CmVisualization.obj
 0002:00001fac       __real@3e99999a            00000001801d6fac     CmVisualization.obj
 0002:00001fb0       __real@3ea0d97c            00000001801d6fb0     CmVisualization.obj
 0002:00001fb4       __real@3eddb3d7            00000001801d6fb4     CmVisualization.obj
 0002:00001fb8       __real@3f3504f3            00000001801d6fb8     CmVisualization.obj
 0002:00001fbc       __real@3f800000            00000001801d6fbc     CmVisualization.obj
 0002:00001fc0       __real@3fc00000            00000001801d6fc0     CmVisualization.obj
 0002:00001fc4       __real@3fddb3d7            00000001801d6fc4     CmVisualization.obj
 0002:00001fc8       __real@40100000            00000001801d6fc8     CmVisualization.obj
 0002:00001fcc       __real@40490fdb            00000001801d6fcc     CmVisualization.obj
 0002:00001fd0       __real@40c90fdb            00000001801d6fd0     CmVisualization.obj
 0002:00001fd4       __real@b3bbbd2e            00000001801d6fd4     CmVisualization.obj
 0002:00001fd8       __real@bfddb3d7            00000001801d6fd8     CmVisualization.obj
 0002:00001fdc       __real@c0000000            00000001801d6fdc     CmVisualization.obj
 0002:00001fe0       __xmm@3f800000000000000000000000000000 00000001801d6fe0     CmVisualization.obj
 0002:00001ff0       __xmm@7fffffff7fffffff7fffffff7fffffff 00000001801d6ff0     CmVisualization.obj
 0002:00002000       __xmm@80000000800000008000000080000000 00000001801d7000     CmVisualization.obj
 0002:00002010       ??_C@_0BB@CPDDPFKD@GetUpdatedModule@ 00000001801d7010     CmWindowsModuleUpdateLoader.obj
 0002:00002030       ??_C@_0HB@HEACAOAJ@D?3?2Code?2OldD3D?2DX12BasicPlaygro@ 00000001801d7030     CmWindowsModuleUpdateLoader.obj
 0002:000020a8       ??_C@_0CP@PGOIOJOO@?$CFs?3?$CFi?3?5loadLibrary?5error?5when?5l@ 00000001801d70a8     CmWindowsModuleUpdateLoader.obj
 0002:000020d8       ??_C@_0BA@EGLNOO@PhysXFoundation@ 00000001801d70d8     CmWindowsDelayLoadHook.obj
 0002:000020e8       ??_C@_0M@ILKNCJKN@PhysXCommon@ 00000001801d70e8     CmWindowsDelayLoadHook.obj
 0002:00002120       __real@3f000000            00000001801d7120     GuBox.obj
 0002:00002124       __real@3f7ff972            00000001801d7124     GuBox.obj
 0002:00002130       __xmm@000000003a83126f3a83126f3a83126f 00000001801d7130     GuBox.obj
 0002:00002140       __xmm@00000000ba83126fba83126fba83126f 00000001801d7140     GuBox.obj
 0002:00002150       __xmm@3a83126f3a83126f3a83126f3a83126f 00000001801d7150     GuBox.obj
 0002:00002160       __xmm@ba83126fba83126fba83126fba83126f 00000001801d7160     GuBox.obj
 0002:00002190       ??_7EntityReport@Gu@physx@@6B@ 00000001801d7190     GuSweepsHF.obj
 0002:00002190       ??_7OverlapCallback@PxBVH@physx@@6B@ 00000001801d7190     GuQuerySystem.obj
 0002:00002190       ??_7OverlapReport@Gu@physx@@6B@ 00000001801d7190     GuCCTSweepTests.obj
 0002:00002190       ??_7RaycastCallback@PxBVH@physx@@6B@ 00000001801d7190     GuQuerySystem.obj
 0002:00002190       ??_7RemapCallback@RTreeCooker@physx@@6B@ 00000001801d7190     GuCookingTriangleMesh.obj
 0002:000021b0       __real@3b03126f            00000001801d71b0     GuCCTSweepTests.obj
 0002:000021b4       __real@40000000            00000001801d71b4     GuCCTSweepTests.obj
 0002:000021f0       ??_7SupportLocal@Gu@physx@@6B@ 00000001801d71f0     GuGeometryQuery.obj
 0002:00002210       ??_7?$SupportLocalImpl@VBoxV@Gu@physx@@@Gu@physx@@6B@ 00000001801d7210     GuGeometryQuery.obj
 0002:00002230       ??_7?$SupportLocalImpl@VConvexHullV@Gu@physx@@@Gu@physx@@6B@ 00000001801d7230     GuGeometryQuery.obj
 0002:00002250       ??_C@_0FE@FLIIIPNL@D?3?2Code?2OldD3D?2DX12BasicPlaygro@ 00000001801d7250     GuGeometryQuery.obj
 0002:000022a4       __real@30d1b7e9            00000001801d72a4     GuGeometryQuery.obj
 0002:000022a8       __real@322bcc77            00000001801d72a8     GuGeometryQuery.obj
 0002:000022ac       __real@358637bd            00000001801d72ac     GuGeometryQuery.obj
 0002:000022b0       __real@3a83126f            00000001801d72b0     GuGeometryQuery.obj
 0002:000022b4       __real@3ccccccd            00000001801d72b4     GuGeometryQuery.obj
 0002:000022b8       __real@3dcccccd            00000001801d72b8     GuGeometryQuery.obj
 0002:000022bc       __real@49742400            00000001801d72bc     GuGeometryQuery.obj
 0002:000022c0       __real@7f7fffff            00000001801d72c0     GuGeometryQuery.obj
 0002:000022c4       __real@bf800000            00000001801d72c4     GuGeometryQuery.obj
 0002:000022d0       __xmm@0000000000000000000000003f800000 00000001801d72d0     GuGeometryQuery.obj
 0002:000022e0       __xmm@00000000000000003f80000000000000 00000001801d72e0     GuGeometryQuery.obj
 0002:000022f0       __xmm@00000000000000003f8000003f800000 00000001801d72f0     GuGeometryQuery.obj
 0002:00002300       __xmm@000000003f8000000000000000000000 00000001801d7300     GuGeometryQuery.obj
 0002:00002310       __xmm@000000003f8000003f8000003f800000 00000001801d7310     GuGeometryQuery.obj
 0002:00002320       __xmm@00000000ffffffffffffffffffffffff 00000001801d7320     GuGeometryQuery.obj
 0002:00002330       __xmm@3d4ccccd3d4ccccd3d4ccccd3d4ccccd 00000001801d7330     GuGeometryQuery.obj
 0002:00002340       __xmm@3e19999a3e19999a3e19999a3e19999a 00000001801d7340     GuGeometryQuery.obj
 0002:00002350       __xmm@3e4ccccd3e4ccccd3e4ccccd3e4ccccd 00000001801d7350     GuGeometryQuery.obj
 0002:00002360       __xmm@3e8000003e8000003e8000003e800000 00000001801d7360     GuGeometryQuery.obj
 0002:00002370       __xmm@3f7ef9db3f7ef9db3f7ef9db3f7ef9db 00000001801d7370     GuGeometryQuery.obj
 0002:00002380       __xmm@3f7ff2e53f7ff2e53f7ff2e53f7ff2e5 00000001801d7380     GuGeometryQuery.obj
 0002:00002390       __xmm@7f7fffff7f7fffff7f7fffff7f7fffff 00000001801d7390     GuGeometryQuery.obj
 0002:000023a0       __xmm@bf000000bf000000bf000000bf000000 00000001801d73a0     GuGeometryQuery.obj
 0002:000023d0       ??_C@_0FO@FMOADBOD@D?3?2Code?2OldD3D?2DX12BasicPlaygro@ 00000001801d73d0     GuMeshFactory.obj
 0002:00002440       ??_C@_0EM@BDFDGBD@Inserting?5object?5failed?3?5Object@ 00000001801d7440     GuMeshFactory.obj
 0002:000024b0       ??_7CallbackRaycast@RTree@Gu@physx@@6B@ 00000001801d74b0     GuMidphaseRTree.obj
 0002:000024b0       ??_7CallbackRefit@RTree@Gu@physx@@6B@ 00000001801d74b0     GuTriangleMeshRTree.obj
 0002:000024b0       ??_7PxInsertionCallback@physx@@6B@ 00000001801d74b0     GuMeshFactory.obj
 0002:000024c0       ??_7PxCollisionMeshMappingData@physx@@6B@ 00000001801d74c0     GuMeshFactory.obj
 0002:000024d0       ??_7MeshFactory@Gu@physx@@6B@ 00000001801d74d0     GuMeshFactory.obj
 0002:000024d8       ??_7MeshDataBase@Gu@physx@@6B@ 00000001801d74d8     GuMeshFactory.obj
 0002:000024e0       ??_C@_0FO@LCDGDPGE@D?3?2Code?2OldD3D?2DX12BasicPlaygro@ 00000001801d74e0     GuMeshFactory.obj
 0002:00002540       ??_7TriangleMeshData@Gu@physx@@6B@ 00000001801d7540     GuMeshFactory.obj
 0002:00002548       ??_7RTreeTriangleData@Gu@physx@@6B@ 00000001801d7548     GuMeshFactory.obj
 0002:00002550       ??_7BV4TriangleData@Gu@physx@@6B@ 00000001801d7550     GuMeshFactory.obj
 0002:00002558       ??_7SoftBodyCollisionData@Gu@physx@@6B@ 00000001801d7558     GuMeshFactory.obj
 0002:00002560       ??_7CollisionMeshMappingData@Gu@physx@@6B@ 00000001801d7560     GuMeshFactory.obj
 0002:00002570       ??_7SoftBodySimulationData@Gu@physx@@6B@ 00000001801d7570     GuMeshFactory.obj
 0002:00002580       ??_C@_0GP@NHELMDAL@Loading?5triangle?5mesh?5failed?3?5D@ 00000001801d7580     GuMeshFactory.obj
 0002:000025f0       ??_C@_0BP@CDOKDACA@RTree?5binary?5image?5load?5error?4@ 00000001801d75f0     GuMeshFactory.obj
 0002:00002610       ??_C@_0BN@MJPNIELF@BV4?5binary?5image?5load?5error?4@ 00000001801d7610     GuMeshFactory.obj
 0002:00002630       ??_C@_0BO@JDPABAOF@BV32?5binary?5image?5load?5error?4@ 00000001801d7630     GuMeshFactory.obj
 0002:00002650       ??_C@_0FE@FCOFIGKC@D?3?2Code?2OldD3D?2DX12BasicPlaygro@ 00000001801d7650     GuMeshFactory.obj
 0002:000026b0       __xmm@fe7fffff7e7fffff7e7fffff7e7fffff 00000001801d76b0     GuMeshFactory.obj
 0002:000026e0       ??_C@_06EJKDJEDO@PxBase@   00000001801d76e0     GuMetaData.obj
 0002:000026e8       ??_C@_07GFCEJNGM@Valency@  00000001801d76e8     GuMetaData.obj
 0002:000026f0       ??_C@_07NHGKEEIN@mOffset@  00000001801d76f0     GuMetaData.obj
 0002:000026f8       ??_C@_0BB@BAGHBMNJ@BigConvexRawData@ 00000001801d76f8     GuMetaData.obj
 0002:00002710       ??_C@_07PBDEJAAC@mSubdiv@  00000001801d7710     GuMetaData.obj
 0002:00002718       ??_C@_0L@HNPACPGH@mNbSamples@ 00000001801d7718     GuMetaData.obj
 0002:00002724       ??_C@_04NCKNBPPK@PxU8@     00000001801d7724     GuMetaData.obj
 0002:00002730       ??_C@_08DEPEKJNI@mSamples@ 00000001801d7730     GuMetaData.obj
 0002:00002740       ??_C@_08IJDNJBMI@mNbVerts@ 00000001801d7740     GuMetaData.obj
 0002:00002750       ??_C@_0M@MMKMIJAF@mNbAdjVerts@ 00000001801d7750     GuMetaData.obj
 0002:00002760       ??_C@_0L@EOKMNILC@mValencies@ 00000001801d7760     GuMetaData.obj
 0002:00002770       ??_C@_0P@DLGEAMHJ@mAdjacentVerts@ 00000001801d7770     GuMetaData.obj
 0002:00002780       ??_C@_03NGLDENDA@SDF@      00000001801d7780     GuMetaData.obj
 0002:00002784       ??_C@_06KDGGGLIJ@PxVec3@   00000001801d7784     GuMetaData.obj
 0002:0000278c       ??_C@_06GIEBFILM@PxReal@   00000001801d778c     GuMetaData.obj
 0002:00002798       ??_C@_0O@PFOPBKAM@BigConvexData@ 00000001801d7798     GuMetaData.obj
 0002:000027a8       ??_C@_05PLKALGFN@mData@    00000001801d77a8     GuMetaData.obj
 0002:000027b0       ??_C@_08PEMCLHEM@mVBuffer@ 00000001801d77b0     GuMetaData.obj
 0002:000027c0       ??_C@_09FBMAGD@Alignment@  00000001801d77c0     GuMetaData.obj
 0002:000027d0       ??_C@_0BE@KFHIBEEA@InternalObjectsData@ 00000001801d77d0     GuMetaData.obj
 0002:000027e8       ??_C@_07NKGFFIBH@mRadius@  00000001801d77e8     GuMetaData.obj
 0002:000027f0       ??_C@_08EHFCACAE@mExtents@ 00000001801d77f0     GuMetaData.obj
 0002:00002800       ??_C@_0BA@LFMGGCBK@HullPolygonData@ 00000001801d7800     GuMetaData.obj
 0002:00002810       ??_C@_06BOHHGLB@mPlane@    00000001801d7810     GuMetaData.obj
 0002:00002818       ??_C@_06EHMLHGLN@mVRef8@   00000001801d7818     GuMetaData.obj
 0002:00002820       ??_C@_09BAHHHINI@mMinIndex@ 00000001801d7820     GuMetaData.obj
 0002:00002830       ??_C@_0P@GBLBPIPB@ConvexHullData@ 00000001801d7830     GuMetaData.obj
 0002:00002840       ??_C@_09JDCJAPKD@PxBounds3@ 00000001801d7840     GuMetaData.obj
 0002:0000284c       ??_C@_05NDNHIFA@mAABB@     00000001801d784c     GuMetaData.obj
 0002:00002858       ??_C@_0O@LNOGEMJI@mCenterOfMass@ 00000001801d7858     GuMetaData.obj
 0002:00002868       ??_C@_09CNMCBBKH@mPolygons@ 00000001801d7868     GuMetaData.obj
 0002:00002878       ??_C@_0BC@KKPDCFJC@mBigConvexRawData@ 00000001801d7878     GuMetaData.obj
 0002:00002890       ??_C@_08MPNAAJLD@mSdfData@ 00000001801d7890     GuMetaData.obj
 0002:000028a0       ??_C@_08ELDMKGKH@mNbEdges@ 00000001801d78a0     GuMetaData.obj
 0002:000028b0       ??_C@_0BA@CGLOHBAC@mNbHullVertices@ 00000001801d78b0     GuMetaData.obj
 0002:000028c0       ??_C@_0M@HGFFLLDM@mNbPolygons@ 00000001801d78c0     GuMetaData.obj
 0002:000028d0       ??_C@_09BHJEMDGO@mInternal@ 00000001801d78d0     GuMetaData.obj
 0002:000028e0       ??_C@_0L@GMFHOMKA@ConvexMesh@ 00000001801d78e0     GuMetaData.obj
 0002:000028f0       ??_C@_09ILEBDLJH@mHullData@ 00000001801d78f0     GuMetaData.obj
 0002:000028fc       ??_C@_03DKDIKGNC@mNb@      00000001801d78fc     GuMetaData.obj
 0002:00002900       ??_C@_0P@ENLHFHMD@mBigConvexData@ 00000001801d7900     GuMetaData.obj
 0002:00002910       ??_C@_05ILALLCHK@mMass@    00000001801d7910     GuMetaData.obj
 0002:00002918       ??_C@_07DBPDADGB@PxMat33@  00000001801d7918     GuMetaData.obj
 0002:00002920       ??_C@_08FNBHNDBI@mInertia@ 00000001801d7920     GuMetaData.obj
 0002:00002930       ??_C@_0O@FCKNKLMJ@GuMeshFactory@ 00000001801d7930     GuMetaData.obj
 0002:00002940       ??_C@_0N@EGBCLMAK@mMeshFactory@ 00000001801d7940     GuMetaData.obj
 0002:00002950       ??_C@_0BE@CJJAMAMK@PxHeightFieldSample@ 00000001801d7950     GuMetaData.obj
 0002:00002964       ??_C@_05MBLIPEMA@PxI16@    00000001801d7964     GuMetaData.obj
 0002:0000296c       ??_C@_06LNLHEAAG@height@   00000001801d796c     GuMetaData.obj
 0002:00002978       ??_C@_0N@HHDGHJN@PxBitAndByte@ 00000001801d7978     GuMetaData.obj
 0002:00002988       ??_C@_0P@MBBMLBO@materialIndex0@ 00000001801d7988     GuMetaData.obj
 0002:00002998       ??_C@_0P@BFAKPKFP@materialIndex1@ 00000001801d7998     GuMetaData.obj
 0002:000029a8       ??_C@_0BD@EBLPJEOE@PxHeightFieldFlags@ 00000001801d79a8     GuMetaData.obj
 0002:000029c0       ??_C@_0BK@FNNCFFCN@PxHeightFieldFormat?3?3Enum@ 00000001801d79c0     GuMetaData.obj
 0002:000029e0       ??_C@_0BA@CLNFMAAA@HeightFieldData@ 00000001801d79e0     GuMetaData.obj
 0002:000029f0       ??_C@_04IMCGAIPI@rows@     00000001801d79f0     GuMetaData.obj
 0002:000029f8       ??_C@_07HIFEPIJN@columns@  00000001801d79f8     GuMetaData.obj
 0002:00002a00       ??_C@_08MOAGOABI@rowLimit@ 00000001801d7a00     GuMetaData.obj
 0002:00002a10       ??_C@_08BAGEHOBO@colLimit@ 00000001801d7a10     GuMetaData.obj
 0002:00002a20       ??_C@_09LKDBLADF@nbColumns@ 00000001801d7a20     GuMetaData.obj
 0002:00002a30       ??_C@_07ODIFGGLK@samples@  00000001801d7a30     GuMetaData.obj
 0002:00002a38       ??_C@_0BE@POHEGOJG@convexEdgeThreshold@ 00000001801d7a38     GuMetaData.obj
 0002:00002a4c       ??_C@_05GECEPKB@flags@     00000001801d7a4c     GuMetaData.obj
 0002:00002a54       ??_C@_06DLEPGFEF@format@   00000001801d7a54     GuMetaData.obj
 0002:00002a60       ??_C@_0BF@MOGDNMPL@PxMaterialTableIndex@ 00000001801d7a60     GuMetaData.obj
 0002:00002a78       ??_C@_0M@JMJICJJO@HeightField@ 00000001801d7a78     GuMetaData.obj
 0002:00002a88       ??_C@_0O@ENGHMLJP@mSampleStride@ 00000001801d7a88     GuMetaData.obj
 0002:00002a98       ??_C@_0L@EBEEMFFB@mMinHeight@ 00000001801d7a98     GuMetaData.obj
 0002:00002aa8       ??_C@_0L@EAEIFPOF@mMaxHeight@ 00000001801d7aa8     GuMetaData.obj
 0002:00002ab8       ??_C@_0N@FEFJOKKE@mModifyCount@ 00000001801d7ab8     GuMetaData.obj
 0002:00002ac8       ??_C@_09PHDKHCK@RTreePage@ 00000001801d7ac8     GuMetaData.obj
 0002:00002ad4       ??_C@_04LLPOBGED@minx@     00000001801d7ad4     GuMetaData.obj
 0002:00002adc       ??_C@_04KCOFCHAC@miny@     00000001801d7adc     GuMetaData.obj
 0002:00002ae4       ??_C@_04IJMIHEMB@minz@     00000001801d7ae4     GuMetaData.obj
 0002:00002aec       ??_C@_04GGOBOBGO@maxx@     00000001801d7aec     GuMetaData.obj
 0002:00002af4       ??_C@_04HPPKNACP@maxy@     00000001801d7af4     GuMetaData.obj
 0002:00002afc       ??_C@_04FENHIDOM@maxz@     00000001801d7afc     GuMetaData.obj
 0002:00002b04       ??_C@_04HHDFEJON@ptrs@     00000001801d7b04     GuMetaData.obj
 0002:00002b0c       ??_C@_05FFEIGAJF@RTree@    00000001801d7b0c     GuMetaData.obj
 0002:00002b14       ??_C@_06OMCHPNEO@PxVec4@   00000001801d7b14     GuMetaData.obj
 0002:00002b20       ??_C@_0L@NBIFEFLN@mBoundsMin@ 00000001801d7b20     GuMetaData.obj
 0002:00002b30       ??_C@_0L@MDAOKBNC@mBoundsMax@ 00000001801d7b30     GuMetaData.obj
 0002:00002b40       ??_C@_0N@NJEHLCOF@mInvDiagonal@ 00000001801d7b40     GuMetaData.obj
 0002:00002b50       ??_C@_0BA@BEFIGPFG@mDiagonalScaler@ 00000001801d7b50     GuMetaData.obj
 0002:00002b60       ??_C@_09DICGGKGO@mPageSize@ 00000001801d7b60     GuMetaData.obj
 0002:00002b70       ??_C@_0O@BOFFCNOL@mNumRootPages@ 00000001801d7b70     GuMetaData.obj
 0002:00002b80       ??_C@_0L@JKLGBKAE@mNumLevels@ 00000001801d7b80     GuMetaData.obj
 0002:00002b90       ??_C@_0M@PHDOHJGK@mTotalNodes@ 00000001801d7b90     GuMetaData.obj
 0002:00002ba0       ??_C@_0M@GDGHALAO@mTotalPages@ 00000001801d7ba0     GuMetaData.obj
 0002:00002bac       ??_C@_06MHCBBJGP@mFlags@   00000001801d7bac     GuMetaData.obj
 0002:00002bb4       ??_C@_06MMNBLHOK@mPages@   00000001801d7bb4     GuMetaData.obj
 0002:00002bc0       ??_C@_0P@JNLGHJNH@SourceMeshBase@ 00000001801d7bc0     GuMetaData.obj
 0002:00002bd0       ??_C@_06JFCLJMNN@mVerts@   00000001801d7bd0     GuMetaData.obj
 0002:00002bd8       ??_C@_05GNIIDDHH@mType@    00000001801d7bd8     GuMetaData.obj
 0002:00002be0       ??_C@_06DHAAKLFK@mRemap@   00000001801d7be0     GuMetaData.obj
 0002:00002be8       ??_C@_0L@LEOGNOEC@SourceMesh@ 00000001801d7be8     GuMetaData.obj
 0002:00002bf8       ??_C@_07MPIKOOAP@mNbTris@  00000001801d7bf8     GuMetaData.obj
 0002:00002c00       ??_C@_0N@FBMOMEHF@mTriangles32@ 00000001801d7c00     GuMetaData.obj
 0002:00002c10       ??_C@_0N@DGCGNFBP@mTriangles16@ 00000001801d7c10     GuMetaData.obj
 0002:00002c20       ??_C@_0O@NLNHFNO@QuantizedAABB@ 00000001801d7c20     GuMetaData.obj
 0002:00002c30       ??_C@_0BC@OOGBEMHH@mData?$FL0?$FN?4mExtents@ 00000001801d7c30     GuMetaData.obj
 0002:00002c48       ??_C@_0BB@OCEDKIEF@mData?$FL0?$FN?4mCenter@ 00000001801d7c48     GuMetaData.obj
 0002:00002c60       ??_C@_0BC@HFMEAABI@mData?$FL1?$FN?4mExtents@ 00000001801d7c60     GuMetaData.obj
 0002:00002c78       ??_C@_0BB@CDMNHHIF@mData?$FL1?$FN?4mCenter@ 00000001801d7c78     GuMetaData.obj
 0002:00002c90       ??_C@_0BC@CFKNCOI@mData?$FL2?$FN?4mExtents@ 00000001801d7c90     GuMetaData.obj
 0002:00002ca8       ??_C@_0BB@LKCPBBIE@mData?$FL2?$FN?4mCenter@ 00000001801d7ca8     GuMetaData.obj
 0002:00002cc0       ??_C@_0O@MJJKKPFN@BVDataPackedQ@ 00000001801d7cc0     GuMetaData.obj
 0002:00002cd0       ??_C@_0O@JFMLAIPJ@CenterExtents@ 00000001801d7cd0     GuMetaData.obj
 0002:00002ce0       ??_C@_07GNKDIIKJ@mCenter@  00000001801d7ce0     GuMetaData.obj
 0002:00002ce8       ??_C@_0P@KBMJDPLO@BVDataPackedNQ@ 00000001801d7ce8     GuMetaData.obj
 0002:00002cf8       ??_C@_0M@PNCEBOG@LocalBounds@ 00000001801d7cf8     GuMetaData.obj
 0002:00002d04       ??_C@_05KNFBNCOH@float@    00000001801d7d04     GuMetaData.obj
 0002:00002d10       ??_C@_0BC@LADJKHPL@mExtentsMagnitude@ 00000001801d7d10     GuMetaData.obj
 0002:00002d28       ??_C@_07HELIOLAF@BV4Tree@  00000001801d7d28     GuMetaData.obj
 0002:00002d30       ??_C@_0P@EMMDNPMH@mMeshInterface@ 00000001801d7d30     GuMetaData.obj
 0002:00002d40       ??_C@_0N@DCKMHLCL@mLocalBounds@ 00000001801d7d40     GuMetaData.obj
 0002:00002d50       ??_C@_08EEJOMIJL@mNbNodes@ 00000001801d7d50     GuMetaData.obj
 0002:00002d5c       ??_C@_06FIIIMFIO@mNodes@   00000001801d7d5c     GuMetaData.obj
 0002:00002d68       ??_C@_09FGKNPI@mInitData@  00000001801d7d68     GuMetaData.obj
 0002:00002d78       ??_C@_0BC@CLDEHKCO@mCenterOrMinCoeff@ 00000001801d7d78     GuMetaData.obj
 0002:00002d90       ??_C@_0BD@LAOLBNJ@mExtentsOrMaxCoeff@ 00000001801d7d90     GuMetaData.obj
 0002:00002da8       ??_C@_0P@JEECKKBL@mUserAllocated@ 00000001801d7da8     GuMetaData.obj
 0002:00002db8       ??_C@_0L@GLIMNECG@mQuantized@ 00000001801d7db8     GuMetaData.obj
 0002:00002dc8       ??_C@_0L@CCOJDAID@mIsEdgeSet@ 00000001801d7dc8     GuMetaData.obj
 0002:00002dd8       ??_C@_08BNDBAGDH@mPadding@ 00000001801d7dd8     GuMetaData.obj
 0002:00002de8       ??_C@_0N@OJNNNLIB@TriangleMesh@ 00000001801d7de8     GuMetaData.obj
 0002:00002df8       ??_C@_0M@OGEDMEAL@mNbVertices@ 00000001801d7df8     GuMetaData.obj
 0002:00002e08       ??_C@_0N@MGGDNHNI@mNbTriangles@ 00000001801d7e08     GuMetaData.obj
 0002:00002e18       ??_C@_09LNNEGOJA@mVertices@ 00000001801d7e18     GuMetaData.obj
 0002:00002e28       ??_C@_0L@KBOFAKLO@mTriangles@ 00000001801d7e28     GuMetaData.obj
 0002:00002e38       ??_C@_0P@MHDFIHLD@mExtraTrigData@ 00000001801d7e38     GuMetaData.obj
 0002:00002e48       ??_C@_0N@MGIKKCI@mGeomEpsilon@ 00000001801d7e48     GuMetaData.obj
 0002:00002e58       ??_C@_0BB@IFLOOCNA@mMaterialIndices@ 00000001801d7e58     GuMetaData.obj
 0002:00002e70       ??_C@_0L@OPJMBFMI@mFaceRemap@ 00000001801d7e70     GuMetaData.obj
 0002:00002e80       ??_C@_0N@BIOECAPM@mAdjacencies@ 00000001801d7e80     GuMetaData.obj
 0002:00002e90       ??_C@_09CICJHLPI@mEdgeList@ 00000001801d7e90     GuMetaData.obj
 0002:00002ea0       ??_C@_0BD@IPKCNNIK@mLocalCenterOfMass@ 00000001801d7ea0     GuMetaData.obj
 0002:00002eb8       ??_C@_0BA@OCOIGPII@mGRB_triIndices@ 00000001801d7eb8     GuMetaData.obj
 0002:00002ec8       ??_C@_0BE@JPINNDAH@mGRB_triAdjacencies@ 00000001801d7ec8     GuMetaData.obj
 0002:00002ee0       ??_C@_0P@EDFJJHEF@mGRB_faceRemap@ 00000001801d7ee0     GuMetaData.obj
 0002:00002ef0       ??_C@_0BG@EEALPPCP@mGRB_faceRemapInverse@ 00000001801d7ef0     GuMetaData.obj
 0002:00002f08       ??_C@_0O@CKMBAIFN@mGRB_BV32Tree@ 00000001801d7f08     GuMetaData.obj
 0002:00002f18       ??_C@_0BE@MGIOIICI@mSdfData?4mMeshLower@ 00000001801d7f18     GuMetaData.obj
 0002:00002f30       ??_C@_0BC@NNEDELGI@mSdfData?4mSpacing@ 00000001801d7f30     GuMetaData.obj
 0002:00002f48       ??_C@_0BB@OHOFDAIL@mSdfData?4mDims?4x@ 00000001801d7f48     GuMetaData.obj
 0002:00002f60       ??_C@_0BB@POPOABMK@mSdfData?4mDims?4y@ 00000001801d7f60     GuMetaData.obj
 0002:00002f78       ??_C@_0BB@NFNDFCAJ@mSdfData?4mDims?4z@ 00000001801d7f78     GuMetaData.obj
 0002:00002f90       ??_C@_0BC@GMPBGGPI@mSdfData?4mNumSdfs@ 00000001801d7f90     GuMetaData.obj
 0002:00002fa8       ??_C@_0O@BCEBBLNE@mSdfData?4mSdf@ 00000001801d7fa8     GuMetaData.obj
 0002:00002fb8       ??_C@_0BG@HMHEFHIE@mSdfData?4mSubgridSize@ 00000001801d7fb8     GuMetaData.obj
 0002:00002fd0       ??_C@_0BI@OFJBKPGB@mSdfData?4mNumStartSlots@ 00000001801d7fd0     GuMetaData.obj
 0002:00002fe8       ??_C@_0BM@MGEPBEON@mSdfData?4mSubgridStartSlots@ 00000001801d7fe8     GuMetaData.obj
 0002:00003008       ??_C@_0BJ@PKKGJLNM@mSdfData?4mNumSubgridSdfs@ 00000001801d8008     GuMetaData.obj
 0002:00003028       ??_C@_0BF@HLMPGIBH@mSdfData?4mSubgridSdf@ 00000001801d8028     GuMetaData.obj
 0002:00003040       ??_C@_0CF@GMJNHGOK@mSdfData?4mSdfSubgrids3DTexBlock@ 00000001801d8040     GuMetaData.obj
 0002:00003068       ??_C@_0CF@HFIGEHKL@mSdfData?4mSdfSubgrids3DTexBlock@ 00000001801d8068     GuMetaData.obj
 0002:00003090       ??_C@_0CF@FOKLBEGI@mSdfData?4mSdfSubgrids3DTexBlock@ 00000001801d8090     GuMetaData.obj
 0002:000030b8       ??_C@_0BO@EIPCIOJH@mSdfData?4mSubgridsMinSdfValue@ 00000001801d80b8     GuMetaData.obj
 0002:000030d8       ??_C@_0BO@NIIBJOHN@mSdfData?4mSubgridsMaxSdfValue@ 00000001801d80d8     GuMetaData.obj
 0002:000030f8       ??_C@_0BO@GKGODKFG@mSdfData?4mBytesPerSparsePixel@ 00000001801d80f8     GuMetaData.obj
 0002:00003118       ??_C@_0BJ@LEBGJKBE@mAccumulatedTrianglesRef@ 00000001801d8118     GuMetaData.obj
 0002:00003138       ??_C@_0BF@OJMCNCDP@mTrianglesReferences@ 00000001801d8138     GuMetaData.obj
 0002:00003150       ??_C@_0BH@LDGPOFA@mNbTrianglesReferences@ 00000001801d8150     GuMetaData.obj
 0002:00003168       ??_C@_0BC@IFGECKF@RTreeTriangleMesh@ 00000001801d8168     GuMetaData.obj
 0002:0000317c       ??_C@_06JDIHDDGN@mRTree@   00000001801d817c     GuMetaData.obj
 0002:00003188       ??_C@_0BA@LNNFPOKA@BV4TriangleMesh@ 00000001801d8188     GuMetaData.obj
 0002:00003198       ??_C@_08FKLPEGDB@mBV4Tree@ 00000001801d8198     GuMetaData.obj
 0002:000031a8       ??_7?$SupportLocalImpl@VConvexHullNoScaleV@Gu@physx@@@Gu@physx@@6B@ 00000001801d81a8     GuMTD.obj
 0002:000031f0       ?absMask@?1??FAbs@aos@physx@@YA?AT__m128@@T4@@Z@4QBIB 00000001801d81f0     GuMTD.obj
 0002:00003200       ??_7GjkConvex@Gu@physx@@6B@ 00000001801d8200     GuMTD.obj
 0002:00003230       ??_7?$LocalConvex@VCapsuleV@Gu@physx@@@Gu@physx@@6B@ 00000001801d8230     GuMTD.obj
 0002:00003260       ??_7?$LocalConvex@VConvexHullV@Gu@physx@@@Gu@physx@@6B@ 00000001801d8260     GuMTD.obj
 0002:00003290       __real@2edbe6ff            00000001801d8290     GuMTD.obj
 0002:00003294       __real@34000000            00000001801d8294     GuMTD.obj
 0002:00003298       __real@ff7fffff            00000001801d8298     GuMTD.obj
 0002:000032a0       __xmm@34000000340000003400000034000000 00000001801d82a0     GuMTD.obj
 0002:000032b0       __xmm@358637bd358637bd358637bd358637bd 00000001801d82b0     GuMTD.obj
 0002:000032c0       __xmm@3dcccccd3dcccccd3dcccccd3dcccccd 00000001801d82c0     GuMTD.obj
 0002:000032d0       __xmm@3f7ff1413f7ff1413f7ff1413f7ff141 00000001801d82d0     GuMTD.obj
 0002:000032e0       __xmm@3f8000003f8000003f8000003f800000 00000001801d82e0     GuMTD.obj
 0002:000032f0       ??_7?$RelativeConvex@VBoxV@Gu@physx@@@Gu@physx@@6B@ 00000001801d82f0     GuOverlapTests.obj
 0002:00003340       ??_7?$RelativeConvex@VConvexHullV@Gu@physx@@@Gu@physx@@6B@ 00000001801d8340     GuOverlapTests.obj
 0002:00003370       ??_C@_0EC@MLIJOGHA@Height?5Field?5Overlap?5test?5calle@ 00000001801d8370     GuOverlapTests.obj
 0002:000033c0       ??_C@_0FP@EEEKIFEN@D?3?2Code?2OldD3D?2DX12BasicPlaygro@ 00000001801d83c0     GuOverlapTests.obj
 0002:00003420       ??_C@_0EC@GJLDADPE@Height?5Field?5Raycast?5test?5calle@ 00000001801d8420     GuRaycastTests.obj
 0002:00003470       ??_C@_0FP@LHIHPCOH@D?3?2Code?2OldD3D?2DX12BasicPlaygro@ 00000001801d8470     GuRaycastTests.obj
 0002:00003500       __real@1e3ce508            00000001801d8500     GuRaycastTests.obj
 0002:00003504       __real@28800000            00000001801d8504     GuRaycastTests.obj
 0002:00003508       __real@33d6bf95            00000001801d8508     GuRaycastTests.obj
 0002:0000350c       __real@3727c5ac            00000001801d850c     GuRaycastTests.obj
 0002:00003510       __real@38d1b717            00000001801d8510     GuRaycastTests.obj
 0002:00003514       __real@3f0147ae            00000001801d8514     GuRaycastTests.obj
 0002:00003518       __real@3f7ffffe            00000001801d8518     GuRaycastTests.obj
 0002:0000351c       __real@3f800347            00000001801d851c     GuRaycastTests.obj
 0002:00003520       __real@41200000            00000001801d8520     GuRaycastTests.obj
 0002:00003524       __real@80000000            00000001801d8524     GuRaycastTests.obj
 0002:00003528       __real@b3d6bf95            00000001801d8528     GuRaycastTests.obj
 0002:0000352c       __real@b8d1b717            00000001801d852c     GuRaycastTests.obj
 0002:00003530       __real@c1200000            00000001801d8530     GuRaycastTests.obj
 0002:00003570       ??_7?$MeshHitCallback@UPxGeomRaycastHit@physx@@@Gu@physx@@6B@ 00000001801d8570     GuSweepMTD.obj
 0002:00003580       ??_7MeshMTDGenerationCallback@@6B@ 00000001801d8580     GuSweepMTD.obj
 0002:00003590       ??_7MidPhaseQueryLocalReport@@6B@ 00000001801d8590     GuSweepMTD.obj
 0002:000035a0       __real@3f8147ae            00000001801d85a0     GuSweepMTD.obj
 0002:000035a4       __real@3f933333            00000001801d85a4     GuSweepMTD.obj
 0002:000035d0       __real@3c23d70a            00000001801d85d0     GuSweepSharedTests.obj
 0002:000035d4       __real@42c80000            00000001801d85d4     GuSweepSharedTests.obj
 0002:000035e0       __xmm@ffffffffffffffffffffffffffffffff 00000001801d85e0     GuSweepSharedTests.obj
 0002:00003610       ??_C@_0EA@GNDJNJGB@Height?5Field?5Sweep?5test?5called?5@ 00000001801d8610     GuSweepTests.obj
 0002:00003650       ??_C@_0FN@MDKMLMKG@D?3?2Code?2OldD3D?2DX12BasicPlaygro@ 00000001801d8650     GuSweepTests.obj
 0002:000036b0       ??_7?$LocalConvex@VBoxV@Gu@physx@@@Gu@physx@@6B@ 00000001801d86b0     GuSweepTests.obj
 0002:000036e0       ??_7?$LocalConvex@VTriangleV@Gu@physx@@@Gu@physx@@6B@ 00000001801d86e0     GuSweepTests.obj
 0002:00003710       __real@00000000            00000001801d8710     GuSweepTests.obj
 0002:00003720       __xmm@00000002000000020000000200000002 00000001801d8720     GuSweepTests.obj
 0002:00003730       __xmm@3eaaaa9f3eaaaa9f3eaaaa9f3eaaaa9f 00000001801d8730     GuSweepTests.obj
 0002:000037e8       ??_7PxRunnable@physx@@6B@  00000001801d87e8     GuSDF.obj
 0002:00003800       ??_C@_0FG@GOGFDDNE@D?3?2Code?2OldD3D?2DX12BasicPlaygro@ 00000001801d8800     GuSDF.obj
 0002:00003858       ??_7?$PxThreadT@V?$PxReflectionAllocator@VPxThreadImpl@physx@@@physx@@@physx@@6B@ 00000001801d8858     GuSDF.obj
 0002:00003868       ??_C@_06FJHNOCKE@thread@   00000001801d8868     GuSDF.obj
 0002:00003870       ??_C@_0FF@PMONJPNP@D?3?2Code?2OldD3D?2DX12BasicPlaygro@ 00000001801d8870     GuSDF.obj
 0002:000038c8       __real@37800080            00000001801d88c8     GuSDF.obj
 0002:000038cc       __real@3b808081            00000001801d88cc     GuSDF.obj
 0002:000038d0       __real@3eaaaaab            00000001801d88d0     GuSDF.obj
 0002:000038d4       __real@3f400000            00000001801d88d4     GuSDF.obj
 0002:000038d8       __real@3f7d70a4            00000001801d88d8     GuSDF.obj
 0002:000038dc       __real@4996b438            00000001801d88dc     GuSDF.obj
 0002:000038e0       __real@7e7fffff            00000001801d88e0     GuSDF.obj
 0002:000038e4       __real@bf000000            00000001801d88e4     GuSDF.obj
 0002:000038e8       __real@fe7fffff            00000001801d88e8     GuSDF.obj
 0002:000038f0       __xmm@00000001000000000000000000000000 00000001801d88f0     GuSDF.obj
 0002:00003900       __real@437f0000            00000001801d8900     GuCookingSDF.obj
 0002:00003904       __real@477fff00            00000001801d8904     GuCookingSDF.obj
 0002:00003930       ??_7?$RelativeConvex@UCustomConvexV@@@Gu@physx@@6B@ 00000001801d8930     GuGjkQuery.obj
 0002:00003960       ??_7?$LocalConvex@UCustomConvexV@@@Gu@physx@@6B@ 00000001801d8960     GuGjkQuery.obj
 0002:00003990       ??_7?$LocalConvex@UPointConvexV@@@Gu@physx@@6B@ 00000001801d8990     GuGjkQuery.obj
 0002:000039c0       __xmm@3f0000003f0000003f0000003f000000 00000001801d89c0     GuGjkQuery.obj
 0002:000039f0       __real@3da2f983            00000001801d89f0     GuWindingNumber.obj
 0002:000039f4       __real@3e22f983            00000001801d89f4     GuWindingNumber.obj
 0002:000039f8       __real@3f99999a            00000001801d89f8     GuWindingNumber.obj
 0002:00003a60       __real@3c343958            00000001801d8a60     GuCCDSweepConvexMesh.obj
 0002:00003a64       __real@3ca3d70a            00000001801d8a64     GuCCDSweepConvexMesh.obj
 0002:00003a68       __real@3f0ccccd            00000001801d8a68     GuCCDSweepConvexMesh.obj
 0002:00003a6c       __real@3f8ccccd            00000001801d8a6c     GuCCDSweepConvexMesh.obj
 0002:00003a70       __real@b58637bd            00000001801d8a70     GuCCDSweepConvexMesh.obj
 0002:00003aa0       ??_7?$RelativeConvex@VCapsuleV@Gu@physx@@@Gu@physx@@6B@ 00000001801d8aa0     GuCCDSweepPrimitives.obj
 0002:00003ad0       ??_7?$RelativeConvex@VTriangleV@Gu@physx@@@Gu@physx@@6B@ 00000001801d8ad0     GuCCDSweepPrimitives.obj
 0002:00003b00       __real@3ba3d70a            00000001801d8b00     GuCCDSweepPrimitives.obj
 0002:00003b04       __real@501502f9            00000001801d8b04     GuCCDSweepPrimitives.obj
 0002:00003b30       ??_C@_0GF@BGPEJDPJ@D?3?2Code?2OldD3D?2DX12BasicPlaygro@ 00000001801d8b30     GuAdjacencies.obj
 0002:00003b98       ??_C@_0DA@FMEHLBKI@Adjacencies?3?3UpdateLink?3?5invali@ 00000001801d8b98     GuAdjacencies.obj
 0002:00003bd0       ??_C@_0EA@CPHOACLK@Adjacencies?3?3CreateDatabase?3?5ca@ 00000001801d8bd0     GuAdjacencies.obj
 0002:00003c10       ??_C@_0GC@PAKPOPC@D?3?2Code?2OldD3D?2DX12BasicPlaygro@ 00000001801d8c10     GuEdgeList.obj
 0002:00003c78       ??_C@_0CO@GBNJFPN@EdgeList?3?3CreateFacesToEdges?3?5N@ 00000001801d8c78     GuEdgeList.obj
 0002:00003ca8       ??_C@_0CO@EHJBBMNK@EdgeList?3?3ComputeActiveEdges?3?5N@ 00000001801d8ca8     GuEdgeList.obj
 0002:00003cd8       ??_C@_0DI@GBHLFOFP@ActiveEdges?3?3ComputeConvexEdges@ 00000001801d8cd8     GuEdgeList.obj
 0002:00003d10       ??_C@_0DM@JOGBLHDI@ActiveEdges?3?3ComputeConvexEdges@ 00000001801d8d10     GuEdgeList.obj
 0002:00003d50       ??_C@_0ED@FEMJKPEL@ActiveEdges?3?3ComputeConvexEdges@ 00000001801d8d50     GuEdgeList.obj
 0002:00003da0       ??_C@_0EB@BFDPMFCD@ActiveEdges?3?3ComputeConvexEdges@ 00000001801d8da0     GuEdgeList.obj
 0002:00003de4       __real@bf7fbe77            00000001801d8de4     GuEdgeList.obj
 0002:00003de8       ??_7Quantizer@Gu@physx@@6B@ 00000001801d8de8     GuQuantizer.obj
 0002:00003e10       ??_7QuantizerImpl@@6B@     00000001801d8e10     GuQuantizer.obj
 0002:00003e40       ??_C@_0GD@JKFBOMCM@D?3?2Code?2OldD3D?2DX12BasicPlaygro@ 00000001801d8e40     GuQuantizer.obj
 0002:00003ea4       __real@3f0020c5            00000001801d8ea4     GuQuantizer.obj
 0002:00003ea8       __real@3f8020c5            00000001801d8ea8     GuQuantizer.obj
 0002:00003eb0       ??_C@_0GF@DDKPLOKN@D?3?2Code?2OldD3D?2DX12BasicPlaygro@ 00000001801d8eb0     GuMeshCleaner.obj
 0002:00003f20       ??_C@_0GH@OBLPDPCK@D?3?2Code?2OldD3D?2DX12BasicPlaygro@ 00000001801d8f20     GuVertexReducer.obj
 0002:00004080       __real@3f7fbe77            00000001801d9080     GuContactBoxBox.obj
 0002:000040b0       __real@3f7ff2e5            00000001801d90b0     GuContactCapsuleCapsule.obj
 0002:000040b4       __real@40800000            00000001801d90b4     GuContactCapsuleCapsule.obj
 0002:00004140       __real@358637be            00000001801d9140     GuContactCapsuleMesh.obj
 0002:00004144       __real@ba83126f            00000001801d9144     GuContactCapsuleMesh.obj
 0002:000041a0       ??_7ConvexMeshContactGenerationCallback@@6B@ 00000001801d91a0     GuContactConvexMesh.obj
 0002:00004220       __real@3ec90fdb            00000001801d9220     GuContactPolygonPolygon.obj
 0002:00004224       __real@3f490fdb            00000001801d9224     GuContactPolygonPolygon.obj
 0002:00004228       __real@3f96cbe4            00000001801d9228     GuContactPolygonPolygon.obj
 0002:0000422c       __real@3fc90fdb            00000001801d922c     GuContactPolygonPolygon.obj
 0002:00004230       __real@3ffb53d2            00000001801d9230     GuContactPolygonPolygon.obj
 0002:00004234       __real@4016cbe4            00000001801d9234     GuContactPolygonPolygon.obj
 0002:00004238       __real@402feddf            00000001801d9238     GuContactPolygonPolygon.obj
 0002:000042a0       ??_C@_0FD@PCFGMEGM@D?3?2Code?2OldD3D?2DX12BasicPlaygro@ 00000001801d92a0     GuContactSphereMesh.obj
 0002:00004300       ??_C@_0GH@LDDMFLAO@D?3?2Code?2OldD3D?2DX12BasicPlaygro@ 00000001801d9300     GuBigConvexData.obj
 0002:00004390       ??_C@_0N@CDGINLLF@PxConvexMesh@ 00000001801d9390     GuConvexMesh.obj
 0002:000043a0       ??_7PxBase@physx@@6B@      00000001801d93a0     GuConvexMesh.obj
 0002:000043c8       ??_C@_0N@OPPDBGAG@PxRefCounted@ 00000001801d93c8     GuConvexMesh.obj
 0002:000043d8       ??_7ConvexMesh@Gu@physx@@6B@ 00000001801d93d8     GuConvexMesh.obj
 0002:00004470       ??_C@_0GE@ONHOLMHD@D?3?2Code?2OldD3D?2DX12BasicPlaygro@ 00000001801d9470     GuConvexMesh.obj
 0002:000044d8       ??_C@_0DM@NEJKOFIP@Loading?5convex?5mesh?5failed?3?5Dep@ 00000001801d94d8     GuConvexMesh.obj
 0002:00004518       ??_C@_0DB@PAHEPIEL@PxConvexMesh?3?3release?3?5double?5d@ 00000001801d9518     GuConvexMesh.obj
 0002:00004550       ??_C@_0FM@FLIFCDHF@D?3?2Code?2OldD3D?2DX12BasicPlaygro@ 00000001801d9550     GuConvexMesh.obj
 0002:000045d0       __xmm@000000000000000000000000ffffffff 00000001801d95d0     GuConvexSupportTable.obj
 0002:000045e0       __xmm@0000000000000000ffffffff00000000 00000001801d95e0     GuConvexSupportTable.obj
 0002:000045f0       __xmm@0000000000000000ffffffffffffffff 00000001801d95f0     GuConvexSupportTable.obj
 0002:00004600       __xmm@00000000ffffffff0000000000000000 00000001801d9600     GuConvexSupportTable.obj
 0002:00004610       __xmm@00000000ffffffff00000000ffffffff 00000001801d9610     GuConvexSupportTable.obj
 0002:00004620       __xmm@00000000ffffffffffffffff00000000 00000001801d9620     GuConvexSupportTable.obj
 0002:000046f0       __real@2b8cbccc            00000001801d96f0     GuDistanceSegmentTriangle.obj
 0002:00004700       __xmm@3f8000013f8000013f8000013f800001 00000001801d9700     GuDistanceSegmentTriangle.obj
 0002:00004710       __xmm@b4000000b4000000b4000000b4000000 00000001801d9710     GuDistanceSegmentTriangle.obj
 0002:00004770       __xmm@38d1b71738d1b71738d1b71738d1b717 00000001801d9770     GuGJKSimplex.obj
 0002:000047a0       ??_C@_0O@PBAKPCEC@PxHeightField@ 00000001801d97a0     GuHeightField.obj
 0002:000047b0       ??_7HeightField@Gu@physx@@6B@ 00000001801d97b0     GuHeightField.obj
 0002:00004868       ??_C@_0DC@BDMMBOKH@PxHeightField?3?3release?3?5double?5@ 00000001801d9868     GuHeightField.obj
 0002:000048a0       ??_C@_0GB@JJLLBGFK@D?3?2Code?2OldD3D?2DX12BasicPlaygro@ 00000001801d98a0     GuHeightField.obj
 0002:00004908       ??_C@_0CI@DMKEKGNK@Gu?3?3HeightField?3?3load?3?5PX_ALLOC@ 00000001801d9908     GuHeightField.obj
 0002:00004930       ??_C@_0FF@LIMJNGBD@D?3?2Code?2OldD3D?2DX12BasicPlaygro@ 00000001801d9930     GuHeightField.obj
 0002:000049b0       __real@3a03126f            00000001801d99b0     GuHeightFieldUtil.obj
 0002:000049b4       __real@3f19999a            00000001801d99b4     GuHeightFieldUtil.obj
 0002:000049c0       __xmm@40000000000000000000000000000000 00000001801d99c0     GuHeightFieldUtil.obj
 0002:00004a50       ??_7HeightFieldTraceSegmentReport@@6B@ 00000001801d9a50     GuSweepsHF.obj
 0002:00004a60       ??_7CapsuleTraceSegmentReport@@6B@ 00000001801d9a60     GuSweepsHF.obj
 0002:00004a70       ??_7ConvexTraceSegmentReport@@6B@ 00000001801d9a70     GuSweepsHF.obj
 0002:00004a80       ??_7BoxTraceSegmentReport@@6B@ 00000001801d9a80     GuSweepsHF.obj
 0002:00004a90       __real@aedbe6ff            00000001801d9a90     GuSweepsHF.obj
 0002:00004ac0       __real@3089705f            00000001801d9ac0     GuIntersectionRayBox.obj
 0002:00004ac4       __real@b4000000            00000001801d9ac4     GuIntersectionRayBox.obj
 0002:00004ad0       __xmm@000000003089705f3089705f3089705f 00000001801d9ad0     GuIntersectionRayBox.obj
 0002:00004ae0       __xmm@00000000bf800000bf800000bf800000 00000001801d9ae0     GuIntersectionRayBox.obj
 0002:00004b10       __real@7fc00000            00000001801d9b10     GuIntersectionTriangleTriangle.obj
 0002:00004b20       __xmm@7fc000007fc000007fc000007fc00000 00000001801d9b20     GuIntersectionTriangleTriangle.obj
 0002:00004b50       ??_7SourceMeshBase@Gu@physx@@6B@ 00000001801d9b50     GuBV4.obj
 0002:00004b78       ??_7SourceMesh@Gu@physx@@6B@ 00000001801d9b78     GuBV4.obj
 0002:00004ba0       ??_7TetrahedronSourceMesh@Gu@physx@@6B@ 00000001801d9ba0     GuBV4.obj
 0002:00004bd0       ??_C@_0FL@GKAHCOGB@D?3?2Code?2OldD3D?2DX12BasicPlaygro@ 00000001801d9bd0     GuBV4.obj
 0002:00004c30       __xmm@ff7fffffff7fffffff7fffffff7fffff 00000001801d9c30     GuBV4.obj
 0002:00004c60       ??_C@_0GA@BGKAIFIF@D?3?2Code?2OldD3D?2DX12BasicPlaygro@ 00000001801d9c60     GuBV4Build.obj
 0002:00004cc0       __real@38000100            00000001801d9cc0     GuBV4Build.obj
 0002:00004cc4       __real@3e93cd3a            00000001801d9cc4     GuBV4Build.obj
 0002:00004cc8       __real@46fffe00            00000001801d9cc8     GuBV4Build.obj
 0002:00004ccc       __real@be93cd3a            00000001801d9ccc     GuBV4Build.obj
 0002:00004cf0       __xmm@0000ffff0000ffff0000ffff0000ffff 00000001801d9cf0     GuBV4_AABBSweep.obj
 0002:00004d00       __xmm@3089705f3089705f3089705f3089705f 00000001801d9d00     GuBV4_AABBSweep.obj
 0002:00004d10       __xmm@33d6bf9533d6bf9533d6bf9533d6bf95 00000001801d9d10     GuBV4_AABBSweep.obj
 0002:00004d20       __xmm@40000000400000004000000040000000 00000001801d9d20     GuBV4_AABBSweep.obj
 0002:00004e10       __real@4f7fffff            00000001801d9e10     GuBV4_SphereOverlap.obj
 0002:00004e60       __xmm@000000007f7fffff0000000000000000 00000001801d9e60     GuMidphaseBV4.obj
 0002:00004ed0       ??_C@_0FD@EHCCILIF@Adjacency?5information?5not?5creat@ 00000001801d9ed0     GuMeshQuery.obj
 0002:00004f30       ??_C@_0GB@JKFDOODB@D?3?2Code?2OldD3D?2DX12BasicPlaygro@ 00000001801d9f30     GuMeshQuery.obj
 0002:00004fa0       ??_C@_0FL@BKNMAHIA@PxMeshQuery?3?3findOverlapTriangl@ 00000001801d9fa0     GuMeshQuery.obj
 0002:00005000       ??_C@_0BA@MBAFFELP@MeshQuery?4sweep@ 00000001801da000     GuMeshQuery.obj
 0002:00005010       __real@4cbebc20            00000001801da010     GuMeshQuery.obj
 0002:00005040       ??_7Callback@RTree@Gu@physx@@6B@ 00000001801da040     GuMidphaseRTree.obj
 0002:00005058       ??_7?$RayRTreeCallback@$00$0A@@@6BCallbackRaycast@RTree@Gu@physx@@@ 00000001801da058     GuMidphaseRTree.obj
 0002:00005058       ??_7?$RayRTreeCallback@$0A@$0A@@@6BCallbackRaycast@RTree@Gu@physx@@@ 00000001801da058     GuMidphaseRTree.obj
 0002:00005068       ??_7?$RayRTreeCallback@$00$0A@@@6BCallback@RTree@Gu@physx@@@ 00000001801da068     GuMidphaseRTree.obj
 0002:00005068       ??_7?$RayRTreeCallback@$0A@$0A@@@6BCallback@RTree@Gu@physx@@@ 00000001801da068     GuMidphaseRTree.obj
 0002:00005080       ??_7RayMeshColliderCallback@@6B@ 00000001801da080     GuMidphaseRTree.obj
 0002:00005090       ??_C@_0EN@DPPFLBLF@Point?9mesh?5distance?5query?5not?5s@ 00000001801da090     GuMidphaseRTree.obj
 0002:000050e0       ??_C@_0GF@FCCMHNIL@D?3?2Code?2OldD3D?2DX12BasicPlaygro@ 00000001801da0e0     GuMidphaseRTree.obj
 0002:00005148       ??_7?$RayRTreeCallback@$0A@$00@@6BCallbackRaycast@RTree@Gu@physx@@@ 00000001801da148     GuMidphaseRTree.obj
 0002:00005158       ??_7?$RayRTreeCallback@$0A@$00@@6BCallback@RTree@Gu@physx@@@ 00000001801da158     GuMidphaseRTree.obj
 0002:00005170       ??_7?$RayRTreeCallback@$00$00@@6BCallbackRaycast@RTree@Gu@physx@@@ 00000001801da170     GuMidphaseRTree.obj
 0002:00005180       ??_7?$RayRTreeCallback@$00$00@@6BCallback@RTree@Gu@physx@@@ 00000001801da180     GuMidphaseRTree.obj
 0002:00005200       __xmm@7f7fffff000000000000000000000000 00000001801da200     GuMidphaseRTree.obj
 0002:00005280       ??_7?$PxReportCallback@UPxGeomIndexPair@physx@@@physx@@6B@ 00000001801da280     GuOverlapTestsMesh.obj
 0002:000052a0       ??_C@_0EP@CEFGCJKJ@PxGeometryQuery?3?3overlap?$CI?$CJ?3?5onl@ 00000001801da2a0     GuOverlapTestsMesh.obj
 0002:000052f0       ??_C@_0GI@HPHDHOII@D?3?2Code?2OldD3D?2DX12BasicPlaygro@ 00000001801da2f0     GuOverlapTestsMesh.obj
 0002:00005380       ?MN@RTreePage@Gu@physx@@2MB 00000001801da380     GuRTree.obj
 0002:00005384       ?MX@RTreePage@Gu@physx@@2MB 00000001801da384     GuRTree.obj
 0002:00005390       ??_C@_0FN@GIIOAFMJ@D?3?2Code?2OldD3D?2DX12BasicPlaygro@ 00000001801da390     GuRTree.obj
 0002:00005460       ??_7SweepShapeMeshHitCallback@Gu@physx@@6B@ 00000001801da460     GuSweepsMesh.obj
 0002:00005470       ??_7SweepCapsuleMeshHitCallback@Gu@physx@@6B@ 00000001801da470     GuSweepsMesh.obj
 0002:00005480       ??_7SweepBoxMeshHitCallback@Gu@physx@@6B@ 00000001801da480     GuSweepsMesh.obj
 0002:00005490       ??_7SweepConvexMeshHitCallback@Gu@physx@@6B@ 00000001801da490     GuSweepsMesh.obj
 0002:000054c0       ??_C@_0P@GGNFNHKF@PxTriangleMesh@ 00000001801da4c0     GuTriangleMesh.obj
 0002:000054d0       ??_7TriangleMesh@Gu@physx@@6B@ 00000001801da4d0     GuTriangleMesh.obj
 0002:000055a8       ??_C@_0DD@LOOPMCGG@PxTriangleMesh?3?3release?3?5double@ 00000001801da5a8     GuTriangleMesh.obj
 0002:000055e0       ??_C@_0FH@PMPAJDGI@PxTriangleMesh?3?3getVerticesForM@ 00000001801da5e0     GuTriangleMesh.obj
 0002:00005640       ??_C@_0GE@NDCOBDJC@D?3?2Code?2OldD3D?2DX12BasicPlaygro@ 00000001801da640     GuTriangleMesh.obj
 0002:000056b0       ??_C@_0EF@GMNFLDH@PxTriangleMesh?3?3refitBVH?$CI?$CJ?5is?5n@ 00000001801da6b0     GuTriangleMesh.obj
 0002:00005700       __xmm@38383838383838383838383838383838 00000001801da700     GuTriangleMesh.obj
 0002:00005730       ??_C@_0BE@CNJKIINO@PxBVH34TriangleMesh@ 00000001801da730     GuTriangleMeshBV4.obj
 0002:00005748       ??_7BV4TriangleMesh@Gu@physx@@6B@ 00000001801da748     GuTriangleMeshBV4.obj
 0002:00005820       ??_C@_0EF@JLFNNPLP@BVH34?5trees?3?5refit?5operation?5on@ 00000001801da820     GuTriangleMeshBV4.obj
 0002:00005870       ??_C@_0GH@HPAGGPIK@D?3?2Code?2OldD3D?2DX12BasicPlaygro@ 00000001801da870     GuTriangleMeshBV4.obj
 0002:000058d8       __real@3951b717            00000001801da8d8     GuTriangleMeshBV4.obj
 0002:00005900       ??_C@_0BE@EIFHCCBO@PxBVH33TriangleMesh@ 00000001801da900     GuTriangleMeshRTree.obj
 0002:00005918       ??_7RTreeTriangleMesh@Gu@physx@@6B@ 00000001801da918     GuTriangleMeshRTree.obj
 0002:000059f0       ??_7?$RefitCallback@G@physx@@6B@ 00000001801da9f0     GuTriangleMeshRTree.obj
 0002:00005a00       ??_7?$RefitCallback@I@physx@@6B@ 00000001801daa00     GuTriangleMeshRTree.obj
 0002:00005a30       ??_C@_0FM@EGJMLHPB@D?3?2Code?2OldD3D?2DX12BasicPlaygro@ 00000001801daa30     GuBV32.obj
 0002:00005ab0       ??_C@_0GB@MPJJDAAE@D?3?2Code?2OldD3D?2DX12BasicPlaygro@ 00000001801daab0     GuBV32Build.obj
 0002:00005b40       ??_C@_0BC@FDAIDHBP@PxTetrahedronMesh@ 00000001801dab40     GuTetrahedronMesh.obj
 0002:00005b58       ??_C@_0BC@FBICGJIB@PxSoftBodyAuxData@ 00000001801dab58     GuTetrahedronMesh.obj
 0002:00005b70       ??_C@_0P@CLLFGFAA@PxSoftBodyMesh@ 00000001801dab70     GuTetrahedronMesh.obj
 0002:00005b80       ??_7SoftBodyAuxData@Gu@physx@@6B@ 00000001801dab80     GuTetrahedronMesh.obj
 0002:00005bc0       ??_7TetrahedronMesh@Gu@physx@@6B@ 00000001801dabc0     GuTetrahedronMesh.obj
 0002:00005c38       ??_7BVTetrahedronMesh@Gu@physx@@6B@ 00000001801dac38     GuTetrahedronMesh.obj
 0002:00005cb0       ??_7SoftBodyMesh@Gu@physx@@6B@ 00000001801dacb0     GuTetrahedronMesh.obj
 0002:00005d30       ??_C@_0DG@JJNMDPMD@PxTetrahedronMesh?3?3release?3?5dou@ 00000001801dad30     GuTetrahedronMesh.obj
 0002:00005d68       ??_C@_0DD@GGFGEPII@PxSoftBodyMesh?3?3release?3?5double@ 00000001801dad68     GuTetrahedronMesh.obj
 0002:00005da0       ??_C@_0GH@JNEFIFBO@D?3?2Code?2OldD3D?2DX12BasicPlaygro@ 00000001801dada0     GuTetrahedronMesh.obj
 0002:00005e30       __xmm@00000000358637bd358637bd358637bd 00000001801dae30     GuPCMContactBoxBox.obj
 0002:00005e40       __xmm@3f4ccccd3f4ccccd3f4ccccd3f4ccccd 00000001801dae40     GuPCMContactBoxBox.obj
 0002:00005e50       __xmm@3f8003473f8003473f8003473f800347 00000001801dae50     GuPCMContactBoxBox.obj
 0002:00005e60       __xmm@ffffffff00000000ffffffffffffffff 00000001801dae60     GuPCMContactBoxBox.obj
 0002:00005e90       ??_7?$LocalConvex@VConvexHullNoScaleV@Gu@physx@@@Gu@physx@@6B@ 00000001801dae90     GuPCMContactBoxConvex.obj
 0002:00005ec0       __xmm@3f3504f33f3504f33f3504f33f3504f3 00000001801daec0     GuPCMContactBoxConvex.obj
 0002:00005f10       __xmm@ffffffffffffffffffffffff00000000 00000001801daf10     GuPCMContactCapsuleCapsule.obj
 0002:00005f40       __xmm@3fa000003fa000003fa000003fa00000 00000001801daf40     GuPCMContactCapsuleConvex.obj
 0002:00005f70       ??_7PCMCapsuleVsHeightfieldContactGenerationCallback@@6B@ 00000001801daf70     GuPCMContactCapsuleHeightField.obj
 0002:00005f80       __real@3f7f3b64            00000001801daf80     GuPCMContactCapsuleHeightField.obj
 0002:00005fd0       __xmm@3f7ff9723f7ff9723f7ff9723f7ff972 00000001801dafd0     GuPCMContactCapsuleMesh.obj
 0002:00005fe0       __xmm@3f7fffef3f7fffef3f7fffef3f7fffef 00000001801dafe0     GuPCMContactCapsuleMesh.obj
 0002:00005ff0       __xmm@60ad78ec60ad78ec60ad78ec60ad78ec 00000001801daff0     GuPCMContactCapsuleMesh.obj
 0002:00006020       ??_7?$SupportLocalImpl@VTriangleV@Gu@physx@@@Gu@physx@@6B@ 00000001801db020     GuPCMContactConvexCommon.obj
 0002:00006040       __xmm@3cf5c2803cf5c2803cf5c2803cf5c280 00000001801db040     GuPCMContactConvexCommon.obj
 0002:00006050       __xmm@3f7851ec3f7851ec3f7851ec3f7851ec 00000001801db050     GuPCMContactConvexCommon.obj
 0002:00006080       ??_7?$RelativeConvex@VConvexHullNoScaleV@Gu@physx@@@Gu@physx@@6B@ 00000001801db080     GuPCMContactConvexConvex.obj
 0002:000060d0       ??_7PCMConvexVsHeightfieldContactGenerationCallback@physx@@6B@ 00000001801db0d0     GuPCMContactConvexHeightField.obj
 0002:000060e0       __xmm@3f19999a3f19999a3f19999a3f19999a 00000001801db0e0     GuPCMContactConvexHeightField.obj
 0002:00006120       ??_7PCMConvexVsMeshContactGenerationCallback@physx@@6B@ 00000001801db120     GuPCMContactConvexMesh.obj
 0002:00006150       __xmm@3f34fdf43f34fdf43f34fdf43f34fdf4 00000001801db150     GuPCMContactGenBoxConvex.obj
 0002:00006180       __xmm@3f80a3d73f80a3d73f80a3d73f80a3d7 00000001801db180     GuPCMContactGenSphereCapsule.obj
 0002:00006190       __xmm@bba3d70abba3d70abba3d70abba3d70a 00000001801db190     GuPCMContactGenSphereCapsule.obj
 0002:000061c0       __xmm@3f7ffd613f7ffd613f7ffd613f7ffd61 00000001801db1c0     GuPCMContactPlaneBox.obj
 0002:000061f0       __real@3b23d70b            00000001801db1f0     GuPCMContactPlaneCapsule.obj
 0002:00006200       __xmm@3ca3d70a3ca3d70a3ca3d70a3ca3d70a 00000001801db200     GuPCMContactPlaneCapsule.obj
 0002:00006230       __xmm@3a03126f3a03126f3a03126f3a03126f 00000001801db230     GuPCMContactPlaneConvex.obj
 0002:000062c0       ??_7PCMSphereVsHeightfieldContactGenerationCallback@physx@@6B@ 00000001801db2c0     GuPCMContactSphereHeightField.obj
 0002:00006310       ??_C@_0FM@ENCGJDPO@D?3?2Code?2OldD3D?2DX12BasicPlaygro@ 00000001801db310     GuPCMContactSphereMesh.obj
 0002:000063b0       __xmm@3727c5ac3727c5ac3727c5ac3727c5ac 00000001801db3b0     GuPCMContactSphereSphere.obj
 0002:000063e0       __xmm@3f7f06f73f7f06f73f7f06f73f7f06f7 00000001801db3e0     GuPCMContactCustomGeometry.obj
 0002:000063f0       ?gPCMBoxPolygonData@Gu@physx@@3QBEB 00000001801db3f0     GuPCMShapeConvex.obj
 0002:00006450       ?invalidateThresholds@Gu@physx@@3QBMB 00000001801db450     GuPersistentContactManifold.obj
 0002:00006468       ?invalidateQuatThresholds@Gu@physx@@3QBMB 00000001801db468     GuPersistentContactManifold.obj
 0002:00006480       ?invalidateThresholds2@Gu@physx@@3QBMB 00000001801db480     GuPersistentContactManifold.obj
 0002:00006490       ?invalidateQuatThresholds2@Gu@physx@@3QBMB 00000001801db490     GuPersistentContactManifold.obj
 0002:000064c0       __xmm@00000000340000003400000034000000 00000001801db4c0     GuPersistentContactManifold.obj
 0002:000064d0       __xmm@000000003f8000003f80000000000000 00000001801db4d0     GuPersistentContactManifold.obj
 0002:000064e0       __xmm@00000000bf8000003f80000000000000 00000001801db4e0     GuPersistentContactManifold.obj
 0002:000064f0       __xmm@ffffffffffffffff00000000ffffffff 00000001801db4f0     GuPersistentContactManifold.obj
 0002:00006560       __real@b727c5ac            00000001801db560     GuSweepBoxSphere.obj
 0002:000065d0       ??_C@_0GI@LNFJBLNK@D?3?2Code?2OldD3D?2DX12BasicPlaygro@ 00000001801db5d0     GuSweepCapsuleBox.obj
 0002:00006660       __real@3f7fff58            00000001801db660     GuSweepCapsuleTriangle.obj
 0002:000066d0       ??_C@_0CH@DHJGKCPD@Gu?3?3computeBounds?3?5Unknown?5shap@ 00000001801db6d0     GuBounds.obj
 0002:00006700       ??_C@_0FJ@DDJKMEHC@D?3?2Code?2OldD3D?2DX12BasicPlaygro@ 00000001801db700     GuBounds.obj
 0002:0000675c       __real@34800000            00000001801db75c     GuBounds.obj
 0002:00006760       __real@3f7fffef            00000001801db760     GuBounds.obj
 0002:00006770       __xmm@3f8147ae3f8147ae3f8147ae3f8147ae 00000001801db770     GuBounds.obj
 0002:000067a0       ??_C@_0FL@FFHFGNAB@D?3?2Code?2OldD3D?2DX12BasicPlaygro@ 00000001801db7a0     GuAABBTree.obj
 0002:00006800       __xmm@5a60b17f5a60b17f5a60b17f5a60b17f 00000001801db800     GuAABBTree.obj
 0002:00006810       __xmm@da60b17fda60b17fda60b17fda60b17f 00000001801db810     GuAABBTree.obj
 0002:00006880       ??_C@_0GG@MKFANBL@D?3?2Code?2OldD3D?2DX12BasicPlaygro@ 00000001801db880     GuIncrementalAABBTree.obj
 0002:000068f0       ??_C@_0FD@MOGDPCLC@D?3?2Code?2OldD3D?2DX12BasicPlaygro@ 00000001801db8f0     GuIncrementalAABBTree.obj
 0002:00006944       __real@40400000            00000001801db944     GuIncrementalAABBTree.obj
 0002:00006950       ??_C@_0FG@GFHHNAD@D?3?2Code?2OldD3D?2DX12BasicPlaygro@ 00000001801db950     GuSAH.obj
 0002:000069d0       ??_7PxBVH@physx@@6B@       00000001801db9d0     GuBVH.obj
 0002:00006a60       ??_C@_05OKJNPKBM@PxBVH@    00000001801dba60     GuBVH.obj
 0002:00006a68       ??_7RefCountable@Cm@physx@@6B@ 00000001801dba68     GuBVH.obj
 0002:00006a78       ??_7BVH@Gu@physx@@6BPxBVH@2@@ 00000001801dba78     GuBVH.obj
 0002:00006b08       ??_7BVH@Gu@physx@@6BRefCountable@Cm@2@@ 00000001801dbb08     GuBVH.obj
 0002:00006b20       ??_C@_0FG@BEDPOOPG@D?3?2Code?2OldD3D?2DX12BasicPlaygro@ 00000001801dbb20     GuBVH.obj
 0002:00006b78       ??_C@_0CK@HAIOEINI@PxBVH?3?3release?3?5double?5deletion@ 00000001801dbb78     GuBVH.obj
 0002:00006bd0       ??_C@_0GM@CNIHGNCF@D?3?2Code?2OldD3D?2DX12BasicPlaygro@ 00000001801dbbd0     GuIncrementalAABBPrunerCore.obj
 0002:00006c3c       __real@3f80a3d7            00000001801dbc3c     GuIncrementalAABBPrunerCore.obj
 0002:00006c60       ??_7BasePruner@Gu@physx@@6B@ 00000001801dbc60     GuIncrementalAABBPruner.obj
 0002:00006c78       ??_7IncrementalAABBPruner@Gu@physx@@6B@ 00000001801dbc78     GuIncrementalAABBPruner.obj
 0002:00006d00       ??_C@_0BM@FLAABPLG@SceneQuery?4prunerAddObjects@ 00000001801dbd00     GuIncrementalAABBPruner.obj
 0002:00006d20       ??_C@_0BP@EAAOKPEE@SceneQuery?4prunerUpdateObjects@ 00000001801dbd20     GuIncrementalAABBPruner.obj
 0002:00006d40       ??_C@_0BP@EHMBNBOH@SceneQuery?4prunerRemoveObjects@ 00000001801dbd40     GuIncrementalAABBPruner.obj
 0002:00006d60       ??_C@_0BI@HOKOKBIM@SceneQuery?4prunerCommit@ 00000001801dbd60     GuIncrementalAABBPruner.obj
 0002:00006d80       ??_C@_0GI@KGDDPOOH@D?3?2Code?2OldD3D?2DX12BasicPlaygro@ 00000001801dbd80     GuIncrementalAABBPruner.obj
 0002:00006e10       ??_C@_0BE@PKINCBHP@PruningPool?3?3resize@ 00000001801dbe10     GuPruningPool.obj
 0002:00006e30       ??_C@_0FO@EOHAOEKG@D?3?2Code?2OldD3D?2DX12BasicPlaygro@ 00000001801dbe30     GuPruningPool.obj
 0002:00006e90       ??_C@_0BI@HMDEMGJB@PruningPool?3?3addObjects@ 00000001801dbe90     GuPruningPool.obj
 0002:00006ea8       ??_C@_0BK@JPNIEHEJ@PruningPool?3?3removeObject@ 00000001801dbea8     GuPruningPool.obj
 0002:00006ec8       ??_C@_0BJ@GNLAFFBD@PruningPool?3?3shiftOrigin@ 00000001801dbec8     GuPruningPool.obj
 0002:00006ee8       ??_C@_0CE@MGPCCKGE@PruningPool?3?3updateAndInflateBo@ 00000001801dbee8     GuPruningPool.obj
 0002:00006f50       ??_7BucketPruner@Gu@physx@@6B@ 00000001801dbf50     GuBucketPruner.obj
 0002:00006fe0       ??_C@_0FP@DFIMLGD@D?3?2Code?2OldD3D?2DX12BasicPlaygro@ 00000001801dbfe0     GuBucketPruner.obj
 0002:00007040       __real@bf13cd3a            00000001801dc040     GuBucketPruner.obj
 0002:00007050       __xmm@000000007e7fffff7e7fffff7e7fffff 00000001801dc050     GuBucketPruner.obj
 0002:00007060       __xmm@00000000fe7ffffffe7ffffffe7fffff 00000001801dc060     GuBucketPruner.obj
 0002:00007070       __xmm@3f13cd3a3f13cd3a3f13cd3a3f13cd3a 00000001801dc070     GuBucketPruner.obj
 0002:00007080       __xmm@bf13cd3abf13cd3abf13cd3a3f13cd3a 00000001801dc080     GuBucketPruner.obj
 0002:00007090       __xmm@bf8000003f8000003f800000bf800000 00000001801dc090     GuBucketPruner.obj
 0002:000070a0       __xmm@bf8000003f800000bf8000003f800000 00000001801dc0a0     GuBucketPruner.obj
 0002:000070b0       __xmm@bf800000bf8000003f8000003f800000 00000001801dc0b0     GuBucketPruner.obj
 0002:000070c0       __xmm@bf800000bf800000bf8000003f800000 00000001801dc0c0     GuBucketPruner.obj
 0002:000070d0       ?mIndices@MaverickNode@Gu@physx@@2QBIB 00000001801dc0d0     GuMaverickNode.obj
 0002:00007130       ??_C@_0GH@MJAPEGPD@D?3?2Code?2OldD3D?2DX12BasicPlaygro@ 00000001801dc130     GuExtendedBucketPruner.obj
 0002:000071c0       ??_7CompanionPruner@Gu@physx@@6B@ 00000001801dc1c0     GuSecondaryPruner.obj
 0002:00007240       ??_7CompanionPrunerBucket@@6B@ 00000001801dc240     GuSecondaryPruner.obj
 0002:000072c0       ??_7CompanionPrunerIncremental@@6B@ 00000001801dc2c0     GuSecondaryPruner.obj
 0002:00007340       ??_7CompanionPrunerAABBTree@@6B@ 00000001801dc340     GuSecondaryPruner.obj
 0002:000073c0       ??_C@_0GC@MGFKILFB@D?3?2Code?2OldD3D?2DX12BasicPlaygro@ 00000001801dc3c0     GuSecondaryPruner.obj
 0002:00007450       ??_7AABBPruner@Gu@physx@@6B@ 00000001801dc450     GuAABBPruner.obj
 0002:000074f0       ??_C@_0CC@JANKLMNO@SceneQuery?4bucketPrunerAddObjec@ 00000001801dc4f0     GuAABBPruner.obj
 0002:00007518       ??_C@_0CB@JOCHAJIC@SceneQuery?4prunerNewTreeFinaliz@ 00000001801dc518     GuAABBPruner.obj
 0002:00007540       ??_C@_0BP@IOICCIGM@SceneQuery?4prunerNewTreeSwitch@ 00000001801dc540     GuAABBPruner.obj
 0002:00007560       ??_C@_0CA@LJGALBJD@SceneQuery?4prunerNewTreeMapping@ 00000001801dc560     GuAABBPruner.obj
 0002:00007580       ??_C@_0CD@OCIEMIME@SceneQuery?4prunerNewTreeFinalRe@ 00000001801dc580     GuAABBPruner.obj
 0002:000075a8       ??_C@_0CG@PMFEEPAE@SceneQuery?4prunerNewTreeRemoveO@ 00000001801dc5a8     GuAABBPruner.obj
 0002:000075d0       ??_C@_0BL@NAENOAHO@SceneQuery?4prunerBuildStep@ 00000001801dc5d0     GuAABBPruner.obj
 0002:000075f0       ??_C@_0CC@MJCIDELA@SceneQuery?4prunerNewTreeFullRef@ 00000001801dc5f0     GuAABBPruner.obj
 0002:00007618       ??_C@_0BI@DAHHAEPA@SceneQuery?4prepareBuild@ 00000001801dc618     GuAABBPruner.obj
 0002:00007630       ??_C@_0FN@FLKMDMLE@D?3?2Code?2OldD3D?2DX12BasicPlaygro@ 00000001801dc630     GuAABBPruner.obj
 0002:00007690       ??_C@_0CF@PDMDBIIO@SceneQuery?4prunerFullRebuildAAB@ 00000001801dc690     GuAABBPruner.obj
 0002:000076b8       ??_C@_0CE@GKMPPEJP@SceneQuery?4prunerUpdateBucketPr@ 00000001801dc6b8     GuAABBPruner.obj
 0002:000076e0       ??_C@_0CI@MKOHFNNO@SceneQuery?4prunerRefitUpdatedAn@ 00000001801dc6e0     GuAABBPruner.obj
 0002:00007710       ??_C@_0GA@BEBHNPFG@D?3?2Code?2OldD3D?2DX12BasicPlaygro@ 00000001801dc710     GuActorShapeMap.obj
 0002:00007790       ??_C@_0BF@DNABLJAF@Invalid?5pruner?5index@ 00000001801dc790     GuQuerySystem.obj
 0002:000077b0       ??_C@_0FO@BABGBMCM@D?3?2Code?2OldD3D?2DX12BasicPlaygro@ 00000001801dc7b0     GuQuerySystem.obj
 0002:00007810       ??_C@_0BO@MMDENGGP@QuerySystem?4processDirtyLists@ 00000001801dc810     GuQuerySystem.obj
 0002:00007830       ??_C@_0BE@PHJMAGEL@QuerySystem?3?3update@ 00000001801dc830     GuQuerySystem.obj
 0002:00007848       ??_C@_0BK@GODFCMPK@QuerySystem?4commitUpdates@ 00000001801dc848     GuQuerySystem.obj
 0002:00007898       ??_C@_0CA@NAJNANMC@QuerySystem?4createTreeOfPruners@ 00000001801dc898     GuQuerySystem.obj
 0002:000078e0       ??_C@_0FK@NLHAJBDP@D?3?2Code?2OldD3D?2DX12BasicPlaygro@ 00000001801dc8e0     GuFactory.obj
 0002:00007940       ?reductionFactors@SubSortQuick@physx@@2QBMB 00000001801dc940     GuRTreeCooking.obj
 0002:00007950       ?stopAtTrisPerLeaf1@SubSortQuick@physx@@2QBIB 00000001801dc950     GuRTreeCooking.obj
 0002:00007a20       ??_C@_0GH@CPNLAMAG@D?3?2Code?2OldD3D?2DX12BasicPlaygro@ 00000001801dca20     GuRTreeCooking.obj
 0002:00007a88       __real@41100000            00000001801dca88     GuRTreeCooking.obj
 0002:00007a8c       __real@41700000            00000001801dca8c     GuRTreeCooking.obj
 0002:00007a90       __real@42200000            00000001801dca90     GuRTreeCooking.obj
 0002:00007aa0       __xmm@00000004000000030000000200000001 00000001801dcaa0     GuRTreeCooking.obj
 0002:00007ad0       ??_C@_0GE@KPPAEMEE@D?3?2Code?2OldD3D?2DX12BasicPlaygro@ 00000001801dcad0     GuCookingHF.obj
 0002:00007b40       ??_C@_0EK@EKAIJEBL@Cooking?3?3cookConvexMesh?3?5user?9p@ 00000001801dcb40     GuCookingConvexMesh.obj
 0002:00007b90       ??_C@_0FA@GFFGAPML@Cooking?3?3cookConvexMesh?3?5provid@ 00000001801dcb90     GuCookingConvexMesh.obj
 0002:00007be0       ??_C@_0EP@PKDCPNNO@Cooking?3?3cookConvexMesh?3?5provid@ 00000001801dcbe0     GuCookingConvexMesh.obj
 0002:00007c30       ??_C@_0EO@LKFMMDE@Cooking?3?3cookConvexMesh?3?5user?9p@ 00000001801dcc30     GuCookingConvexMesh.obj
 0002:00007c80       ??_C@_0EL@KJEPJALG@Cooking?3?3cookConvexMesh?3?5user?9p@ 00000001801dcc80     GuCookingConvexMesh.obj
 0002:00007cd0       ??_C@_0FM@LHMEBKMM@Cooking?3?3cookConvexMesh?3?5GPU?9co@ 00000001801dccd0     GuCookingConvexMesh.obj
 0002:00007d30       ??_C@_0FJ@FHCFFABE@Cooking?3?3cookConvexMesh?3?5GPU?9co@ 00000001801dcd30     GuCookingConvexMesh.obj
 0002:00007d90       ??_C@_0GM@DDECBFDI@D?3?2Code?2OldD3D?2DX12BasicPlaygro@ 00000001801dcd90     GuCookingConvexMesh.obj
 0002:00007e20       ??_7TriangleMeshBuilder@physx@@6B@ 00000001801dce20     GuCookingTriangleMesh.obj
 0002:00007e48       ??_7RTreeTriangleMeshBuilder@physx@@6B@ 00000001801dce48     GuCookingTriangleMesh.obj
 0002:00007e70       ??_7BV4TriangleMeshBuilder@physx@@6B@ 00000001801dce70     GuCookingTriangleMesh.obj
 0002:00007ea0       ??_C@_0GO@PLHBIHE@D?3?2Code?2OldD3D?2DX12BasicPlaygro@ 00000001801dcea0     GuCookingTriangleMesh.obj
 0002:00007f10       ??_C@_0DJ@IGODLHLP@TriangleMesh?3?5Enable?5mesh?5weldi@ 00000001801dcf10     GuCookingTriangleMesh.obj
 0002:00007f50       ??_C@_0FJ@HHJLKGDF@TriangleMesh?3?5triangles?5are?5too@ 00000001801dcf50     GuCookingTriangleMesh.obj
 0002:00007fb0       ??_C@_0CN@KGPHHHLK@TriangleMesh?3?5mesh?5is?5too?5big?5f@ 00000001801dcfb0     GuCookingTriangleMesh.obj
 0002:00007fe0       ??_C@_0DD@CMJGDCNN@TriangleMesh?3?3loadFromDesc?3?5des@ 00000001801dcfe0     GuCookingTriangleMesh.obj
 0002:00008020       ??_C@_0ED@ILJJNHIP@TriangleMesh?3?3loadFromDesc?3?5mPa@ 00000001801dd020     GuCookingTriangleMesh.obj
 0002:00008068       ??_C@_0BJ@BKHDBBHO@cleaning?5the?5mesh?5failed@ 00000001801dd068     GuCookingTriangleMesh.obj
 0002:00008088       ??_C@_0BK@JIDHMMCE@BV4?5tree?5failed?5to?5build?4@ 00000001801dd088     GuCookingTriangleMesh.obj
 0002:000080a8       ??_C@_0BL@DHNECNBE@BV32?5tree?5failed?5to?5build?4@ 00000001801dd0a8     GuCookingTriangleMesh.obj
 0002:000080c8       ??_7RTreeCookerRemap@@6B@  00000001801dd0c8     GuCookingTriangleMesh.obj
 0002:000080e0       ??_C@_0FC@PJIHAFK@Cooking?3?3validateTriangleMesh?3?5@ 00000001801dd0e0     GuCookingTriangleMesh.obj
 0002:00008134       __real@48742400            00000001801dd134     GuCookingTriangleMesh.obj
 0002:00008160       ??_7PxCollisionTetrahedronMeshData@physx@@6B@ 00000001801dd160     GuCookingTetrahedronMesh.obj
 0002:00008190       ??_7PxSimulationTetrahedronMeshData@physx@@6B@ 00000001801dd190     GuCookingTetrahedronMesh.obj
 0002:000081b0       ??_7CollisionTetrahedronMeshData@Gu@physx@@6B@ 00000001801dd1b0     GuCookingTetrahedronMesh.obj
 0002:000081e0       ??_7SimulationTetrahedronMeshData@Gu@physx@@6B@ 00000001801dd1e0     GuCookingTetrahedronMesh.obj
 0002:00008200       ??_C@_0HB@FKANNLPL@D?3?2Code?2OldD3D?2DX12BasicPlaygro@ 00000001801dd200     GuCookingTetrahedronMesh.obj
 0002:00008280       ??_C@_0EG@BKGBJDHG@computeRestPoseAndPointMass?$CI?$CJ?3?5@ 00000001801dd280     GuCookingTetrahedronMesh.obj
 0002:000082c8       ??_7?$LocalConvex@VTetrahedronV@Gu@physx@@@Gu@physx@@6B@ 00000001801dd2c8     GuCookingTetrahedronMesh.obj
 0002:000082f8       ??_C@_0CD@OJGNHLOE@BV4_AABBTree?5tree?5failed?5to?5bui@ 00000001801dd2f8     GuCookingTetrahedronMesh.obj
 0002:00008320       ??_C@_0DG@NCNIEEHB@TetrahedronMesh?3?3loadFromDesc?3?5@ 00000001801dd320     GuCookingTetrahedronMesh.obj
 0002:00008360       ??_C@_0EG@CJIFGLMC@TetrahedronMesh?3?3loadFromDesc?3?5@ 00000001801dd360     GuCookingTetrahedronMesh.obj
 0002:000083a8       __real@3e2aaaab            00000001801dd3a8     GuCookingTetrahedronMesh.obj
 0002:000083ac       __real@be2aaaab            00000001801dd3ac     GuCookingTetrahedronMesh.obj
 0002:000083b0       __xmm@00000003000000030000000300000003 00000001801dd3b0     GuCookingTetrahedronMesh.obj
 0002:000083e0       __real@3bc79ca10c924223    00000001801dd3e0     GuCookingVolumeIntegration.obj
 0002:000083e8       __real@3f91111111111111    00000001801dd3e8     GuCookingVolumeIntegration.obj
 0002:000083f0       __real@3fa5555555555555    00000001801dd3f0     GuCookingVolumeIntegration.obj
 0002:000083f8       __real@3fa999999999999a    00000001801dd3f8     GuCookingVolumeIntegration.obj
 0002:00008400       __real@3fb5555555555555    00000001801dd400     GuCookingVolumeIntegration.obj
 0002:00008408       __real@3fc5555555555555    00000001801dd408     GuCookingVolumeIntegration.obj
 0002:00008410       __real@3fe0000000000000    00000001801dd410     GuCookingVolumeIntegration.obj
 0002:00008418       __real@3ff0000000000000    00000001801dd418     GuCookingVolumeIntegration.obj
 0002:00008420       __real@4008000000000000    00000001801dd420     GuCookingVolumeIntegration.obj
 0002:00008428       __real@4010000000000000    00000001801dd428     GuCookingVolumeIntegration.obj
 0002:00008430       __real@bf91111111111111    00000001801dd430     GuCookingVolumeIntegration.obj
 0002:00008438       __real@bfa999999999999a    00000001801dd438     GuCookingVolumeIntegration.obj
 0002:00008440       __real@bfb5555555555555    00000001801dd440     GuCookingVolumeIntegration.obj
 0002:00008448       __real@bfc5555555555555    00000001801dd448     GuCookingVolumeIntegration.obj
 0002:00008450       __xmm@3c0888893c0888893c0888893c088889 00000001801dd450     GuCookingVolumeIntegration.obj
 0002:00008460       __xmm@3c8888893c8888893c8888893c888889 00000001801dd460     GuCookingVolumeIntegration.obj
 0002:00008470       __xmm@3d2aaaab3d2aaaab3d2aaaab3d2aaaab 00000001801dd470     GuCookingVolumeIntegration.obj
 0002:00008480       __xmm@3e2aaaab3e2aaaab3e2aaaab3e2aaaab 00000001801dd480     GuCookingVolumeIntegration.obj
 0002:00008490       __xmm@3f811111111111113f81111111111111 00000001801dd490     GuCookingVolumeIntegration.obj
 0002:000084a0       __xmm@3f811111111111113f91111111111111 00000001801dd4a0     GuCookingVolumeIntegration.obj
 0002:000084b0       __xmm@3f911111111111113f91111111111111 00000001801dd4b0     GuCookingVolumeIntegration.obj
 0002:000084c0       __xmm@3fa55555555555553fa5555555555555 00000001801dd4c0     GuCookingVolumeIntegration.obj
 0002:000084d0       __xmm@3fa55555555555553fc5555555555555 00000001801dd4d0     GuCookingVolumeIntegration.obj
 0002:000084e0       __xmm@3fd55555555555553fd5555555555555 00000001801dd4e0     GuCookingVolumeIntegration.obj
 0002:000084f0       __xmm@3fe00000000000003fe0000000000000 00000001801dd4f0     GuCookingVolumeIntegration.obj
 0002:00008500       __xmm@7fffffffffffffff7fffffffffffffff 00000001801dd500     GuCookingVolumeIntegration.obj
 0002:00008510       __xmm@80000000000000008000000000000000 00000001801dd510     GuCookingVolumeIntegration.obj
 0002:00008520       ??_7ConvexHullLib@physx@@6B@ 00000001801dd520     GuCookingQuickHullConvexHullLib.obj
 0002:00008540       ??_7QuickHullConvexHullLib@physx@@6B@ 00000001801dd540     GuCookingQuickHullConvexHullLib.obj
 0002:00008560       ??_C@_0HI@HPKLEDHE@D?3?2Code?2OldD3D?2DX12BasicPlaygro@ 00000001801dd560     GuCookingQuickHullConvexHullLib.obj
 0002:000085e0       ??_C@_0GA@EPPAEJPM@QuickHullConvexHullLib?3?3findSim@ 00000001801dd5e0     GuCookingQuickHullConvexHullLib.obj
 0002:00008640       ??_C@_0FB@NEBIJMML@QuickHullConvexHullLib?3?3findSim@ 00000001801dd640     GuCookingQuickHullConvexHullLib.obj
 0002:000086a0       ??_C@_0FB@CLLCBEMM@QuickHullConvexHullLib?3?3findSim@ 00000001801dd6a0     GuCookingQuickHullConvexHullLib.obj
 0002:000086f4       __real@34c00000            00000001801dd6f4     GuCookingQuickHullConvexHullLib.obj
 0002:000086f8       ??_C@_0DP@PJBJBEGF@Meshmerizer?3?3extractHullPolygon@ 00000001801dd6f8     GuCookingConvexPolygonsBuilder.obj
 0002:00008740       ??_C@_0HH@EOFDOEIJ@D?3?2Code?2OldD3D?2DX12BasicPlaygro@ 00000001801dd740     GuCookingConvexPolygonsBuilder.obj
 0002:000087b8       ??_C@_0DL@IAFKOCCK@ConvexHullBuilder?3?5convex?5hull?5@ 00000001801dd7b8     GuCookingConvexPolygonsBuilder.obj
 0002:00008800       ??_C@_0GF@OJLJHAMH@ConvexHullBuilder?3?3CreateTriang@ 00000001801dd800     GuCookingConvexPolygonsBuilder.obj
 0002:00008890       ??_C@_0DF@LLFJIJGM@Gu?3?3ConvexMesh?3?3loadFromDesc?3?5d@ 00000001801dd890     GuCookingConvexMeshBuilder.obj
 0002:000088d0       ??_C@_0HK@JOGKIEAA@Gu?3?3ConvexMesh?3?5Mesh?5has?5a?5nega@ 00000001801dd8d0     GuCookingConvexMeshBuilder.obj
 0002:00008950       ??_C@_0DH@NJPPHFFD@Gu?3?3ConvexMesh?3?5Error?5computing@ 00000001801dd950     GuCookingConvexMeshBuilder.obj
 0002:00008988       ??_C@_0DJ@LJDLGLDJ@Gu?3?3ConvexMesh?3?3loadConvexHull?3@ 00000001801dd988     GuCookingConvexMeshBuilder.obj
 0002:000089d0       ??_C@_0HJ@KJANPPOE@ConvexMeshBuilder?3?3computeHullP@ 00000001801dd9d0     GuCookingConvexMeshBuilder.obj
 0002:00008a50       ??_C@_0HD@BFAHKJNK@D?3?2Code?2OldD3D?2DX12BasicPlaygro@ 00000001801dda50     GuCookingConvexMeshBuilder.obj
 0002:00008ac8       ??_C@_0O@JMAGMMGG@PxHullPolygon@ 00000001801ddac8     GuCookingConvexMeshBuilder.obj
 0002:00008ad8       __real@3f13cd3a            00000001801ddad8     GuCookingConvexMeshBuilder.obj
 0002:00008b00       ??_C@_0HB@CLIKILOA@D?3?2Code?2OldD3D?2DX12BasicPlaygro@ 00000001801ddb00     GuCookingConvexHullUtils.obj
 0002:00008b74       __real@3e20d97c            00000001801ddb74     GuCookingConvexHullUtils.obj
 0002:00008b80       ??_C@_0GP@JFNNCJPI@D?3?2Code?2OldD3D?2DX12BasicPlaygro@ 00000001801ddb80     GuCookingConvexHullLib.obj
 0002:00008bf0       ??_C@_0JE@PABBNGEL@ConvexHullLib?3?3cleanupVertices?3@ 00000001801ddbf0     GuCookingConvexHullLib.obj
 0002:00008cb0       ??_C@_0HD@NLKDAJIP@D?3?2Code?2OldD3D?2DX12BasicPlaygro@ 00000001801ddcb0     GuCookingConvexHullBuilder.obj
 0002:00008d30       ??_C@_0EB@DCEIFDGC@ConvexHullBuilder?3?3init?3?5convex@ 00000001801ddd30     GuCookingConvexHullBuilder.obj
 0002:00008d80       ??_C@_0FM@KICBLCBH@Gu?3?3ConvexMesh?3?3checkHullPolygo@ 00000001801ddd80     GuCookingConvexHullBuilder.obj
 0002:00008de0       ??_C@_0GO@HBFIOGLL@Gu?3?3ConvexMesh?3?3checkHullPolygo@ 00000001801ddde0     GuCookingConvexHullBuilder.obj
 0002:00008e50       ??_C@_0HF@OLJFBIEL@ConvexHullBuilder?3?5convex?5hull?5@ 00000001801dde50     GuCookingConvexHullBuilder.obj
 0002:00008ed0       ??_C@_0OG@JNHFOIL@ConvexHullBuilder?3?5convex?5hull?5@ 00000001801dded0     GuCookingConvexHullBuilder.obj
 0002:00008fc0       ??_C@_0EJ@NIOIBAKH@Cooking?3?3cookConvexMesh?3?5non?9ma@ 00000001801ddfc0     GuCookingConvexHullBuilder.obj
 0002:00009030       ??_C@_0HG@EHJOEMPB@D?3?2Code?2OldD3D?2DX12BasicPlaygro@ 00000001801de030     GuCookingBigConvexDataBuilder.obj
 0002:000090b0       __sz_PhysXFoundation_64_dll 00000001801de0b0     PhysXFoundation_64:PhysXFoundation_64.dll
 0002:000090c8       ??_C@_1BK@DBDEIDLH@?$AAK?$AAE?$AAR?$AAN?$AAE?$AAL?$AA3?$AA2?$AA?4?$AAD?$AAL?$AAL@ 00000001801de0c8     Delayimp:delayhlp.obj
 0002:000090e8       ??_C@_0BI@OMNLIJDB@AcquireSRWLockExclusive@ 00000001801de0e8     Delayimp:delayhlp.obj
 0002:00009100       ??_C@_0BI@HMIEPCNJ@ReleaseSRWLockExclusive@ 00000001801de100     Delayimp:delayhlp.obj
 0002:00009118       __pfnDliFailureHook2       00000001801de118     Delayimp:delayhk1.obj
 0002:00009128       ??_7type_info@@6B@         00000001801de128     LIBCMT:std_type_info_static.obj
 0002:00009190       _pDefaultRawDllMain        00000001801de190     LIBCMT:dll_dllmain.obj
 0002:00009190       _pRawDllMain               00000001801de190     LIBCMT:dll_dllmain.obj
 0002:000091a0       _load_config_used          00000001801de1a0     LIBCMT:loadcfg.obj
 0002:000092e0       _pDestructExceptionObject  00000001801de2e0     libvcruntime:ehhelpers.obj
 0002:00009a00       ??_C@_08EHJDFFNH@__based?$CI@ 00000001801dea00     libvcruntime:undname.obj
 0002:00009a10       ??_C@_07KOLFKCDI@__cdecl@  00000001801dea10     libvcruntime:undname.obj
 0002:00009a18       ??_C@_08GHMPAG@__pascal@   00000001801dea18     libvcruntime:undname.obj
 0002:00009a28       ??_C@_09IFJBGAPI@__stdcall@ 00000001801dea28     libvcruntime:undname.obj
 0002:00009a38       ??_C@_0L@NPHFGOKO@__thiscall@ 00000001801dea38     libvcruntime:undname.obj
 0002:00009a48       ??_C@_0L@JMKHOMEK@__fastcall@ 00000001801dea48     libvcruntime:undname.obj
 0002:00009a58       ??_C@_0N@BCKKPABJ@__vectorcall@ 00000001801dea58     libvcruntime:undname.obj
 0002:00009a68       ??_C@_09HIJEGCPM@__clrcall@ 00000001801dea68     libvcruntime:undname.obj
 0002:00009a74       ??_C@_06GHPCKEAG@__eabi@   00000001801dea74     libvcruntime:undname.obj
 0002:00009a80       ??_C@_09IOPIDJLG@__swift_1@ 00000001801dea80     libvcruntime:undname.obj
 0002:00009a90       ??_C@_09KFNFGKHF@__swift_2@ 00000001801dea90     libvcruntime:undname.obj
 0002:00009aa0       ??_C@_09LMMOFLDE@__swift_3@ 00000001801deaa0     libvcruntime:undname.obj
 0002:00009ab0       ??_C@_07JOMMBBKO@__ptr64@  00000001801deab0     libvcruntime:undname.obj
 0002:00009ab8       ??_C@_0L@PILCLIHE@__restrict@ 00000001801deab8     libvcruntime:undname.obj
 0002:00009ac8       ??_C@_0M@GFIIJFMG@__unaligned@ 00000001801deac8     libvcruntime:undname.obj
 0002:00009ad8       ??_C@_09DHDLOLLB@restrict?$CI@ 00000001801dead8     libvcruntime:undname.obj
 0002:00009ae4       ??_C@_04NIHEBCM@?5new@     00000001801deae4     libvcruntime:undname.obj
 0002:00009af0       ??_C@_07FPCDHGMM@?5delete@ 00000001801deaf0     libvcruntime:undname.obj
 0002:00009af8       ??_C@_01NEMOKFLO@?$DN@     00000001801deaf8     libvcruntime:undname.obj
 0002:00009afc       ??_C@_02GPIOPFAK@?$DO?$DO@ 00000001801deafc     libvcruntime:undname.obj
 0002:00009b00       ??_C@_02FODMEDOG@?$DM?$DM@ 00000001801deb00     libvcruntime:undname.obj
 0002:00009b04       ??_C@_01DCLJPIOD@?$CB@     00000001801deb04     libvcruntime:undname.obj
 0002:00009b08       ??_C@_02EGOFBIJA@?$DN?$DN@ 00000001801deb08     libvcruntime:undname.obj
 0002:00009b0c       ??_C@_02FDNJECIE@?$CB?$DN@ 00000001801deb0c     libvcruntime:undname.obj
 0002:00009b10       ??_C@_02GPECMEKF@?$FL?$FN@ 00000001801deb10     libvcruntime:undname.obj
 0002:00009b18       ??_C@_08LHJFAFGD@operator@ 00000001801deb18     libvcruntime:undname.obj
 0002:00009b24       ??_C@_02HBOOOICD@?9?$DO@   00000001801deb24     libvcruntime:undname.obj
 0002:00009b28       ??_C@_01NBENCBCI@?$CK@     00000001801deb28     libvcruntime:undname.obj
 0002:00009b2c       ??_C@_02ECNGHCIF@?$CL?$CL@ 00000001801deb2c     libvcruntime:undname.obj
 0002:00009b30       ??_C@_02BAABKJLB@?9?9@     00000001801deb30     libvcruntime:undname.obj
 0002:00009b34       ??_C@_01JOAMLHOP@?9@       00000001801deb34     libvcruntime:undname.obj
 0002:00009b38       ??_C@_01MIFGBAGJ@?$CL@     00000001801deb38     libvcruntime:undname.obj
 0002:00009b3c       ??_C@_01HNPIGOCE@?$CG@     00000001801deb3c     libvcruntime:undname.obj
 0002:00009b40       ??_C@_03MNHNFDLC@?9?$DO?$CK@ 00000001801deb40     libvcruntime:undname.obj
 0002:00009b44       ??_C@_01KMDKNFGN@?1@       00000001801deb44     libvcruntime:undname.obj
 0002:00009b48       ??_C@_01FGNFDNOH@?$CF@     00000001801deb48     libvcruntime:undname.obj
 0002:00009b4c       ??_C@_01MNNFJEPP@?$DM@     00000001801deb4c     libvcruntime:undname.obj
 0002:00009b50       ??_C@_02EHCHHCKH@?$DM?$DN@ 00000001801deb50     libvcruntime:undname.obj
 0002:00009b54       ??_C@_01PPODPGHN@?$DO@     00000001801deb54     libvcruntime:undname.obj
 0002:00009b58       ??_C@_02EEKDKGMJ@?$DO?$DN@ 00000001801deb58     libvcruntime:undname.obj
 0002:00009b5c       ??_C@_01IHBHIGKO@?0@       00000001801deb5c     libvcruntime:undname.obj
 0002:00009b60       ??_C@_02HCKGKOFO@?$CI?$CJ@ 00000001801deb60     libvcruntime:undname.obj
 0002:00009b64       ??_C@_01PJKLJHI@?$HO@      00000001801deb64     libvcruntime:undname.obj
 0002:00009b68       ??_C@_01JKBOJNNK@?$FO@     00000001801deb68     libvcruntime:undname.obj
 0002:00009b6c       ??_C@_01DNKMNLPK@?$HM@     00000001801deb6c     libvcruntime:undname.obj
 0002:00009b70       ??_C@_02PPKAJPJL@?$CG?$CG@ 00000001801deb70     libvcruntime:undname.obj
 0002:00009b74       ??_C@_02NONPIBCD@?$HM?$HM@ 00000001801deb74     libvcruntime:undname.obj
 0002:00009b78       ??_C@_02FPIMKNGF@?$CK?$DN@ 00000001801deb78     libvcruntime:undname.obj
 0002:00009b7c       ??_C@_02FOEOMHFC@?$CL?$DN@ 00000001801deb7c     libvcruntime:undname.obj
 0002:00009b80       ??_C@_02FKMDLLOA@?9?$DN@   00000001801deb80     libvcruntime:undname.obj
 0002:00009b84       ??_C@_02FJEHGPIO@?1?$DN@   00000001801deb84     libvcruntime:undname.obj
 0002:00009b88       ??_C@_02FENAOKFI@?$CF?$DN@ 00000001801deb88     libvcruntime:undname.obj
 0002:00009b8c       ??_C@_03IKFCCPFF@?$DO?$DO?$DN@ 00000001801deb8c     libvcruntime:undname.obj
 0002:00009b90       ??_C@_03CDNPDDLA@?$DM?$DM?$DN@ 00000001801deb90     libvcruntime:undname.obj
 0002:00009b94       ??_C@_02FGJGFEAB@?$CG?$DN@ 00000001801deb94     libvcruntime:undname.obj
 0002:00009b98       ??_C@_02DHLNPPGH@?$HM?$DN@ 00000001801deb98     libvcruntime:undname.obj
 0002:00009b9c       ??_C@_02MHEGNOJ@?$FO?$DN@  00000001801deb9c     libvcruntime:undname.obj
 0002:00009ba0       ??_C@_09IFPLHPGF@?$GAvftable?8@ 00000001801deba0     libvcruntime:undname.obj
 0002:00009bb0       ??_C@_09BLBHBJP@?$GAvbtable?8@ 00000001801debb0     libvcruntime:undname.obj
 0002:00009bc0       ??_C@_07FEEIOKP@?$GAvcall?8@ 00000001801debc0     libvcruntime:undname.obj
 0002:00009bc8       ??_C@_08LLFFHHDJ@?$GAtypeof?8@ 00000001801debc8     libvcruntime:undname.obj
 0002:00009bd8       ??_C@_0BF@KDPPACIK@?$GAlocal?5static?5guard?8@ 00000001801debd8     libvcruntime:undname.obj
 0002:00009bf0       ??_C@_08OBABFOLI@?$GAstring?8@ 00000001801debf0     libvcruntime:undname.obj
 0002:00009c00       ??_C@_0BD@JDLKDPAB@?$GAvbase?5destructor?8@ 00000001801dec00     libvcruntime:undname.obj
 0002:00009c18       ??_C@_0BN@DEGPLNFK@?$GAvector?5deleting?5destructor?8@ 00000001801dec18     libvcruntime:undname.obj
 0002:00009c38       ??_C@_0BO@OBMKPJIG@?$GAdefault?5constructor?5closure?8@ 00000001801dec38     libvcruntime:undname.obj
 0002:00009c58       ??_C@_0BN@IMDCHIKM@?$GAscalar?5deleting?5destructor?8@ 00000001801dec58     libvcruntime:undname.obj
 0002:00009c78       ??_C@_0BO@PFGOCPJJ@?$GAvector?5constructor?5iterator?8@ 00000001801dec78     libvcruntime:undname.obj
 0002:00009c98       ??_C@_0BN@LFPFMEDL@?$GAvector?5destructor?5iterator?8@ 00000001801dec98     libvcruntime:undname.obj
 0002:00009cb8       ??_C@_0CE@IKBNEHA@?$GAvector?5vbase?5constructor?5itera@ 00000001801decb8     libvcruntime:undname.obj
 0002:00009ce0       ??_C@_0BL@NILFHHPC@?$GAvirtual?5displacement?5map?8@ 00000001801dece0     libvcruntime:undname.obj
 0002:00009d00       ??_C@_0CB@JONCMFFK@?$GAeh?5vector?5constructor?5iterator@ 00000001801ded00     libvcruntime:undname.obj
 0002:00009d28       ??_C@_0CA@GCEOPDGL@?$GAeh?5vector?5destructor?5iterator?8@ 00000001801ded28     libvcruntime:undname.obj
 0002:00009d48       ??_C@_0CH@OOJPLCPH@?$GAeh?5vector?5vbase?5constructor?5it@ 00000001801ded48     libvcruntime:undname.obj
 0002:00009d70       ??_C@_0BL@LLKPOHJI@?$GAcopy?5constructor?5closure?8@ 00000001801ded70     libvcruntime:undname.obj
 0002:00009d90       ??_C@_0BA@KBCDOMBN@?$GAudt?5returning?8@ 00000001801ded90     libvcruntime:undname.obj
 0002:00009da0       ??_C@_03KLGMFNMG@?$GAEH@   00000001801deda0     libvcruntime:undname.obj
 0002:00009da4       ??_C@_05KHLCHHI@?$GARTTI@  00000001801deda4     libvcruntime:undname.obj
 0002:00009db0       ??_C@_0BA@KKLDJDLB@?$GAlocal?5vftable?8@ 00000001801dedb0     libvcruntime:undname.obj
 0002:00009dc0       ??_C@_0CE@IIHCMGGL@?$GAlocal?5vftable?5constructor?5clos@ 00000001801dedc0     libvcruntime:undname.obj
 0002:00009de4       ??_C@_06FHBGPFGH@?5new?$FL?$FN@ 00000001801dede4     libvcruntime:undname.obj
 0002:00009df0       ??_C@_09LBNFPBCA@?5delete?$FL?$FN@ 00000001801dedf0     libvcruntime:undname.obj
 0002:00009e00       ??_C@_0P@HJKNJFNN@?$GAomni?5callsig?8@ 00000001801dee00     libvcruntime:undname.obj
 0002:00009e10       ??_C@_0BL@CNOONJFP@?$GAplacement?5delete?5closure?8@ 00000001801dee10     libvcruntime:undname.obj
 0002:00009e30       ??_C@_0BN@CKNJLHMB@?$GAplacement?5delete?$FL?$FN?5closure?8@ 00000001801dee30     libvcruntime:undname.obj
 0002:00009e50       ??_C@_0CG@CFDHKGGD@?$GAmanaged?5vector?5constructor?5ite@ 00000001801dee50     libvcruntime:undname.obj
 0002:00009e78       ??_C@_0CF@IMGKMJNO@?$GAmanaged?5vector?5destructor?5iter@ 00000001801dee78     libvcruntime:undname.obj
 0002:00009ea0       ??_C@_0CG@HLDDJMAG@?$GAeh?5vector?5copy?5constructor?5ite@ 00000001801deea0     libvcruntime:undname.obj
 0002:00009ec8       ??_C@_0CM@FCBBDIGB@?$GAeh?5vector?5vbase?5copy?5construct@ 00000001801deec8     libvcruntime:undname.obj
 0002:00009ef8       ??_C@_0BL@CLIPGLGB@?$GAdynamic?5initializer?5for?5?8@ 00000001801deef8     libvcruntime:undname.obj
 0002:00009f18       ??_C@_0CB@PDBIFEP@?$GAdynamic?5atexit?5destructor?5for?5@ 00000001801def18     libvcruntime:undname.obj
 0002:00009f40       ??_C@_0CD@CGAJBKEJ@?$GAvector?5copy?5constructor?5iterat@ 00000001801def40     libvcruntime:undname.obj
 0002:00009f68       ??_C@_0CJ@GJELGAMM@?$GAvector?5vbase?5copy?5constructor?5@ 00000001801def68     libvcruntime:undname.obj
 0002:00009f98       ??_C@_0CL@FGIJHLCE@?$GAmanaged?5vector?5copy?5constructo@ 00000001801def98     libvcruntime:undname.obj
 0002:00009fc8       ??_C@_0BM@PMGGMLDN@?$GAlocal?5static?5thread?5guard?8@ 00000001801defc8     libvcruntime:undname.obj
 0002:00009fe8       ??_C@_0N@BDNMDMOL@operator?5?$CC?$CC?5@ 00000001801defe8     libvcruntime:undname.obj
 0002:00009ff8       ??_C@_0BC@GGEBGALA@operator?5co_await@ 00000001801deff8     libvcruntime:undname.obj
 0002:0000a010       ??_C@_0M@GAAIMMOH@operator?$DM?$DN?$DO@ 00000001801df010     libvcruntime:undname.obj
 0002:0000a020       ??_C@_0BC@DAFEJGAK@?5Type?5Descriptor?8@ 00000001801df020     libvcruntime:undname.obj
 0002:0000a038       ??_C@_0BM@LDKODKLH@?5Base?5Class?5Descriptor?5at?5?$CI@ 00000001801df038     libvcruntime:undname.obj
 0002:0000a058       ??_C@_0BD@LGICGFMM@?5Base?5Class?5Array?8@ 00000001801df058     libvcruntime:undname.obj
 0002:0000a070       ??_C@_0BN@MECKDCOJ@?5Class?5Hierarchy?5Descriptor?8@ 00000001801df070     libvcruntime:undname.obj
 0002:0000a090       ??_C@_0BK@CFCOFLF@?5Complete?5Object?5Locator?8@ 00000001801df090     libvcruntime:undname.obj
 0002:0000a0b0       ??_C@_0BG@JNJLAMPM@?$GAanonymous?5namespace?8@ 00000001801df0b0     libvcruntime:undname.obj
 0002:0000a0c8       ??_C@_04HEJADOOB@CV?3?5@   00000001801df0c8     libvcruntime:undname.obj
 0002:0000a0d0       ??_C@_02MOLJINC@?3?3@      00000001801df0d0     libvcruntime:undname.obj
 0002:0000a0d8       ??_C@_0BE@JAEOCHPE@template?9parameter?9@ 00000001801df0d8     libvcruntime:undname.obj
 0002:0000a0f0       ??_C@_0BF@LNLGBBNL@?$GAtemplate?9parameter?9@ 00000001801df0f0     libvcruntime:undname.obj
 0002:0000a108       ??_C@_0O@KHGCOMHP@generic?9type?9@ 00000001801df108     libvcruntime:undname.obj
 0002:0000a118       ??_C@_0P@ODDENDLM@?$GAgeneric?9type?9@ 00000001801df118     libvcruntime:undname.obj
 0002:0000a128       ??_C@_02OHHJMEON@?8?8@     00000001801df128     libvcruntime:undname.obj
 0002:0000a130       ??_C@_0BN@IBLMMFAP@?$GAnon?9type?9template?9parameter@ 00000001801df130     libvcruntime:undname.obj
 0002:0000a150       ??_C@_03DLDNIBIK@?$CFlf@   00000001801df150     libvcruntime:undname.obj
 0002:0000a154       ??_C@_04OFALKAJ@?$DP?$DP_C@ 00000001801df154     libvcruntime:undname.obj
 0002:0000a15c       ??_C@_03KHICJKCI@?4?4?4@   00000001801df15c     libvcruntime:undname.obj
 0002:0000a160       ??_C@_04HIBGFPH@NULL@      00000001801df160     libvcruntime:undname.obj
 0002:0000a168       ??_C@_02DPKJAMEF@?$CFd@    00000001801df168     libvcruntime:undname.obj
 0002:0000a170       ??_C@_0BK@IHCCFNEL@?$GAtemplate?9type?9parameter?9@ 00000001801df170     libvcruntime:undname.obj
 0002:0000a190       ??_C@_0BK@OFCNNNKO@?$GAgeneric?9class?9parameter?9@ 00000001801df190     libvcruntime:undname.obj
 0002:0000a1b0       ??_C@_0BL@NGJBLFIL@?$GAgeneric?9method?9parameter?9@ 00000001801df1b0     libvcruntime:undname.obj
 0002:0000a1d0       ??_C@_07OHNGEDJK@nullptr@  00000001801df1d0     libvcruntime:undname.obj
 0002:0000a1d8       ??_C@_06COJIGPIB@lambda@   00000001801df1d8     libvcruntime:undname.obj
 0002:0000a1e0       ??_C@_0BE@EODMJLIF@?$GAtemplate?9parameter@ 00000001801df1e0     libvcruntime:undname.obj
 0002:0000a1f4       ??_C@_03OPGICMGF@?$HN?8?5@ 00000001801df1f4     libvcruntime:undname.obj
 0002:0000a1f8       ??_C@_02IGFCGPIL@?$HN?8@   00000001801df1f8     libvcruntime:undname.obj
 0002:0000a200       ??_C@_0N@CBHHHENL@?$GAvtordispex?$HL@ 00000001801df200     libvcruntime:undname.obj
 0002:0000a210       ??_C@_0L@GHPFDFH@?$GAvtordisp?$HL@ 00000001801df210     libvcruntime:undname.obj
 0002:0000a220       ??_C@_0L@HNGCOGAE@?$GAadjustor?$HL@ 00000001801df220     libvcruntime:undname.obj
 0002:0000a230       ??_C@_0CB@KJDOOODE@?$GAlocal?5static?5destructor?5helper@ 00000001801df230     libvcruntime:undname.obj
 0002:0000a258       ??_C@_0DB@ILEFOCIJ@?$GAtemplate?5static?5data?5member?5co@ 00000001801df258     libvcruntime:undname.obj
 0002:0000a290       ??_C@_0DA@HGFJFBBE@?$GAtemplate?5static?5data?5member?5de@ 00000001801df290     libvcruntime:undname.obj
 0002:0000a2c0       ??_C@_07PGOEDBHP@static?5@ 00000001801df2c0     libvcruntime:undname.obj
 0002:0000a2c8       ??_C@_08NIEOINHE@virtual?5@ 00000001801df2c8     libvcruntime:undname.obj
 0002:0000a2d8       ??_C@_09LAPHOOG@private?3?5@ 00000001801df2d8     libvcruntime:undname.obj
 0002:0000a2e8       ??_C@_0M@GAIFPFIP@protected?3?5@ 00000001801df2e8     libvcruntime:undname.obj
 0002:0000a2f8       ??_C@_08GPDDCMKI@public?3?5@ 00000001801df2f8     libvcruntime:undname.obj
 0002:0000a308       ??_C@_08KJLFOPNE@?$FLthunk?$FN?3@ 00000001801df308     libvcruntime:undname.obj
 0002:0000a318       ??_C@_0M@DHNBOJMP@extern?5?$CCC?$CC?5@ 00000001801df318     libvcruntime:undname.obj
 0002:0000a324       ??_C@_02KCKGHPCA@?$CJ?5@   00000001801df324     libvcruntime:undname.obj
 0002:0000a328       ??_C@_05CIHEBHNO@char?5@   00000001801df328     libvcruntime:undname.obj
 0002:0000a330       ??_C@_06EHJMALKF@short?5@  00000001801df330     libvcruntime:undname.obj
 0002:0000a338       ??_C@_04LAHKHJMA@int?5@    00000001801df338     libvcruntime:undname.obj
 0002:0000a340       ??_C@_05CJIMAING@long?5@   00000001801df340     libvcruntime:undname.obj
 0002:0000a348       ??_C@_09EBBEKKIH@unsigned?5@ 00000001801df348     libvcruntime:undname.obj
 0002:0000a354       ??_C@_05BEFAKPML@void?5@   00000001801df354     libvcruntime:undname.obj
 0002:0000a360       ??_C@_09GAIEOBLP@volatile?5@ 00000001801df360     libvcruntime:undname.obj
 0002:0000a370       ??_C@_08PABEKFH@volatile@  00000001801df370     libvcruntime:undname.obj
 0002:0000a380       ??_C@_0BA@LKIJLKPP@std?3?3nullptr_t?5@ 00000001801df380     libvcruntime:undname.obj
 0002:0000a390       ??_C@_0P@GCOCNKDM@std?3?3nullptr_t@ 00000001801df390     libvcruntime:undname.obj
 0002:0000a3a0       ??_C@_0L@EGPHHEKN@?$DMellipsis?$DO@ 00000001801df3a0     libvcruntime:undname.obj
 0002:0000a3ac       ??_C@_04EENFHACM@?0?4?4?4@ 00000001801df3ac     libvcruntime:undname.obj
 0002:0000a3b8       ??_C@_0M@ELJOJFFH@?0?$DMellipsis?$DO@ 00000001801df3b8     libvcruntime:undname.obj
 0002:0000a3c8       ??_C@_09DNHFEOJI@?5noexcept@ 00000001801df3c8     libvcruntime:undname.obj
 0002:0000a3d4       ??_C@_03PBJBJNON@cpu@      00000001801df3d4     libvcruntime:undname.obj
 0002:0000a3d8       ??_C@_03DCBBJBAA@amp@      00000001801df3d8     libvcruntime:undname.obj
 0002:0000a3dc       ??_C@_02KEGNLNML@?0?5@     00000001801df3dc     libvcruntime:undname.obj
 0002:0000a3e0       ??_C@_04ENMBGAPA@char@     00000001801df3e0     libvcruntime:undname.obj
 0002:0000a3e8       ??_C@_05BFKKPKCG@short@    00000001801df3e8     libvcruntime:undname.obj
 0002:0000a3f0       ??_C@_03JBIPMCLC@int@      00000001801df3f0     libvcruntime:undname.obj
 0002:0000a3f4       ??_C@_04GOKPGOLB@long@     00000001801df3f4     libvcruntime:undname.obj
 0002:0000a3fc       ??_C@_06BNJCAIGJ@double@   00000001801df3fc     libvcruntime:undname.obj
 0002:0000a404       ??_C@_06EBGKOKIG@__int8@   00000001801df404     libvcruntime:undname.obj
 0002:0000a410       ??_C@_07ICFHOGAF@__int16@  00000001801df410     libvcruntime:undname.obj
 0002:0000a418       ??_C@_07OFLPPHGP@__int32@  00000001801df418     libvcruntime:undname.obj
 0002:0000a420       ??_C@_07LFCOJCAC@__int64@  00000001801df420     libvcruntime:undname.obj
 0002:0000a428       ??_C@_08GAHOLHEO@__int128@ 00000001801df428     libvcruntime:undname.obj
 0002:0000a438       ??_C@_09EEKGDCPH@?$DMunknown?$DO@ 00000001801df438     libvcruntime:undname.obj
 0002:0000a448       ??_C@_07CFHGOPCN@char8_t@  00000001801df448     libvcruntime:undname.obj
 0002:0000a450       ??_C@_08HBIPOFJB@char16_t@ 00000001801df450     libvcruntime:undname.obj
 0002:0000a460       ??_C@_08IECNCBKG@char32_t@ 00000001801df460     libvcruntime:undname.obj
 0002:0000a470       ??_C@_07CLGGIAMF@wchar_t@  00000001801df470     libvcruntime:undname.obj
 0002:0000a478       ??_C@_04HAPDLBFF@auto@     00000001801df478     libvcruntime:undname.obj
 0002:0000a480       ??_C@_0P@LHCGKIGK@decltype?$CIauto?$CJ@ 00000001801df480     libvcruntime:undname.obj
 0002:0000a490       ??_C@_05PCNBGHCF@this?5@   00000001801df490     libvcruntime:undname.obj
 0002:0000a498       ??_C@_06GCICPBLB@__w64?5@  00000001801df498     libvcruntime:undname.obj
 0002:0000a4a0       ??_C@_07NFANNNEC@UNKNOWN@  00000001801df4a0     libvcruntime:undname.obj
 0002:0000a4a8       ??_C@_07EDHNAJHC@signed?5@ 00000001801df4a8     libvcruntime:undname.obj
 0002:0000a4b0       ??_C@_05BNCCCJPP@const@    00000001801df4b0     libvcruntime:undname.obj
 0002:0000a4b8       ??_C@_09EFNPDFFP@?5volatile@ 00000001801df4b8     libvcruntime:undname.obj
 0002:0000a4c8       ??_C@_0P@GCIFDJCJ@?$GAunknown?5ecsu?8@ 00000001801df4c8     libvcruntime:undname.obj
 0002:0000a4d8       ??_C@_06MOJHIBMG@union?5@  00000001801df4d8     libvcruntime:undname.obj
 0002:0000a4e0       ??_C@_07DIBCDNGL@struct?5@ 00000001801df4e0     libvcruntime:undname.obj
 0002:0000a4e8       ??_C@_06LJBABKPM@class?5@  00000001801df4e8     libvcruntime:undname.obj
 0002:0000a4f0       ??_C@_08KOFANOFK@coclass?5@ 00000001801df4f0     libvcruntime:undname.obj
 0002:0000a500       ??_C@_0N@DLIEFKNA@cointerface?5@ 00000001801df500     libvcruntime:undname.obj
 0002:0000a510       ??_C@_05LJGMCFOG@enum?5@   00000001801df510     libvcruntime:undname.obj
 0002:0000a518       ??_C@_06LIJLOJAG@const?5@  00000001801df518     libvcruntime:undname.obj
 0002:0000a520       ??_C@_02KJPKDIBN@?$CG?5@   00000001801df520     libvcruntime:undname.obj
 0002:0000a524       ??_C@_03PCKGMOPB@?$CG?$CG?5@ 00000001801df524     libvcruntime:undname.obj
 0002:0000a528       ??_C@_0M@EALIELKG@cli?3?3array?$DM@ 00000001801df528     libvcruntime:undname.obj
 0002:0000a538       ??_C@_0O@GKABPPIF@cli?3?3pin_ptr?$DM@ 00000001801df538     libvcruntime:undname.obj
 0002:0000a548       ??_C@_02GOGNNPBN@?$CJ?$FL@ 00000001801df548     libvcruntime:undname.obj
 0002:0000a54c       ??_C@_06EEGAIFAK@?$HLflat?$HN@ 00000001801df54c     libvcruntime:undname.obj
 0002:0000a554       ??_C@_05JIBOFOHK@?$HLfor?5@ 00000001801df554     libvcruntime:undname.obj
 0002:0000a55c       ??_C@_02MDINNEEG@s?5@      00000001801df55c     libvcruntime:undname.obj
 0002:0000a568       ??_7charNode@@6B@          00000001801df568     libvcruntime:undname.obj
 0002:0000a590       ??_7pcharNode@@6B@         00000001801df590     libvcruntime:undname.obj
 0002:0000a5b8       ??_7pDNameNode@@6B@        00000001801df5b8     libvcruntime:undname.obj
 0002:0000a5e0       ??_7DNameStatusNode@@6B@   00000001801df5e0     libvcruntime:undname.obj
 0002:0000a608       ??_7pairNode@@6B@          00000001801df608     libvcruntime:undname.obj
 0002:0000a730       ??_C@_04OKOHEJBO@?5?$DP?$DP?5@ 00000001801df730     libvcruntime:undname.obj
 0002:0000a740       ?nodes@?1??make@DNameStatusNode@@SAPEBV2@W4DNameStatus@@@Z@4QBV2@B 00000001801df740     libvcruntime:undname.obj
 0002:0000a780       ?s_negLengthTab@FH4@@3QBCB 00000001801df780     libvcruntime:risctrnsctrl.obj
 0002:0000a790       ?s_shiftTab@FH4@@3QBEB     00000001801df790     libvcruntime:risctrnsctrl.obj
 0002:0000a8f0       ??_C@_1DM@KHCHBNEB@?$AAa?$AAp?$AAi?$AA?9?$AAm?$AAs?$AA?9?$AAw?$AAi?$AAn?$AA?9?$AAc?$AAo?$AAr?$AAe@ 00000001801df8f0     libvcruntime:winapi_downlevel.obj
 0002:0000a930       ??_C@_1DK@LPPGFMPP@?$AAa?$AAp?$AAi?$AA?9?$AAm?$AAs?$AA?9?$AAw?$AAi?$AAn?$AA?9?$AAc?$AAo?$AAr?$AAe@ 00000001801df930     libvcruntime:winapi_downlevel.obj
 0002:0000a970       ??_C@_1BC@GDMECMAK@?$AAk?$AAe?$AAr?$AAn?$AAe?$AAl?$AA3?$AA2@ 00000001801df970     libvcruntime:winapi_downlevel.obj
 0002:0000a988       ??_C@_1BA@PFFKHIOG@?$AAa?$AAp?$AAi?$AA?9?$AAm?$AAs?$AA?9@ 00000001801df988     libvcruntime:winapi_downlevel.obj
 0002:0000a9a0       ??_C@_08KNHFBNJ@FlsAlloc@  00000001801df9a0     libvcruntime:winapi_downlevel.obj
 0002:0000a9b8       ??_C@_07PEJMOBNF@FlsFree@  00000001801df9b8     libvcruntime:winapi_downlevel.obj
 0002:0000a9c8       ??_C@_0M@GDNOONDI@FlsGetValue@ 00000001801df9c8     libvcruntime:winapi_downlevel.obj
 0002:0000a9e0       ??_C@_0M@JCPCPOEF@FlsSetValue@ 00000001801df9e0     libvcruntime:winapi_downlevel.obj
 0002:0000a9f8       ??_C@_0BM@HCFOFFN@InitializeCriticalSectionEx@ 00000001801df9f8     libvcruntime:winapi_downlevel.obj
 0002:0000aa20       ??_7exception@std@@6B@     00000001801dfa20     libvcruntime:frame.obj
 0002:0000aa30       ??_C@_0BC@EOODALEL@Unknown?5exception@ 00000001801dfa30     libvcruntime:frame.obj
 0002:0000aa50       ??_7bad_exception@std@@6B@ 00000001801dfa50     libvcruntime:frame.obj
 0002:0000aa60       ??_C@_0O@DPKOEFFH@bad?5exception@ 00000001801dfa60     libvcruntime:frame.obj
 0002:0000adb0       ?standard_lookup_table_spectre@__crt_stdio_output@@3V?$spectre_mitigated_lookup_table@Ustate_transition_pair@__crt_stdio_output@@$0IA@@1@B 00000001801dfdb0     libucrt:output.obj
 0002:0000aeb0       ?format_validation_lookup_table_spectre@__crt_stdio_output@@3V?$spectre_mitigated_lookup_table@Ustate_transition_pair@__crt_stdio_output@@$0IA@@1@B 00000001801dfeb0     libucrt:output.obj
 0002:0000afb0       ??_C@_1O@CEDCILHN@?$AA?$CI?$AAn?$AAu?$AAl?$AAl?$AA?$CJ@ 00000001801dffb0     libucrt:output.obj
 0002:0000afc0       ??_C@_06OJHGLDPL@?$CInull?$CJ@ 00000001801dffc0     libucrt:output.obj
 0002:0000c058       __real@3f1a36e2eb1c432d    00000001801e1058     libucrt:atan2f.obj
 0002:0000c060       __real@3fb0000000000000    00000001801e1060     libucrt:atan2f.obj
 0002:0000c068       __real@3fc2492482bd6be1    00000001801e1068     libucrt:atan2f.obj
 0002:0000c070       __real@3fc99999999643a3    00000001801e1070     libucrt:atan2f.obj
 0002:0000c078       __real@3fd5555555550877    00000001801e1078     libucrt:atan2f.obj
 0002:0000c080       __real@3fd5555555555538    00000001801e1080     libucrt:atan2f.obj
 0002:0000c088       __real@3ff921fb54442d18    00000001801e1088     libucrt:atan2f.obj
 0002:0000c090       __real@400921fb54442d18    00000001801e1090     libucrt:atan2f.obj
 0002:0000c098       __real@4070000000000000    00000001801e1098     libucrt:atan2f.obj
 0002:0000c0a0       __real@bf490fdb            00000001801e10a0     libucrt:atan2f.obj
 0002:0000c0a4       __real@bfc90fdb            00000001801e10a4     libucrt:atan2f.obj
 0002:0000c0a8       __real@c016cbe4            00000001801e10a8     libucrt:atan2f.obj
 0002:0000c0ac       __real@c0490fdb            00000001801e10ac     libucrt:atan2f.obj
 0002:0000c0b0       ??_C@_05FFFCHCED@acosf@    00000001801e10b0     libucrt:acosf.obj
 0002:0000c0b8       __real@3b81ce6b            00000001801e10b8     libucrt:acosf.obj
 0002:0000c0c0       __real@3c91a62633145c07    00000001801e10c0     libucrt:acosf.obj
 0002:0000c0c8       __real@3d678bdd            00000001801e10c8     libucrt:acosf.obj
 0002:0000c0cc       __real@3e3c94dc            00000001801e10cc     libucrt:acosf.obj
 0002:0000c0d0       __real@3f561f0d            00000001801e10d0     libucrt:acosf.obj
 0002:0000c0d4       __real@3f8d6fa5            00000001801e10d4     libucrt:acosf.obj
 0002:0000c0d8       __real@bc5b3fe1            00000001801e10d8     libucrt:acosf.obj
 0002:0000c0e0       __acrt_exception_action_table 00000001801e10e0     libucrt:exception_filter.obj
 0002:0000c1a0       __acrt_signal_action_table_count 00000001801e11a0     libucrt:exception_filter.obj
 0002:0000c1a8       __acrt_signal_action_first_fpe_index 00000001801e11a8     libucrt:exception_filter.obj
 0002:0000c1b0       __acrt_signal_action_fpe_count 00000001801e11b0     libucrt:exception_filter.obj
