 PhysXCommon_64

 Timestamp is 64244985 (Wed Mar 29 16:21:57 2023)

 Preferred load address is 0000000180000000

 Start         Length     Name                   Class
 0001:00000000 000032f0H .text$di                CODE
 0001:000032f0 001ce3c0H .text$mn                CODE
 0001:001d16b0 00000040H .text$mn$00             CODE
 0001:001d16f0 00000680H .text$x                 CODE
 0001:001d1d70 0000000fH .text$yd                CODE
 0002:00000000 00000288H .idata$5                DATA
 0002:00000288 00000038H .00cfg                  DATA
 0002:000002c0 00000008H .CRT$XCA                DATA
 0002:000002c8 000018b0H .CRT$XCU                DATA
 0002:00001b78 00000008H .CRT$XCZ                DATA
 0002:00001b80 00000008H .CRT$XIA                DATA
 0002:00001b88 00000018H .CRT$XIC                DATA
 0002:00001ba0 00000008H .CRT$XIZ                DATA
 0002:00001ba8 00000008H .CRT$XPA                DATA
 0002:00001bb0 00000010H .CRT$XPX                DATA
 0002:00001bc0 00000008H .CRT$XPXA               DATA
 0002:00001bc8 00000008H .CRT$XPZ                DATA
 0002:00001bd0 00000008H .CRT$XTA                DATA
 0002:00001bd8 00000008H .CRT$XTZ                DATA
 0002:00001be0 00000000H .gehcont$y              DATA
 0002:00001be0 00000000H .gfids$y                DATA
 0002:00001be0 000116a0H .rdata                  DATA
 0002:00013280 00000000H .rdata$CastGuardVftablesA DATA
 0002:00013280 00000000H .rdata$CastGuardVftablesC DATA
 0002:00013280 0000043cH .rdata$r                DATA
 0002:000136bc 00000234H .rdata$voltmd           DATA
 0002:000138f0 00000440H .rdata$zzzdbg           DATA
 0002:00013d30 00000008H .rtc$IAA                DATA
 0002:00013d38 00000008H .rtc$IZZ                DATA
 0002:00013d40 00000008H .rtc$TAA                DATA
 0002:00013d48 00000008H .rtc$TZZ                DATA
 0002:00013d50 000147f8H .xdata                  DATA
 0002:00028548 00000084H .xdata$x                DATA
 0002:000285cc 00000020H .didat$2                DATA
 0002:000285ec 00000024H .didat$3                DATA
 0002:00028610 000000c0H .didat$4                DATA
 0002:000286d0 000003f8H .didat$6                DATA
 0002:00028ac8 000000c8H .didat$7                DATA
 0002:00028b90 0000c3e4H .edata                  DATA
 0002:00034f74 00000014H .idata$2                DATA
 0002:00034f88 00000018H .idata$3                DATA
 0002:00034fa0 00000288H .idata$4                DATA
 0002:00035228 000005caH .idata$6                DATA
 0003:00000000 00001c40H .data                   DATA
 0003:00001c40 000010e0H .data$r                 DATA
 0003:00002d20 000000f0H .data$rs                DATA
 0003:00002e10 000000c0H .didat$5                DATA
 0003:00002ed0 000043dcH .bss                    DATA
 0004:00000000 0000c0a8H .pdata                  DATA
 0005:00000000 0000236cH _RDATA                  DATA
 0006:00000000 000000a0H .rsrc$01                DATA
 0006:000000a0 000004b0H .rsrc$02                DATA

  Address         Publics by Value              Rva+Base               Lib:Object

 0000:00000000       __AbsoluteZero             0000000000000000     <absolute>
 0000:00000000       ___safe_se_handler_count   0000000000000000     <absolute>
 0000:00000000       ___safe_se_handler_table   0000000000000000     <absolute>
 0000:00000000       __arm64x_extra_rfe_table   0000000000000000     <absolute>
 0000:00000000       __arm64x_extra_rfe_table_size 0000000000000000     <absolute>
 0000:00000000       __arm64x_native_entrypoint 0000000000000000     <absolute>
 0000:00000000       __arm64x_redirection_metadata 0000000000000000     <absolute>
 0000:00000000       __arm64x_redirection_metadata_count 0000000000000000     <absolute>
 0000:00000000       __dynamic_value_reloc_table 0000000000000000     <absolute>
 0000:00000000       __enclave_config           0000000000000000     <absolute>
 0000:00000000       __guard_check_icall_a64n_fptr 0000000000000000     <absolute>
 0000:00000000       __guard_eh_cont_count      0000000000000000     <absolute>
 0000:00000000       __guard_eh_cont_table      0000000000000000     <absolute>
 0000:00000000       __guard_fids_count         0000000000000000     <absolute>
 0000:00000000       __guard_fids_table         0000000000000000     <absolute>
 0000:00000000       __guard_iat_count          0000000000000000     <absolute>
 0000:00000000       __guard_iat_table          0000000000000000     <absolute>
 0000:00000000       __guard_longjmp_count      0000000000000000     <absolute>
 0000:00000000       __guard_longjmp_table      0000000000000000     <absolute>
 0000:00000000       __hybrid_auxiliary_iat     0000000000000000     <absolute>
 0000:00000000       __hybrid_auxiliary_iat_copy 0000000000000000     <absolute>
 0000:00000000       __hybrid_code_map          0000000000000000     <absolute>
 0000:00000000       __hybrid_code_map_count    0000000000000000     <absolute>
 0000:00000000       __x64_code_ranges_to_entry_points 0000000000000000     <absolute>
 0000:00000000       __x64_code_ranges_to_entry_points_count 0000000000000000     <absolute>
 0000:00000100       __guard_flags              0000000000000100     <absolute>
 0000:00000000       __ImageBase                0000000180000000     <linker-defined>
 0001:000032f0       ??0PtrTable@Cm@physx@@QEAA@W4PxEMPTY@2@@Z 00000001800042f0 f i CmPtrTable.obj
 0001:00003310       ??0PtrTable@Cm@physx@@QEAA@XZ 0000000180004310 f   CmPtrTable.obj
 0001:00003320       ??1AABBTreeBuildNode@Gu@physx@@QEAA@XZ 0000000180004320 f   GuMeshFactory.obj
 0001:00003320       ??1BigConvexDataBuilder@physx@@QEAA@XZ 0000000180004320 f   GuCookingBigConvexDataBuilder.obj
 0001:00003320       ??1Box@Gu@physx@@QEAA@XZ   0000000180004320 f   GuBox.obj
 0001:00003320       ??1HeightFieldData@Gu@physx@@QEAA@XZ 0000000180004320 f   GuCCTSweepTests.obj
 0001:00003320       ??1PtrTable@Cm@physx@@QEAA@XZ 0000000180004320 f   CmPtrTable.obj
 0001:00003320       ?build@CompanionPrunerIncremental@@UEAAXXZ 0000000180004320 f   GuSecondaryPruner.obj
 0001:00003320       ?checkTreeLeaf@IncrementalAABBTree@Gu@physx@@QEAAXPEAVIncrementalAABBTreeNode@23@I@Z 0000000180004320 f   GuIncrementalAABBTree.obj
 0001:00003320       ?execute@?$PxThreadT@V?$PxReflectionAllocator@VPxThreadImpl@physx@@@physx@@@physx@@UEAAXXZ 0000000180004320 f   GuSDF.obj
 0001:00003320       ?execute@PxRunnable@physx@@UEAAXXZ 0000000180004320 f   GuSDF.obj
 0001:00003320       ?merge@BucketPruner@Gu@physx@@UEAAXPEBX@Z 0000000180004320 f   GuBucketPruner.obj
 0001:00003320       ?merge@IncrementalAABBPruner@Gu@physx@@UEAAXPEBX@Z 0000000180004320 f   GuIncrementalAABBPruner.obj
 0001:00003320       ?onMeshIndexFormatChange@TriangleMeshBuilder@physx@@UEAAXXZ 0000000180004320 f   GuCookingTriangleMesh.obj
 0001:00003320       ?profile@Callback@RTree@Gu@physx@@UEAAXXZ 0000000180004320 f   GuMidphaseRTree.obj
 0001:00003320       ?purge@BucketPruner@Gu@physx@@UEAAXXZ 0000000180004320 f   GuBucketPruner.obj
 0001:00003320       ?requiresObjects@ConvexMesh@Gu@physx@@UEAAXAEAVPxProcessPxBaseCallback@3@@Z 0000000180004320 f   GuConvexMesh.obj
 0001:00003320       ?requiresObjects@HeightField@Gu@physx@@UEAAXAEAVPxProcessPxBaseCallback@3@@Z 0000000180004320 f   GuHeightField.obj
 0001:00003320       ?requiresObjects@SoftBodyMesh@Gu@physx@@UEAAXAEAVPxProcessPxBaseCallback@3@@Z 0000000180004320 f   GuTetrahedronMesh.obj
 0001:00003320       ?requiresObjects@TriangleMesh@Gu@physx@@UEAAXAEAVPxProcessPxBaseCallback@3@@Z 0000000180004320 f   GuTriangleMesh.obj
 0001:00003320       ?swapIndex@CompanionPrunerAABBTree@@UEAAXII@Z 0000000180004320 f   GuSecondaryPruner.obj
 0001:00003320       ?swapIndex@CompanionPrunerBucket@@UEAAXII@Z 0000000180004320 f   GuSecondaryPruner.obj
 0001:00003320       ?timeStampChange@CompanionPrunerAABBTree@@UEAAXXZ 0000000180004320 f   GuSecondaryPruner.obj
 0001:00003320       ?timeStampChange@CompanionPrunerBucket@@UEAAXXZ 0000000180004320 f   GuSecondaryPruner.obj
 0001:00003320       ?visualize@BasePruner@Gu@physx@@UEBAXAEAVPxRenderOutput@3@II@Z 0000000180004320 f   GuIncrementalAABBPruner.obj
 0001:00003320       _guard_check_icall_nop     0000000180004320 f   LIBCMT:guard_support.obj
 0001:00003330       ??4AABBTreeBounds@Gu@physx@@QEAAAEAV012@AEBV012@@Z 0000000180004330 f i GuMeshFactory.obj
 0001:00003330       ??4CmModuleUpdateLoader@Cm@physx@@QEAAAEAV012@AEBV012@@Z 0000000180004330 f i CmWindowsModuleUpdateLoader.obj
 0001:00003330       ??4PtrTable@Cm@physx@@QEAAAEAU012@AEBU012@@Z 0000000180004330 f i CmPtrTable.obj
 0001:00003340       ?add@PtrTable@Cm@physx@@QEAAXPEAXAEAVPtrTableStorageManager@23@@Z 0000000180004340 f   CmPtrTable.obj
 0001:00003450       ?clear@PtrTable@Cm@physx@@QEAAXAEAVPtrTableStorageManager@23@@Z 0000000180004450 f   CmPtrTable.obj
 0001:000034c0       ?exportExtraData@PtrTable@Cm@physx@@QEAAXAEAVPxSerializationContext@3@@Z 00000001800044c0 f   CmPtrTable.obj
 0001:00003510       ?find@PtrTable@Cm@physx@@QEBAIPEBX@Z 0000000180004510 f   CmPtrTable.obj
 0001:00003540       ?getBinaryMetaData@PtrTable@Cm@physx@@SAXAEAVPxOutputStream@3@@Z 0000000180004540 f   CmPtrTable.obj
 0001:00003730       ?getCount@PtrTable@Cm@physx@@QEBAIXZ 0000000180004730 f i CmPtrTable.obj
 0001:00003740       ?getPtrs@PtrTable@Cm@physx@@QEAAPEAPEAXXZ 0000000180004740 f i CmPtrTable.obj
 0001:00003740       ?getPtrs@PtrTable@Cm@physx@@QEBAPEBQEAXXZ 0000000180004740 f i CmPtrTable.obj
 0001:00003750       ?importExtraData@PtrTable@Cm@physx@@QEAAXAEAVPxDeserializationContext@3@@Z 0000000180004750 f   CmPtrTable.obj
 0001:00003780       ?realloc@PtrTable@Cm@physx@@AEAAXIIAEAVPtrTableStorageManager@23@@Z 0000000180004780 f   CmPtrTable.obj
 0001:00003810       ?replaceWithLast@PtrTable@Cm@physx@@QEAAXIAEAVPtrTableStorageManager@23@@Z 0000000180004810 f   CmPtrTable.obj
 0001:00003910       ??_ECollection@Cm@physx@@UEAAPEAXI@Z 0000000180004910 f i CmCollection.obj
 0001:00003910       ??_GCollection@Cm@physx@@UEAAPEAXI@Z 0000000180004910 f i CmCollection.obj
 0001:000039c0       ??_EPxCollection@physx@@MEAAPEAXI@Z 00000001800049c0 f i CmCollection.obj
 0001:000039c0       ??_GPxCollection@physx@@MEAAPEAXI@Z 00000001800049c0 f i CmCollection.obj
 0001:000039f0       ?add@Collection@Cm@physx@@UEAAXAEAVPxBase@3@_K@Z 00000001800049f0 f   CmCollection.obj
 0001:00003ae0       ?add@Collection@Cm@physx@@UEAAXAEAVPxCollection@3@@Z 0000000180004ae0 f   CmCollection.obj
 0001:00003c80       ?addId@Collection@Cm@physx@@UEAAXAEAVPxBase@3@_K@Z 0000000180004c80 f   CmCollection.obj
 0001:00003db0       ?contains@Collection@Cm@physx@@UEBA_NAEAVPxBase@3@@Z 0000000180004db0 f   CmCollection.obj
 0001:00003e60       ?create@?$PxHashBase@V?$PxPair@$$CB_KPEAVPxBase@physx@@@physx@@_KU?$PxHash@_K@2@UGetKey@?$PxHashMapBase@_KPEAVPxBase@physx@@U?$PxHash@_K@2@VPxAllocator@2@@2@VPxAllocator@2@$00@physx@@QEAAPEAV?$PxPair@$$CB_KPEAVPxBase@physx@@@2@AEB_KAEA_N@Z 0000000180004e60 f i CmCollection.obj
 0001:00003e60       ?create@?$PxHashBase@V?$PxPair@QEAVPxBase@physx@@_K@physx@@PEAVPxBase@2@U?$PxHash@PEAVPxBase@physx@@@2@UGetKey@?$PxHashMapBase@PEAVPxBase@physx@@_KU?$PxHash@PEAVPxBase@physx@@@2@VPxAllocator@2@@2@VPxAllocator@2@$00@physx@@QEAAPEAV?$PxPair@QEAVPxBase@physx@@_K@2@AEBQEAVPxBase@2@AEA_N@Z 0000000180004e60 f i CmCollection.obj
 0001:00003ff0       ?erase@?$PxHashBase@V?$PxPair@$$CB_KPEAVPxBase@physx@@@physx@@_KU?$PxHash@_K@2@UGetKey@?$PxHashMapBase@_KPEAVPxBase@physx@@U?$PxHash@_K@2@VPxAllocator@2@@2@VPxAllocator@2@$00@physx@@QEAA_NAEB_K@Z 0000000180004ff0 f i CmCollection.obj
 0001:00003ff0       ?erase@?$PxHashBase@V?$PxPair@QEAVPxBase@physx@@_K@physx@@PEAVPxBase@2@U?$PxHash@PEAVPxBase@physx@@@2@UGetKey@?$PxHashMapBase@PEAVPxBase@physx@@_KU?$PxHash@PEAVPxBase@physx@@@2@VPxAllocator@2@@2@VPxAllocator@2@$00@physx@@QEAA_NAEBQEAVPxBase@2@@Z 0000000180004ff0 f i CmCollection.obj
 0001:000041a0       ?find@?$PxHashMapBase@_KPEAVPxBase@physx@@U?$PxHash@_K@2@VPxAllocator@2@@physx@@QEBAPEBV?$PxPair@$$CB_KPEAVPxBase@physx@@@2@AEB_K@Z 00000001800051a0 f i CmCollection.obj
 0001:00004240       ?find@Collection@Cm@physx@@UEBAPEAVPxBase@3@_K@Z 0000000180005240 f   CmCollection.obj
 0001:00004270       ?getId@Collection@Cm@physx@@UEBA_KAEBVPxBase@3@@Z 0000000180005270 f   CmCollection.obj
 0001:00004320       ?getIds@Collection@Cm@physx@@UEBAIPEA_KII@Z 0000000180005320 f   CmCollection.obj
 0001:000043f0       ?getNbIds@Collection@Cm@physx@@UEBAIXZ 00000001800053f0 f   CmCollection.obj
 0001:00004400       ?getNbObjects@Collection@Cm@physx@@UEBAIXZ 0000000180005400 f   CmCollection.obj
 0001:00004410       ?getObject@Collection@Cm@physx@@UEBAAEAVPxBase@3@I@Z 0000000180005410 f   CmCollection.obj
 0001:00004420       ?getObjects@Collection@Cm@physx@@UEBAIPEAPEAVPxBase@3@II@Z 0000000180005420 f   CmCollection.obj
 0001:00004460       ?release@Collection@Cm@physx@@UEAAXXZ 0000000180005460 f i CmCollection.obj
 0001:00004480       ?remove@Collection@Cm@physx@@UEAAXAEAVPxBase@3@@Z 0000000180005480 f   CmCollection.obj
 0001:00004570       ?remove@Collection@Cm@physx@@UEAAXAEAVPxCollection@3@@Z 0000000180005570 f   CmCollection.obj
 0001:00004680       ?removeId@Collection@Cm@physx@@UEAAX_K@Z 0000000180005680 f   CmCollection.obj
 0001:00004700       ?reserveInternal@?$PxHashBase@V?$PxPair@$$CB_KPEAVPxBase@physx@@@physx@@_KU?$PxHash@_K@2@UGetKey@?$PxHashMapBase@_KPEAVPxBase@physx@@U?$PxHash@_K@2@VPxAllocator@2@@2@VPxAllocator@2@$00@physx@@AEAAXI@Z 0000000180005700 f i CmCollection.obj
 0001:00004700       ?reserveInternal@?$PxHashBase@V?$PxPair@QEAVPxBase@physx@@_K@physx@@PEAVPxBase@2@U?$PxHash@PEAVPxBase@physx@@@2@UGetKey@?$PxHashMapBase@PEAVPxBase@physx@@_KU?$PxHash@PEAVPxBase@physx@@@2@VPxAllocator@2@@2@VPxAllocator@2@$00@physx@@AEAAXI@Z 0000000180005700 f i CmCollection.obj
 0001:000048e0       PxCreateCollection         00000001800058e0 f   CmCollection.obj
 0001:000049e0       ??0RadixSort@Cm@physx@@QEAA@XZ 00000001800059e0 f   CmRadixSort.obj
 0001:00004a10       ??0RadixSortBuffered@Cm@physx@@QEAA@XZ 0000000180005a10 f   CmRadixSort.obj
 0001:00004a40       ??1RadixSort@Cm@physx@@UEAA@XZ 0000000180005a40 f   CmRadixSort.obj
 0001:00004a50       ??1RadixSortBuffered@Cm@physx@@UEAA@XZ 0000000180005a50 f   CmRadixSort.obj
 0001:00004a80       ??_ERadixSort@Cm@physx@@UEAAPEAXI@Z 0000000180005a80 f i CmRadixSort.obj
 0001:00004b10       ??_ERadixSortBuffered@Cm@physx@@UEAAPEAXI@Z 0000000180005b10 f i CmRadixSort.obj
 0001:00004c00       ?CheckResize@RadixSortBuffered@Cm@physx@@AEAAXI@Z 0000000180005c00 f i CmRadixSort.obj
 0001:00004c40       ?GetNbHits@RadixSort@Cm@physx@@QEBAIXZ 0000000180005c40 f i CmRadixSort.obj
 0001:00004c50       ?GetNbTotalCalls@RadixSort@Cm@physx@@QEBAIXZ 0000000180005c50 f i CmRadixSort.obj
 0001:00004c60       ?GetRanks@RadixSort@Cm@physx@@QEBAPEBIXZ 0000000180005c60 f i CmRadixSort.obj
 0001:00004c60       ?getHeightField@HeightFieldUtil@Gu@physx@@QEBAAEBVHeightField@23@XZ 0000000180005c60 f i GuCCTSweepTests.obj
 0001:00004c60       ?getSimulationMesh@SoftBodyMesh@Gu@physx@@UEAAPEAVPxTetrahedronMesh@3@XZ 0000000180005c60 f i GuTetrahedronMesh.obj
 0001:00004c60       ?getSimulationMesh@SoftBodyMesh@Gu@physx@@UEBAPEBVPxTetrahedronMesh@3@XZ 0000000180005c60 f i GuTetrahedronMesh.obj
 0001:00004c70       ?GetRecyclable@RadixSort@Cm@physx@@QEBAPEAIXZ 0000000180005c70 f i CmRadixSort.obj
 0001:00004c70       ?GetValencies@BigConvexData@physx@@QEBAPEBUValency@Gu@2@XZ 0000000180005c70 f i GuMetaData.obj
 0001:00004c70       ?getCollisionMesh@SoftBodyMesh@Gu@physx@@UEAAPEAVPxTetrahedronMesh@3@XZ 0000000180005c70 f i GuTetrahedronMesh.obj
 0001:00004c70       ?getCollisionMesh@SoftBodyMesh@Gu@physx@@UEBAPEBVPxTetrahedronMesh@3@XZ 0000000180005c70 f i GuTetrahedronMesh.obj
 0001:00004c70       ?getHeightFieldGeometry@HeightFieldUtil@Gu@physx@@QEBAAEBVPxHeightFieldGeometry@3@XZ 0000000180005c70 f i GuCCTSweepTests.obj
 0001:00004c70       ?getObjects@PruningPool@Gu@physx@@QEBAPEAUPrunerPayload@23@XZ 0000000180005c70 f i GuIncrementalAABBPrunerCore.obj
 0001:00004c70       ?getPos@AABBTreeBuildNode@Gu@physx@@QEBAPEBV123@XZ 0000000180005c70 f i GuMeshFactory.obj
 0001:00004c70       ?getVertices@TetrahedronMesh@Gu@physx@@UEBAPEBV?$PxVec3T@M@3@XZ 0000000180005c70 f i GuTetrahedronMesh.obj
 0001:00004c70       ?getVertices@TriangleMesh@Gu@physx@@UEBAPEBV?$PxVec3T@M@3@XZ 0000000180005c70 f i GuTriangleMesh.obj
 0001:00004c80       ?Resize@RadixSortBuffered@Cm@physx@@AEAA_NI@Z 0000000180005c80 f   CmRadixSort.obj
 0001:00004d70       ?SetBuffers@RadixSort@Cm@physx@@QEAA_NPEAI00PEAPEAI@Z 0000000180005d70 f   CmRadixSort.obj
 0001:00004db0       ?Sort@RadixSort@Cm@physx@@QEAAAEAV123@PEBIIW4RadixHint@23@@Z 0000000180005db0 f   CmRadixSort.obj
 0001:00005460       ?Sort@RadixSort@Cm@physx@@QEAAAEAV123@PEBMI@Z 0000000180006460 f   CmRadixSort.obj
 0001:00005c00       ?Sort@RadixSortBuffered@Cm@physx@@QEAAAEAV123@PEBIIW4RadixHint@23@@Z 0000000180006c00 f   CmRadixSort.obj
 0001:00005ca0       ?Sort@RadixSortBuffered@Cm@physx@@QEAAAEAV123@PEBMI@Z 0000000180006ca0 f   CmRadixSort.obj
 0001:00005d30       ?invalidateRanks@RadixSort@Cm@physx@@QEAAXXZ 0000000180006d30 f i CmRadixSort.obj
 0001:00005d40       ?reset@RadixSortBuffered@Cm@physx@@QEAAXXZ 0000000180006d40 f   CmRadixSort.obj
 0001:00005dc0       ?ReadHeader@Cm@physx@@YA_NEEEEAEAIAEA_NAEAVPxInputStream@2@@Z 0000000180006dc0 f   CmSerialize.obj
 0001:00005f20       ?ReadIndices@Cm@physx@@YAXGIPEAGAEAVPxInputStream@2@_N@Z 0000000180006f20 f   CmSerialize.obj
 0001:00006070       ?StoreIndices@Cm@physx@@YAXGIPEBGAEAVPxOutputStream@2@_N@Z 0000000180007070 f   CmSerialize.obj
 0001:00006160       ?WriteHeader@Cm@physx@@YA_NEEEEI_NAEAVPxOutputStream@2@@Z 0000000180007160 f   CmSerialize.obj
 0001:00006290       ?computeMaxIndex@physx@@YAGPEBGI@Z 0000000180007290 f   CmSerialize.obj
 0001:000062c0       ?computeMaxIndex@physx@@YAIPEBII@Z 00000001800072c0 f   CmSerialize.obj
 0001:000062f0       ?readByteBuffer@physx@@YAXPEAEIAEAVPxInputStream@1@@Z 00000001800072f0 f   CmSerialize.obj
 0001:000062f0       ?writeByteBuffer@physx@@YAXPEBEIAEAVPxOutputStream@1@@Z 00000001800072f0 f   CmSerialize.obj
 0001:00006310       ?readChunk@physx@@YAXAEAC000AEAVPxInputStream@1@@Z 0000000180007310 f   CmSerialize.obj
 0001:00006390       ?readDword@physx@@YAI_NAEAVPxInputStream@1@@Z 0000000180007390 f   CmSerialize.obj
 0001:000063f0       ?readFloat@physx@@YAM_NAEAVPxInputStream@1@@Z 00000001800073f0 f   CmSerialize.obj
 0001:00006450       ?readFloatBuffer@physx@@YA_NPEAMI_NAEAVPxInputStream@1@@Z 0000000180007450 f   CmSerialize.obj
 0001:000064d0       ?readHeader@physx@@YA_NCCCCAEAIAEA_NAEAVPxInputStream@1@@Z 00000001800074d0 f   CmSerialize.obj
 0001:00006620       ?readIndices@physx@@YAXIIPEAIAEAVPxInputStream@1@_N@Z 0000000180007620 f   CmSerialize.obj
 0001:00006750       ?readWord@physx@@YAG_NAEAVPxInputStream@1@@Z 0000000180007750 f   CmSerialize.obj
 0001:00006790       ?readWordBuffer@physx@@YAXPEAGI_NAEAVPxInputStream@1@@Z 0000000180007790 f   CmSerialize.obj
 0001:00006800       ?storeIndices@physx@@YAXIIPEBIAEAVPxOutputStream@1@_N@Z 0000000180007800 f   CmSerialize.obj
 0001:00006990       ?writeDword@physx@@YAXI_NAEAVPxOutputStream@1@@Z 0000000180007990 f   CmSerialize.obj
 0001:000069e0       ?writeFloat@physx@@YAXM_NAEAVPxOutputStream@1@@Z 00000001800079e0 f   CmSerialize.obj
 0001:00006a30       ?writeFloatBuffer@physx@@YAXPEBMI_NAEAVPxOutputStream@1@@Z 0000000180007a30 f   CmSerialize.obj
 0001:00006ad0       ?writeHeader@physx@@YA_NCCCCI_NAEAVPxOutputStream@1@@Z 0000000180007ad0 f   CmSerialize.obj
 0001:00006c00       ?writeWord@physx@@YAXG_NAEAVPxOutputStream@1@@Z 0000000180007c00 f   CmSerialize.obj
 0001:00006c40       ?writeWordBuffer@physx@@YAXPEBGI_NAEAVPxOutputStream@1@@Z 0000000180007c40 f   CmSerialize.obj
 0001:00006cc0       ??0PxRenderOutput@physx@@QEAA@AEAVPxRenderBuffer@1@@Z 0000000180007cc0 f i CmVisualization.obj
 0001:00006d10       ??0PxRenderOutput@physx@@QEAA@AEBV01@@Z 0000000180007d10 f i CmVisualization.obj
 0001:00006db0       ??6PxRenderOutput@physx@@QEAAAEAV01@AEBV?$PxMat44T@M@1@@Z 0000000180007db0 f i CmVisualization.obj
 0001:00006e20       ??6PxRenderOutput@physx@@QEAAAEAV01@AEBV?$PxTransformT@M@1@@Z 0000000180007e20 f i CmVisualization.obj
 0001:00006fa0       ??6PxRenderOutput@physx@@QEAAAEAV01@AEBV?$PxVec3T@M@1@@Z 0000000180007fa0 f i CmVisualization.obj
 0001:00007290       ??6PxRenderOutput@physx@@QEAAAEAV01@I@Z 0000000180008290 f i CmVisualization.obj
 0001:000072a0       ??6PxRenderOutput@physx@@QEAAAEAV01@W4Primitive@01@@Z 00000001800082a0 f i CmVisualization.obj
 0001:000072b0       ?outputCapsule@PxRenderOutput@physx@@QEAAAEAV12@MMAEBV?$PxMat44T@M@2@@Z 00000001800082b0 f i CmVisualization.obj
 0001:00007df0       ?outputSegment@PxRenderOutput@physx@@QEAAXAEBV?$PxVec3T@M@2@0@Z 0000000180008df0 f i CmVisualization.obj
 0001:00007e60       ?renderOutputDebugArrow@Cm@physx@@YAXAEAVPxRenderOutput@2@AEBUPxDebugArrow@2@@Z 0000000180008e60 f   CmVisualization.obj
 0001:00008200       ?renderOutputDebugBasis@Cm@physx@@YAXAEAVPxRenderOutput@2@AEBUPxDebugBasis@2@@Z 0000000180009200 f   CmVisualization.obj
 0001:00008790       ?renderOutputDebugBox@Cm@physx@@YAXAEAVPxRenderOutput@2@AEBVPxBounds3@2@@Z 0000000180009790 f   CmVisualization.obj
 0001:00008a00       ?renderOutputDebugCircle@Cm@physx@@YAXAEAVPxRenderOutput@2@IM@Z 0000000180009a00 f   CmVisualization.obj
 0001:00008ae0       ?reservePoints@PxRenderOutput@physx@@QEAAPEAUPxDebugPoint@2@I@Z 0000000180009ae0 f i CmVisualization.obj
 0001:00008af0       ?reserveSegments@PxRenderOutput@physx@@QEAAPEAUPxDebugLine@2@I@Z 0000000180009af0 f i CmVisualization.obj
 0001:00008b00       ?visualizeAngularLimit@Cm@physx@@YAXAEAVPxRenderOutput@2@MAEBV?$PxTransformT@M@2@MM_N@Z 0000000180009b00 f   CmVisualization.obj
 0001:00008ca0       ?visualizeDoubleCone@Cm@physx@@YAXAEAVPxRenderOutput@2@MAEBV?$PxTransformT@M@2@M_N@Z 0000000180009ca0 f   CmVisualization.obj
 0001:00008ed0       ?visualizeJointFrames@Cm@physx@@YAXAEAVPxRenderOutput@2@MAEBV?$PxTransformT@M@2@1@Z 0000000180009ed0 f   CmVisualization.obj
 0001:000099d0       ?visualizeLimitCone@Cm@physx@@YAXAEAVPxRenderOutput@2@MAEBV?$PxTransformT@M@2@MM_N@Z 000000018000a9d0 f   CmVisualization.obj
 0001:00009c10       ?visualizeLinearLimit@Cm@physx@@YAXAEAVPxRenderOutput@2@MAEBV?$PxTransformT@M@2@1M_N@Z 000000018000ac10 f   CmVisualization.obj
 0001:0000a210       ??0CmModuleUpdateLoader@Cm@physx@@QEAA@PEBD@Z 000000018000b210 f   CmWindowsModuleUpdateLoader.obj
 0001:0000a250       ??1CmModuleUpdateLoader@Cm@physx@@QEAA@XZ 000000018000b250 f   CmWindowsModuleUpdateLoader.obj
 0001:0000a280       ?LoadModule@CmModuleUpdateLoader@Cm@physx@@QEAAPEAUHINSTANCE__@@PEBD0@Z 000000018000b280 f   CmWindowsModuleUpdateLoader.obj
 0001:0000a2f0       __local_stdio_printf_options 000000018000b2f0 f i CmWindowsModuleUpdateLoader.obj
 0001:0000a300       printf                     000000018000b300 f i CmWindowsModuleUpdateLoader.obj
 0001:0000a360       ?commonDelayHook@@YAP6A_JXZIPEAUDelayLoadInfo@@@Z 000000018000b360 f   CmWindowsDelayLoadHook.obj
 0001:0000a440       PxSetPhysXCommonDelayLoadHook 000000018000b440 f   CmWindowsDelayLoadHook.obj
 0001:0000a450       ??0?$PxQuatT@M@physx@@QEAA@AEBV?$PxMat33T@M@1@@Z 000000018000b450 f i GuBox.obj
 0001:0000a650       ??0Box@Gu@physx@@QEAA@AEBV012@@Z 000000018000b650 f i GuBox.obj
 0001:0000a650       ??4Box@Gu@physx@@QEAAAEBV012@AEBV012@@Z 000000018000b650 f i GuBox.obj
 0001:0000a6b0       ??0Box@Gu@physx@@QEAA@AEBV?$PxVec3T@M@2@0AEBV?$PxMat33T@M@2@@Z 000000018000b6b0 f i GuBox.obj
 0001:0000a720       ??$forward@_K@std@@YA$$QEA_KAEA_K@Z 000000018000b720 f i libvcruntime:undname.obj
 0001:0000a720       ??0AABBTreeBuildNode@Gu@physx@@QEAA@XZ 000000018000b720 f i GuMeshFactory.obj
 0001:0000a720       ??0BigConvexData@physx@@QEAA@W4PxEMPTY@1@@Z 000000018000b720 f i GuMetaData.obj
 0001:0000a720       ??0Box@Gu@physx@@QEAA@XZ   000000018000b720 f i GuBox.obj
 0001:0000a720       ??0HeightFieldData@Gu@physx@@QEAA@W4PxEMPTY@2@@Z 000000018000b720 f i GuCCTSweepTests.obj
 0001:0000a720       ?getAABB@AABBTreeBuildNode@Gu@physx@@QEBAAEBVPxBounds3@3@XZ 000000018000b720 f i GuMeshFactory.obj
 0001:0000a720       ?getPaddedBounds@HeightFieldData@Gu@physx@@QEBAAEBVCenterExtentsPadded@23@XZ 000000018000b720 f i GuCCTSweepTests.obj
 0001:0000a730       ?computeAABBExtent@Box@Gu@physx@@QEBA?AV?$PxVec3T@M@3@XZ 000000018000b730 f i GuBox.obj
 0001:0000a7f0       ?computeBoxPoints@Box@Gu@physx@@QEBAXPEIAV?$PxVec3T@M@3@@Z 000000018000b7f0 f i GuBox.obj
 0001:0000a830       ?computeOBBPoints@Gu@physx@@YAXPEIAV?$PxVec3T@M@2@AEBV32@1111@Z 000000018000b830 f   GuBox.obj
 0001:0000aab0       ?create@Box@Gu@physx@@QEAAXAEBVCapsule@23@@Z 000000018000bab0 f   GuBox.obj
 0001:0000ace0       ?getBoxEdges@Gu@physx@@YAPEBEXZ 000000018000bce0 f   GuBox.obj
 0001:0000acf0       ?getTransform@Box@Gu@physx@@QEBA?AV?$PxTransformT@M@3@XZ 000000018000bcf0 f i GuBox.obj
 0001:0000ad50       ?isValid@Box@Gu@physx@@QEBA_NXZ 000000018000bd50 f i GuBox.obj
 0001:0000ad70       ?rotate@Box@Gu@physx@@QEBA?AV?$PxVec3T@M@3@AEBV43@@Z 000000018000bd70 f i GuBox.obj
 0001:0000ae00       ?rotateInv@Box@Gu@physx@@QEBA?AV?$PxVec3T@M@3@AEBV43@@Z 000000018000be00 f i GuBox.obj
 0001:0000ae90       ?setAxes@Box@Gu@physx@@QEAAXAEBV?$PxVec3T@M@3@00@Z 000000018000be90 f i GuBox.obj
 0001:0000aed0       ?setEmpty@Box@Gu@physx@@QEAAXXZ 000000018000bed0 f i GuBox.obj
 0001:0000af10       ?transform@Box@Gu@physx@@QEBA?AV?$PxVec3T@M@3@AEBV43@@Z 000000018000bf10 f i GuBox.obj
 0001:0000afb0       ?PxComputeBasisVectors@physx@@YAXAEBV?$PxVec3T@M@1@0AEAV21@11@Z 000000018000bfb0 f i GuCapsule.obj
 0001:0000b150       ?computeBoxAroundCapsule@Gu@physx@@YAXAEBVCapsule@12@AEAVBox@12@@Z 000000018000c150 f   GuCapsule.obj
 0001:0000b2a0       ??0HeightFieldData@Gu@physx@@QEAA@$$QEAU012@@Z 000000018000c2a0 f i GuCCTSweepTests.obj
 0001:0000b2a0       ??0HeightFieldData@Gu@physx@@QEAA@AEBU012@@Z 000000018000c2a0 f i GuCCTSweepTests.obj
 0001:0000b2a0       ??4HeightFieldData@Gu@physx@@QEAAAEAU012@$$QEAU012@@Z 000000018000c2a0 f i GuCCTSweepTests.obj
 0001:0000b2a0       ??4HeightFieldData@Gu@physx@@QEAAAEAU012@AEBU012@@Z 000000018000c2a0 f i GuCCTSweepTests.obj
 0001:0000b300       ??0HeightFieldData@Gu@physx@@QEAA@XZ 000000018000c300 f i GuCCTSweepTests.obj
 0001:0000b310       ??0HeightFieldTraceUtil@Gu@physx@@QEAA@AEBVPxHeightFieldGeometry@2@@Z 000000018000c310 f i GuCCTSweepTests.obj
 0001:0000b310       ??0HeightFieldUtil@Gu@physx@@QEAA@AEBVPxHeightFieldGeometry@2@@Z 000000018000c310 f i GuCCTSweepTests.obj
 0001:0000b350       ??4AABBTreeBuildParams@Gu@physx@@QEAAAEAV012@AEBV012@@Z 000000018000c350 f i GuMeshFactory.obj
 0001:0000b350       ??4HeightFieldTraceUtil@Gu@physx@@QEAAAEAV012@$$QEAV012@@Z 000000018000c350 f i GuCCTSweepTests.obj
 0001:0000b350       ??4HeightFieldTraceUtil@Gu@physx@@QEAAAEAV012@AEBV012@@Z 000000018000c350 f i GuCCTSweepTests.obj
 0001:0000b350       ??4HeightFieldUtil@Gu@physx@@QEAAAEAV012@AEBV012@@Z 000000018000c350 f i GuCCTSweepTests.obj
 0001:0000b370       ??4HeightFieldUtil@Gu@physx@@QEAAAEAV012@$$QEAV012@@Z 000000018000c370 f i GuCCTSweepTests.obj
 0001:0000b3d0       ??_EEntityReport@Gu@physx@@UEAAPEAXI@Z 000000018000c3d0 f i GuSweepsHF.obj
 0001:0000b3d0       ??_EOverlapCallback@PxBVH@physx@@UEAAPEAXI@Z 000000018000c3d0 f i GuQuerySystem.obj
 0001:0000b3d0       ??_EOverlapReport@Gu@physx@@UEAAPEAXI@Z 000000018000c3d0 f i GuCCTSweepTests.obj
 0001:0000b3d0       ??_ERaycastCallback@PxBVH@physx@@UEAAPEAXI@Z 000000018000c3d0 f i GuQuerySystem.obj
 0001:0000b3d0       ??_ERemapCallback@RTreeCooker@physx@@UEAAPEAXI@Z 000000018000c3d0 f i GuCookingTriangleMesh.obj
 0001:0000b3d0       ??_GEntityReport@Gu@physx@@UEAAPEAXI@Z 000000018000c3d0 f i GuSweepsHF.obj
 0001:0000b3d0       ??_GOverlapCallback@PxBVH@physx@@UEAAPEAXI@Z 000000018000c3d0 f i GuQuerySystem.obj
 0001:0000b3d0       ??_GOverlapReport@Gu@physx@@UEAAPEAXI@Z 000000018000c3d0 f i GuCCTSweepTests.obj
 0001:0000b3d0       ??_GRaycastCallback@PxBVH@physx@@UEAAPEAXI@Z 000000018000c3d0 f i GuQuerySystem.obj
 0001:0000b3d0       ??_GRemapCallback@RTreeCooker@physx@@UEAAPEAXI@Z 000000018000c3d0 f i GuCookingTriangleMesh.obj
 0001:0000b400       ??_H@YAXPEAX_K1P6APEAX0@Z@Z 000000018000c400 f i GuCCTSweepTests.obj
 0001:0000b450       ?ceilUp@HeightFieldTraceUtil@Gu@physx@@SAMM@Z 000000018000c450 f i GuCCTSweepTests.obj
 0001:0000b490       ?floorDown@HeightFieldTraceUtil@Gu@physx@@SAMM@Z 000000018000c490 f i GuCCTSweepTests.obj
 0001:0000b4d0       ?getHeightAtShapePoint@HeightFieldUtil@Gu@physx@@QEBAMMM@Z 000000018000c4d0 f i GuCCTSweepTests.obj
 0001:0000b530       ?getHeightInternal2@HeightField@Gu@physx@@QEBAMIMM@Z 000000018000c530 f i GuCCTSweepTests.obj
 0001:0000b6a0       ?getNormalAtShapePoint@HeightFieldUtil@Gu@physx@@QEBA?AV?$PxVec3T@M@3@MM@Z 000000018000c6a0 f i GuCCTSweepTests.obj
 0001:0000b760       ?getNormal_2@HeightField@Gu@physx@@QEBA?AV?$PxVec3T@M@3@IMMMMM@Z 000000018000c760 f i GuCCTSweepTests.obj
 0001:0000b880       ?getOneOverColumnScale@HeightFieldUtil@Gu@physx@@QEBAMXZ 000000018000c880 f i GuCCTSweepTests.obj
 0001:0000b890       ?getOneOverHeightScale@HeightFieldUtil@Gu@physx@@QEBAMXZ 000000018000c890 f i GuCCTSweepTests.obj
 0001:0000b8a0       ?getOneOverRowScale@HeightFieldUtil@Gu@physx@@QEBAMXZ 000000018000c8a0 f i GuCCTSweepTests.obj
 0001:0000b8b0       ?hf2shapen@HeightFieldUtil@Gu@physx@@QEBA?AV?$PxVec3T@M@3@AEBV43@@Z 000000018000c8b0 f i GuCCTSweepTests.obj
 0001:0000b8b0       ?shape2hfp@HeightFieldUtil@Gu@physx@@QEBA?AV?$PxVec3T@M@3@AEBV43@@Z 000000018000c8b0 f i GuCCTSweepTests.obj
 0001:0000b8f0       ?hf2shapep@HeightFieldUtil@Gu@physx@@QEBA?AV?$PxVec3T@M@3@AEBV43@@Z 000000018000c8f0 f i GuCCTSweepTests.obj
 0001:0000b930       ?hf2worldn@HeightFieldUtil@Gu@physx@@QEBA?AV?$PxVec3T@M@3@AEBV?$PxTransformT@M@3@AEBV43@@Z 000000018000c930 f i GuCCTSweepTests.obj
 0001:0000baa0       ?hf2worldp@HeightFieldUtil@Gu@physx@@QEBA?AV?$PxVec3T@M@3@AEBV?$PxTransformT@M@3@AEBV43@@Z 000000018000caa0 f i GuCCTSweepTests.obj
 0001:0000bc20       ?overlapAABBTriangles0to1@HeightFieldUtil@Gu@physx@@QEBAXAEBV?$PxTransformT@M@3@AEBVPxBounds3@3@AEAVOverlapReport@23@I@Z 000000018000cc20 f i GuCCTSweepTests.obj
 0001:0000bfc0       ?overlapAABBTriangles@HeightFieldUtil@Gu@physx@@QEBAXAEBV?$PxTransformT@M@3@0AEBVPxBounds3@3@AEAVOverlapReport@23@I@Z 000000018000cfc0 f i GuCCTSweepTests.obj
 0001:0000c5e0       ?overlapAABBTriangles@HeightFieldUtil@Gu@physx@@QEBAXAEBV?$PxTransformT@M@3@AEBVPxBounds3@3@AEAVOverlapReport@23@I@Z 000000018000d5e0 f i GuCCTSweepTests.obj
 0001:0000ccc0       ?sweepBoxTriangles_Precise@Gu@physx@@YA_NIPEBVPxTriangle@2@_NAEBVPxBoxGeometry@2@AEBV?$PxTransformT@M@2@AEBV?$PxVec3T@M@2@MAEAUPxGeomSweepHit@2@PEBIMV?$PxFlags@W4Enum@PxHitFlag@physx@@G@2@@Z 000000018000dcc0 f   GuCCTSweepTests.obj
 0001:0000da40       ?sweepBox_BoxGeom_Precise@@YA_NAEBVPxGeometry@physx@@AEBV?$PxTransformT@M@2@AEBVPxBoxGeometry@2@1AEBVBox@Gu@2@AEBV?$PxVec3T@M@2@MAEAUPxGeomSweepHit@2@V?$PxFlags@W4Enum@PxHitFlag@physx@@G@2@MPEAUPxQueryThreadContext@2@@Z 000000018000ea40 f   GuCCTSweepTests.obj
 0001:0000dc00       ?sweepBox_CapsuleGeom_Precise@@YA_NAEBVPxGeometry@physx@@AEBV?$PxTransformT@M@2@AEBVPxBoxGeometry@2@1AEBVBox@Gu@2@AEBV?$PxVec3T@M@2@MAEAUPxGeomSweepHit@2@V?$PxFlags@W4Enum@PxHitFlag@physx@@G@2@MPEAUPxQueryThreadContext@2@@Z 000000018000ec00 f   GuCCTSweepTests.obj
 0001:0000dfd0       ?sweepBox_HeightFieldGeom_Precise@@YA_NAEBVPxGeometry@physx@@AEBV?$PxTransformT@M@2@AEBVPxBoxGeometry@2@1AEBVBox@Gu@2@AEBV?$PxVec3T@M@2@MAEAUPxGeomSweepHit@2@V?$PxFlags@W4Enum@PxHitFlag@physx@@G@2@MPEAUPxQueryThreadContext@2@@Z 000000018000efd0 f   GuCCTSweepTests.obj
 0001:0000e7f0       ?sweepBox_SphereGeom_Precise@@YA_NAEBVPxGeometry@physx@@AEBV?$PxTransformT@M@2@AEBVPxBoxGeometry@2@1AEBVBox@Gu@2@AEBV?$PxVec3T@M@2@MAEAUPxGeomSweepHit@2@V?$PxFlags@W4Enum@PxHitFlag@physx@@G@2@MPEAUPxQueryThreadContext@2@@Z 000000018000f7f0 f   GuCCTSweepTests.obj
 0001:0000ead0       ?sweepCapsule_BoxGeom_Precise@@YA_NAEBVPxGeometry@physx@@AEBV?$PxTransformT@M@2@AEBVPxCapsuleGeometry@2@1AEBVCapsule@Gu@2@AEBV?$PxVec3T@M@2@MAEAUPxGeomSweepHit@2@V?$PxFlags@W4Enum@PxHitFlag@physx@@G@2@MPEAUPxQueryThreadContext@2@@Z 000000018000fad0 f   GuCCTSweepTests.obj
 0001:0000f130       ??0?$CacheMap@UCachedEdge@Gu@physx@@$0IA@@Gu@physx@@QEAA@XZ 0000000180010130 f i GuGeometryQuery.obj
 0001:0000f1f0       ??0?$CacheMap@UCachedVertex@Gu@physx@@$0IA@@Gu@physx@@QEAA@XZ 00000001800101f0 f i GuGeometryQuery.obj
 0001:0000f2b0       ??0MultiplePersistentContactManifold@Gu@physx@@QEAA@XZ 00000001800102b0 f i GuGeometryQuery.obj
 0001:0000f300       ??0PCMMeshContactGeneration@Gu@physx@@QEAA@AEBT__m128@@0AEBVPxTransformV@aos@2@1AEAVMultiplePersistentContactManifold@12@AEAVPxContactBuffer@2@PEAV?$PxInlineArray@I$0DMA@V?$PxReflectionAllocator@I@physx@@@2@PEAVPxRenderOutput@2@@Z 0000000180010300 f i GuGeometryQuery.obj
 0001:0000fc20       ??0PolygonalBox@Gu@physx@@QEAA@AEBV012@@Z 0000000180010c20 f i GuGeometryQuery.obj
 0001:0000fea0       ??4MultiplePersistentContactManifold@Gu@physx@@QEAAAEAV012@$$QEAV012@@Z 0000000180010ea0 f i GuGeometryQuery.obj
 0001:000101b0       ??4MultiplePersistentContactManifold@Gu@physx@@QEAAAEAV012@AEBV012@@Z 00000001800111b0 f i GuGeometryQuery.obj
 0001:000101d0       ??_E?$SupportLocalImpl@VBoxV@Gu@physx@@@Gu@physx@@UEAAPEAXI@Z 00000001800111d0 f i GuGeometryQuery.obj
 0001:000101d0       ??_E?$SupportLocalImpl@VConvexHullNoScaleV@Gu@physx@@@Gu@physx@@UEAAPEAXI@Z 00000001800111d0 f i GuMTD.obj
 0001:000101d0       ??_E?$SupportLocalImpl@VConvexHullV@Gu@physx@@@Gu@physx@@UEAAPEAXI@Z 00000001800111d0 f i GuGeometryQuery.obj
 0001:000101d0       ??_E?$SupportLocalImpl@VTriangleV@Gu@physx@@@Gu@physx@@UEAAPEAXI@Z 00000001800111d0 f i GuPCMContactConvexCommon.obj
 0001:000101d0       ??_G?$SupportLocalImpl@VBoxV@Gu@physx@@@Gu@physx@@UEAAPEAXI@Z 00000001800111d0 f i GuGeometryQuery.obj
 0001:000101d0       ??_G?$SupportLocalImpl@VConvexHullNoScaleV@Gu@physx@@@Gu@physx@@UEAAPEAXI@Z 00000001800111d0 f i GuMTD.obj
 0001:000101d0       ??_G?$SupportLocalImpl@VConvexHullV@Gu@physx@@@Gu@physx@@UEAAPEAXI@Z 00000001800111d0 f i GuGeometryQuery.obj
 0001:000101d0       ??_G?$SupportLocalImpl@VTriangleV@Gu@physx@@@Gu@physx@@UEAAPEAXI@Z 00000001800111d0 f i GuPCMContactConvexCommon.obj
 0001:00010200       ??_ESupportLocal@Gu@physx@@UEAAPEAXI@Z 0000000180011200 f i GuGeometryQuery.obj
 0001:00010200       ??_GSupportLocal@Gu@physx@@UEAAPEAXI@Z 0000000180011200 f i GuGeometryQuery.obj
 0001:00010230       ?clearManifold@MultiplePersistentContactManifold@Gu@physx@@QEAAXXZ 0000000180011230 f i GuGeometryQuery.obj
 0001:00010290       ?computeGeomBounds@PxGeometryQuery@physx@@SAXAEAVPxBounds3@2@AEBVPxGeometry@2@AEBV?$PxTransformT@M@2@MMV?$PxFlags@W4Enum@PxGeometryQueryFlag@physx@@I@2@@Z 0000000180011290 f   GuGeometryQuery.obj
 0001:00010310       ?computePenetration@PxGeometryQuery@physx@@SA_NAEAV?$PxVec3T@M@2@AEAMAEBVPxGeometry@2@AEBV?$PxTransformT@M@2@23V?$PxFlags@W4Enum@PxGeometryQueryFlag@physx@@I@2@@Z 0000000180011310 f   GuGeometryQuery.obj
 0001:00010430       ?doSupport@?$SupportLocalImpl@VBoxV@Gu@physx@@@Gu@physx@@UEBA?AT__m128@@AEBT4@@Z 0000000180011430 f i GuGeometryQuery.obj
 0001:00010460       ?doSupport@?$SupportLocalImpl@VBoxV@Gu@physx@@@Gu@physx@@UEBAXAEBT__m128@@AEAT4@1@Z 0000000180011460 f i GuGeometryQuery.obj
 0001:000104b0       ?doSupport@?$SupportLocalImpl@VConvexHullV@Gu@physx@@@Gu@physx@@UEBA?AT__m128@@AEBT4@@Z 00000001800114b0 f i GuGeometryQuery.obj
 0001:00010590       ?doSupport@?$SupportLocalImpl@VConvexHullV@Gu@physx@@@Gu@physx@@UEBAXAEBT__m128@@AEAT4@1@Z 0000000180011590 f i GuGeometryQuery.obj
 0001:000108f0       ?generateTriangleContacts@PxGeometryQuery@physx@@SA_NAEBVPxGeometry@2@AEBV?$PxTransformT@M@2@QEBV?$PxVec3T@M@2@IMMMAEAVPxContactBuffer@2@@Z 00000001800118f0 f   GuGeometryQuery.obj
 0001:00012280       ?getEmptyManifold@MultiplePersistentContactManifold@Gu@physx@@QEAAPEAVSinglePersistentContactManifold@23@XZ 0000000180013280 f i GuGeometryQuery.obj
 0001:000122a0       ?getManifold@MultiplePersistentContactManifold@Gu@physx@@QEAAPEAVSinglePersistentContactManifold@23@I@Z 00000001800132a0 f i GuGeometryQuery.obj
 0001:000122c0       ?getUniqueID@PxCustomGeometry@physx@@SAIXZ 00000001800132c0 f   GuGeometryQuery.obj
 0001:000122e0       ?getWorldBounds@PxGeometryQuery@physx@@SA?AVPxBounds3@2@AEBVPxGeometry@2@AEBV?$PxTransformT@M@2@M@Z 00000001800132e0 f   GuGeometryQuery.obj
 0001:00012350       ?hillClimbing@ConvexHullV@Gu@physx@@QEBAIAEBT__m128@@@Z 0000000180013350 f i GuGeometryQuery.obj
 0001:00012580       ?initialize@MultiplePersistentContactManifold@Gu@physx@@QEAAXXZ 0000000180013580 f i GuGeometryQuery.obj
 0001:000125e0       ?invalidate@MultiplePersistentContactManifold@Gu@physx@@QEAAIAEBVPxTransformV@aos@3@AEBT__m128@@1@Z 00000001800135e0 f i GuGeometryQuery.obj
 0001:00012650       ?invalidate@MultiplePersistentContactManifold@Gu@physx@@QEAAIAEBVPxTransformV@aos@3@AEBT__m128@@@Z 0000000180013650 f i GuGeometryQuery.obj
 0001:000126c0       ?isUnit@?$PxQuatT@M@physx@@QEBA_NXZ 00000001800136c0 f i GuGeometryQuery.obj
 0001:00012780       ?isValid@PxGeometryQuery@physx@@SA_NAEBVPxGeometry@2@@Z 0000000180013780 f   GuGeometryQuery.obj
 0001:00012a70       ?maxTransformPositionDelta@MultiplePersistentContactManifold@Gu@physx@@QEAA?AT__m128@@AEBT4@@Z 0000000180013a70 f i GuGeometryQuery.obj
 0001:00012ab0       ?maxTransformQuatDelta@MultiplePersistentContactManifold@Gu@physx@@QEAA?AT__m128@@AEBT4@@Z 0000000180013ab0 f i GuGeometryQuery.obj
 0001:00012af0       ?overlap@PxGeometryQuery@physx@@SA_NAEBVPxGeometry@2@AEBV?$PxTransformT@M@2@01V?$PxFlags@W4Enum@PxGeometryQueryFlag@physx@@I@2@PEAUPxQueryThreadContext@2@@Z 0000000180013af0 f   GuGeometryQuery.obj
 0001:00012bc0       ?pointDistance@PxGeometryQuery@physx@@SAMAEBV?$PxVec3T@M@2@AEBVPxGeometry@2@AEBV?$PxTransformT@M@2@PEAV32@PEAIV?$PxFlags@W4Enum@PxGeometryQueryFlag@physx@@I@2@@Z 0000000180013bc0 f   GuGeometryQuery.obj
 0001:00013340       ?populateVerts@?$SupportLocalImpl@VBoxV@Gu@physx@@@Gu@physx@@UEBAXPEBEIPEBV?$PxVec3T@M@3@PEAT__m128@@@Z 0000000180014340 f i GuGeometryQuery.obj
 0001:00013380       ?populateVerts@?$SupportLocalImpl@VConvexHullV@Gu@physx@@@Gu@physx@@UEBAXPEBEIPEBV?$PxVec3T@M@3@PEAT__m128@@@Z 0000000180014380 f i GuGeometryQuery.obj
 0001:000133e0       ?raycast@PxGeometryQuery@physx@@SAIAEBV?$PxVec3T@M@2@0AEBVPxGeometry@2@AEBV?$PxTransformT@M@2@MV?$PxFlags@W4Enum@PxHitFlag@physx@@G@2@IPEIAUPxGeomRaycastHit@2@IV?$PxFlags@W4Enum@PxGeometryQueryFlag@physx@@I@2@PEAUPxQueryThreadContext@2@@Z 00000001800143e0 f   GuGeometryQuery.obj
 0001:000134e0       ?reduceManifoldContactsInDifferentPatches@MultiplePersistentContactManifold@Gu@physx@@QEAAIPEAPEAUPCMContactPatch@23@IPEAVMeshPersistentContact@23@IAEBT__m128@@@Z 00000001800144e0 f i GuGeometryQuery.obj
 0001:00013650       ?refineContactPatchConnective@MultiplePersistentContactManifold@Gu@physx@@QEAAXPEAPEAUPCMContactPatch@23@IPEAVMeshPersistentContact@23@AEBT__m128@@@Z 0000000180014650 f i GuGeometryQuery.obj
 0001:00013740       ?refreshManifold@MultiplePersistentContactManifold@Gu@physx@@QEAAXAEBVPxMatTransformV@aos@3@AEBT__m128@@1@Z 0000000180014740 f i GuGeometryQuery.obj
 0001:00013840       ?setRelativeTransform@MultiplePersistentContactManifold@Gu@physx@@QEAAXAEBVPxTransformV@aos@3@@Z 0000000180014840 f i GuGeometryQuery.obj
 0001:00013850       ?supportVertexIndex@ConvexHullV@Gu@physx@@QEBAIAEBT__m128@@@Z 0000000180014850 f i GuGeometryQuery.obj
 0001:00013ad0       ?sweep@PxGeometryQuery@physx@@SA_NAEBV?$PxVec3T@M@2@MAEBVPxGeometry@2@AEBV?$PxTransformT@M@2@12AEAUPxGeomSweepHit@2@V?$PxFlags@W4Enum@PxHitFlag@physx@@G@2@MV?$PxFlags@W4Enum@PxGeometryQueryFlag@physx@@I@2@PEAUPxQueryThreadContext@2@@Z 0000000180014ad0 f   GuGeometryQuery.obj
 0001:00013f60       ?toBuffer@MultiplePersistentContactManifold@Gu@physx@@QEAAXPEIAE@Z 0000000180014f60 f i GuGeometryQuery.obj
 0001:00014040       ?computeBoxPoints@Gu@physx@@YAXAEBVPxBounds3@2@PEIAV?$PxVec3T@M@2@@Z 0000000180015040 f   GuInternal.obj
 0001:000140e0       ?computeSweptBox@Gu@physx@@YAXAEAVBox@12@AEBV?$PxVec3T@M@2@1AEBV?$PxMat33T@M@2@1M@Z 00000001800150e0 f   GuInternal.obj
 0001:00014620       ?getPlane@Gu@physx@@YA?AVPxPlane@2@AEBV?$PxTransformT@M@2@@Z 0000000180015620 f   GuInternal.obj
 0001:00014aa0       ??_ECallbackRaycast@RTree@Gu@physx@@UEAAPEAXI@Z 0000000180015aa0 f i GuMidphaseRTree.obj
 0001:00014aa0       ??_ECallbackRefit@RTree@Gu@physx@@UEAAPEAXI@Z 0000000180015aa0 f i GuTriangleMeshRTree.obj
 0001:00014aa0       ??_EPxInsertionCallback@physx@@MEAAPEAXI@Z 0000000180015aa0 f i GuMeshFactory.obj
 0001:00014aa0       ??_GCallbackRaycast@RTree@Gu@physx@@UEAAPEAXI@Z 0000000180015aa0 f i GuMidphaseRTree.obj
 0001:00014aa0       ??_GCallbackRefit@RTree@Gu@physx@@UEAAPEAXI@Z 0000000180015aa0 f i GuTriangleMeshRTree.obj
 0001:00014aa0       ??_GPxInsertionCallback@physx@@MEAAPEAXI@Z 0000000180015aa0 f i GuMeshFactory.obj
 0001:00014ad0       ??$copy@V?$PxReflectionAllocator@USlab@NodeAllocator@Gu@physx@@@physx@@@?$PxArray@USlab@NodeAllocator@Gu@physx@@V?$PxReflectionAllocator@USlab@NodeAllocator@Gu@physx@@@4@@physx@@IEAAXAEBV01@@Z 0000000180015ad0 f i GuMeshFactory.obj
 0001:00014b90       ??0AABBTreeBounds@Gu@physx@@QEAA@XZ 0000000180015b90 f i GuMeshFactory.obj
 0001:00014ba0       ??0AABBTreeBuildNode@Gu@physx@@QEAA@AEBV012@@Z 0000000180015ba0 f i GuMeshFactory.obj
 0001:00014ba0       ??4AABBTreeBuildNode@Gu@physx@@QEAAAEAV012@AEBV012@@Z 0000000180015ba0 f i GuMeshFactory.obj
 0001:00014be0       ??0AABBTreeBuildParams@Gu@physx@@QEAA@IIPEBVAABBTreeBounds@12@W4BVHBuildStrategy@12@@Z 0000000180015be0 f i GuMeshFactory.obj
 0001:00014c00       ??0MeshFactory@Gu@physx@@QEAA@XZ 0000000180015c00 f   GuMeshFactory.obj
 0001:00014e00       ??0NodeAllocator@Gu@physx@@QEAA@AEBV012@@Z 0000000180015e00 f i GuMeshFactory.obj
 0001:00014e40       ??0TriangleMeshData@Gu@physx@@QEAA@XZ 0000000180015e40 f i GuMeshFactory.obj
 0001:00014f50       ??1AABBTreeBounds@Gu@physx@@QEAA@XZ 0000000180015f50 f i GuMeshFactory.obj
 0001:00014f60       ??1AABBTreeBuildParams@Gu@physx@@QEAA@XZ 0000000180015f60 f i GuMeshFactory.obj
 0001:00014f60       ?reset@AABBTreeBuildParams@Gu@physx@@QEAAXXZ 0000000180015f60 f i GuMeshFactory.obj
 0001:00014fb0       ??1CollisionMeshMappingData@Gu@physx@@UEAA@XZ 0000000180015fb0 f i GuMeshFactory.obj
 0001:000150f0       ??1MeshDataBase@Gu@physx@@UEAA@XZ 00000001800160f0 f i GuMeshFactory.obj
 0001:00015230       ??1MeshFactory@Gu@physx@@MEAA@XZ 0000000180016230 f   GuMeshFactory.obj
 0001:00015360       ??1RTreeTriangleData@Gu@physx@@UEAA@XZ 0000000180016360 f i GuMeshFactory.obj
 0001:000153d0       ??1SoftBodyCollisionData@Gu@physx@@UEAA@XZ 00000001800163d0 f i GuMeshFactory.obj
 0001:00015500       ??1SoftBodySimulationData@Gu@physx@@UEAA@XZ 0000000180016500 f i GuMeshFactory.obj
 0001:00015610       ??1TetrahedronMeshData@Gu@physx@@QEAA@XZ 0000000180016610 f i GuMeshFactory.obj
 0001:000156a0       ??1TriangleMeshData@Gu@physx@@UEAA@XZ 00000001800166a0 f i GuMeshFactory.obj
 0001:000157d0       ??4NodeAllocator@Gu@physx@@QEAAAEAV012@AEBV012@@Z 00000001800167d0 f i GuMeshFactory.obj
 0001:00015880       ??_EMeshFactory@Gu@physx@@MEAAPEAXI@Z 0000000180016880 f i GuMeshFactory.obj
 0001:00015990       ??_FAABBTreeBuildParams@Gu@physx@@QEAAXXZ 0000000180016990 f i GuMeshFactory.obj
 0001:000159b0       ??_EBV4TriangleData@Gu@physx@@UEAAPEAXI@Z 00000001800169b0 f i GuMeshFactory.obj
 0001:000159b0       ??_GBV4TriangleData@Gu@physx@@UEAAPEAXI@Z 00000001800169b0 f i GuMeshFactory.obj
 0001:00015a40       ??_ECollisionMeshMappingData@Gu@physx@@UEAAPEAXI@Z 0000000180016a40 f i GuMeshFactory.obj
 0001:00015a40       ??_GCollisionMeshMappingData@Gu@physx@@UEAAPEAXI@Z 0000000180016a40 f i GuMeshFactory.obj
 0001:00015ab0       ??_EMeshDataBase@Gu@physx@@UEAAPEAXI@Z 0000000180016ab0 f i GuMeshFactory.obj
 0001:00015ab0       ??_GMeshDataBase@Gu@physx@@UEAAPEAXI@Z 0000000180016ab0 f i GuMeshFactory.obj
 0001:00015b20       ??_EPxCollisionMeshMappingData@physx@@UEAAPEAXI@Z 0000000180016b20 f i GuMeshFactory.obj
 0001:00015b20       ??_GPxCollisionMeshMappingData@physx@@UEAAPEAXI@Z 0000000180016b20 f i GuMeshFactory.obj
 0001:00015b70       ??_ERTreeTriangleData@Gu@physx@@UEAAPEAXI@Z 0000000180016b70 f i GuMeshFactory.obj
 0001:00015b70       ??_GRTreeTriangleData@Gu@physx@@UEAAPEAXI@Z 0000000180016b70 f i GuMeshFactory.obj
 0001:00015c20       ??_ESoftBodyCollisionData@Gu@physx@@UEAAPEAXI@Z 0000000180016c20 f i GuMeshFactory.obj
 0001:00015c20       ??_GSoftBodyCollisionData@Gu@physx@@UEAAPEAXI@Z 0000000180016c20 f i GuMeshFactory.obj
 0001:00015c90       ??_ESoftBodySimulationData@Gu@physx@@UEAAPEAXI@Z 0000000180016c90 f i GuMeshFactory.obj
 0001:00015c90       ??_GSoftBodySimulationData@Gu@physx@@UEAAPEAXI@Z 0000000180016c90 f i GuMeshFactory.obj
 0001:00015d00       ??_ETriangleMeshData@Gu@physx@@UEAAPEAXI@Z 0000000180016d00 f i GuMeshFactory.obj
 0001:00015d00       ??_GTriangleMeshData@Gu@physx@@UEAAPEAXI@Z 0000000180016d00 f i GuMeshFactory.obj
 0001:00015d70       ??_V@YAXPEAX_K@Z           0000000180016d70 f i LIBCMT:delete_array_size.obj
 0001:00015d70       ?__global_delete@@YAXPEAX_K@Z 0000000180016d70 f i GuMeshFactory.obj
 0001:00015d80       ?addBVH@MeshFactory@Gu@physx@@QEAAXPEAVBVH@23@_N@Z 0000000180016d80 f   GuMeshFactory.obj
 0001:00015e00       ?addConvexMesh@MeshFactory@Gu@physx@@QEAAXPEAVConvexMesh@23@_N@Z 0000000180016e00 f   GuMeshFactory.obj
 0001:00015e80       ?addFactoryListener@MeshFactory@Gu@physx@@QEAAXAEAVMeshFactoryListener@23@@Z 0000000180016e80 f   GuMeshFactory.obj
 0001:00015ef0       ?addHeightField@MeshFactory@Gu@physx@@QEAAXPEAVHeightField@23@_N@Z 0000000180016ef0 f   GuMeshFactory.obj
 0001:00015f70       ?addSoftBodyMesh@MeshFactory@Gu@physx@@QEAAXPEAVSoftBodyMesh@23@_N@Z 0000000180016f70 f   GuMeshFactory.obj
 0001:00015ff0       ?addTetrahedronMesh@MeshFactory@Gu@physx@@QEAAXPEAVTetrahedronMesh@23@_N@Z 0000000180016ff0 f   GuMeshFactory.obj
 0001:00016070       ?addTriangleMesh@MeshFactory@Gu@physx@@QEAAXPEAVTriangleMesh@23@_N@Z 0000000180017070 f   GuMeshFactory.obj
 0001:000160f0       ?allocate@?$PxArray@USlab@NodeAllocator@Gu@physx@@V?$PxReflectionAllocator@USlab@NodeAllocator@Gu@physx@@@4@@physx@@IEAAPEAUSlab@NodeAllocator@Gu@2@I@Z 00000001800170f0 f i GuMeshFactory.obj
 0001:00016190       ?allocateAdjacencies@TriangleMeshData@Gu@physx@@QEAAPEAIXZ 0000000180017190 f i GuMeshFactory.obj
 0001:00016200       ?allocateExtraTrigData@TriangleMeshData@Gu@physx@@QEAAPEAEXZ 0000000180017200 f i GuMeshFactory.obj
 0001:00016270       ?allocateFaceRemap@TriangleMeshData@Gu@physx@@QEAAPEAIXZ 0000000180017270 f i GuMeshFactory.obj
 0001:000162e0       ?allocateGridModelData@SoftBodySimulationData@Gu@physx@@QEAAXIIIIIII@Z 00000001800172e0 f i GuMeshFactory.obj
 0001:00016550       ?allocateMaterials@TetrahedronMeshData@Gu@physx@@QEAAPEAGXZ 0000000180017550 f i GuMeshFactory.obj
 0001:000165c0       ?allocateMaterials@TriangleMeshData@Gu@physx@@QEAAPEAGXZ 00000001800175c0 f i GuMeshFactory.obj
 0001:00016630       ?allocateTetrahedrons@TetrahedronMeshData@Gu@physx@@QEAAXII@Z 0000000180017630 f i GuMeshFactory.obj
 0001:000166c0       ?allocateTriangles@TriangleMeshData@Gu@physx@@QEAAPEAXI_NI@Z 00000001800176c0 f i GuMeshFactory.obj
 0001:000167b0       ?allocateVertices@MeshDataBase@Gu@physx@@QEAAPEAV?$PxVec3T@M@3@I@Z 00000001800177b0 f i GuMeshFactory.obj
 0001:00016820       ?allocateVertices@TetrahedronMeshData@Gu@physx@@QEAAPEAV?$PxVec3T@M@3@II@Z 0000000180017820 f i GuMeshFactory.obj
 0001:000168c0       ?allocatemappingData@CollisionMeshMappingData@Gu@physx@@QEAAXIIII@Z 00000001800178c0 f i GuMeshFactory.obj
 0001:00016a90       ?create@?$PxHashBase@PEAVBVH@Gu@physx@@PEAV123@U?$PxHash@PEAVBVH@Gu@physx@@@3@UGetKey@?$PxHashSetBase@PEAVBVH@Gu@physx@@U?$PxHash@PEAVBVH@Gu@physx@@@3@VPxAllocator@3@$00@3@VPxAllocator@3@$00@physx@@QEAAPEAPEAVBVH@Gu@2@AEBQEAV342@AEA_N@Z 0000000180017a90 f i GuMeshFactory.obj
 0001:00016a90       ?create@?$PxHashBase@PEAVConvexMesh@Gu@physx@@PEAV123@U?$PxHash@PEAVConvexMesh@Gu@physx@@@3@UGetKey@?$PxHashSetBase@PEAVConvexMesh@Gu@physx@@U?$PxHash@PEAVConvexMesh@Gu@physx@@@3@VPxAllocator@3@$00@3@VPxAllocator@3@$00@physx@@QEAAPEAPEAVConvexMesh@Gu@2@AEBQEAV342@AEA_N@Z 0000000180017a90 f i GuMeshFactory.obj
 0001:00016a90       ?create@?$PxHashBase@PEAVHeightField@Gu@physx@@PEAV123@U?$PxHash@PEAVHeightField@Gu@physx@@@3@UGetKey@?$PxHashSetBase@PEAVHeightField@Gu@physx@@U?$PxHash@PEAVHeightField@Gu@physx@@@3@VPxAllocator@3@$00@3@VPxAllocator@3@$00@physx@@QEAAPEAPEAVHeightField@Gu@2@AEBQEAV342@AEA_N@Z 0000000180017a90 f i GuMeshFactory.obj
 0001:00016a90       ?create@?$PxHashBase@PEAVSoftBodyMesh@Gu@physx@@PEAV123@U?$PxHash@PEAVSoftBodyMesh@Gu@physx@@@3@UGetKey@?$PxHashSetBase@PEAVSoftBodyMesh@Gu@physx@@U?$PxHash@PEAVSoftBodyMesh@Gu@physx@@@3@VPxAllocator@3@$00@3@VPxAllocator@3@$00@physx@@QEAAPEAPEAVSoftBodyMesh@Gu@2@AEBQEAV342@AEA_N@Z 0000000180017a90 f i GuMeshFactory.obj
 0001:00016a90       ?create@?$PxHashBase@PEAVTetrahedronMesh@Gu@physx@@PEAV123@U?$PxHash@PEAVTetrahedronMesh@Gu@physx@@@3@UGetKey@?$PxHashSetBase@PEAVTetrahedronMesh@Gu@physx@@U?$PxHash@PEAVTetrahedronMesh@Gu@physx@@@3@VPxAllocator@3@$00@3@VPxAllocator@3@$00@physx@@QEAAPEAPEAVTetrahedronMesh@Gu@2@AEBQEAV342@AEA_N@Z 0000000180017a90 f i GuMeshFactory.obj
 0001:00016a90       ?create@?$PxHashBase@PEAVTriangleMesh@Gu@physx@@PEAV123@U?$PxHash@PEAVTriangleMesh@Gu@physx@@@3@UGetKey@?$PxHashSetBase@PEAVTriangleMesh@Gu@physx@@U?$PxHash@PEAVTriangleMesh@Gu@physx@@@3@VPxAllocator@3@$00@3@VPxAllocator@3@$00@physx@@QEAAPEAPEAVTriangleMesh@Gu@2@AEBQEAV342@AEA_N@Z 0000000180017a90 f i GuMeshFactory.obj
 0001:00016c20       ?createBVH@MeshFactory@Gu@physx@@IEAAPEAVPxBVH@3@AEAVBVHData@23@@Z 0000000180017c20 f   GuMeshFactory.obj
 0001:00016d20       ?createBVH@MeshFactory@Gu@physx@@QEAAPEAVPxBVH@3@AEAVPxInputStream@3@@Z 0000000180017d20 f   GuMeshFactory.obj
 0001:00016e40       ?createBVH@MeshFactory@Gu@physx@@QEAAPEAVPxBVH@3@PEAX@Z 0000000180017e40 f   GuMeshFactory.obj
 0001:00016e50       ?createConvexMesh@MeshFactory@Gu@physx@@IEAAPEAVPxConvexMesh@3@AEAUConvexHullInitData@23@@Z 0000000180017e50 f   GuMeshFactory.obj
 0001:00016f50       ?createConvexMesh@MeshFactory@Gu@physx@@QEAAPEAVPxConvexMesh@3@AEAVPxInputStream@3@@Z 0000000180017f50 f   GuMeshFactory.obj
 0001:00017070       ?createConvexMesh@MeshFactory@Gu@physx@@QEAAPEAVPxConvexMesh@3@PEAX@Z 0000000180018070 f   GuMeshFactory.obj
 0001:00017080       ?createHeightField@MeshFactory@Gu@physx@@QEAAPEAVPxHeightField@3@AEAVPxInputStream@3@@Z 0000000180018080 f   GuMeshFactory.obj
 0001:000171a0       ?createHeightField@MeshFactory@Gu@physx@@QEAAPEAVPxHeightField@3@PEAX@Z 00000001800181a0 f   GuMeshFactory.obj
 0001:000172a0       ?createSoftBodyMesh@MeshFactory@Gu@physx@@IEAAPEAVPxSoftBodyMesh@3@AEAVSoftBodyMeshData@23@@Z 00000001800182a0 f   GuMeshFactory.obj
 0001:000173a0       ?createSoftBodyMesh@MeshFactory@Gu@physx@@QEAAPEAVPxSoftBodyMesh@3@AEAVPxInputStream@3@@Z 00000001800183a0 f   GuMeshFactory.obj
 0001:00017960       ?createSoftBodyMesh@MeshFactory@Gu@physx@@QEAAPEAVPxSoftBodyMesh@3@PEAX@Z 0000000180018960 f   GuMeshFactory.obj
 0001:00017970       ?createTetrahedronMesh@MeshFactory@Gu@physx@@IEAAPEAVPxTetrahedronMesh@3@AEAVTetrahedronMeshData@23@@Z 0000000180018970 f   GuMeshFactory.obj
 0001:00017a60       ?createTetrahedronMesh@MeshFactory@Gu@physx@@QEAAPEAVPxTetrahedronMesh@3@AEAVPxInputStream@3@@Z 0000000180018a60 f   GuMeshFactory.obj
 0001:00017ac0       ?createTetrahedronMesh@MeshFactory@Gu@physx@@QEAAPEAVPxTetrahedronMesh@3@PEAX@Z 0000000180018ac0 f   GuMeshFactory.obj
 0001:00017ad0       ?createTriangleMesh@MeshFactory@Gu@physx@@IEAAPEAVPxTriangleMesh@3@AEAVTriangleMeshData@23@@Z 0000000180018ad0 f   GuMeshFactory.obj
 0001:00017c60       ?createTriangleMesh@MeshFactory@Gu@physx@@QEAAPEAVPxTriangleMesh@3@AEAVPxInputStream@3@@Z 0000000180018c60 f   GuMeshFactory.obj
 0001:00017cc0       ?createTriangleMesh@MeshFactory@Gu@physx@@QEAAPEAVPxTriangleMesh@3@PEAX@Z 0000000180018cc0 f   GuMeshFactory.obj
 0001:00017cd0       ?erase@?$PxHashBase@PEAVBVH@Gu@physx@@PEAV123@U?$PxHash@PEAVBVH@Gu@physx@@@3@UGetKey@?$PxHashSetBase@PEAVBVH@Gu@physx@@U?$PxHash@PEAVBVH@Gu@physx@@@3@VPxAllocator@3@$00@3@VPxAllocator@3@$00@physx@@QEAA_NAEBQEAVBVH@Gu@2@@Z 0000000180018cd0 f i GuMeshFactory.obj
 0001:00017cd0       ?erase@?$PxHashBase@PEAVConvexMesh@Gu@physx@@PEAV123@U?$PxHash@PEAVConvexMesh@Gu@physx@@@3@UGetKey@?$PxHashSetBase@PEAVConvexMesh@Gu@physx@@U?$PxHash@PEAVConvexMesh@Gu@physx@@@3@VPxAllocator@3@$00@3@VPxAllocator@3@$00@physx@@QEAA_NAEBQEAVConvexMesh@Gu@2@@Z 0000000180018cd0 f i GuMeshFactory.obj
 0001:00017cd0       ?erase@?$PxHashBase@PEAVHeightField@Gu@physx@@PEAV123@U?$PxHash@PEAVHeightField@Gu@physx@@@3@UGetKey@?$PxHashSetBase@PEAVHeightField@Gu@physx@@U?$PxHash@PEAVHeightField@Gu@physx@@@3@VPxAllocator@3@$00@3@VPxAllocator@3@$00@physx@@QEAA_NAEBQEAVHeightField@Gu@2@@Z 0000000180018cd0 f i GuMeshFactory.obj
 0001:00017cd0       ?erase@?$PxHashBase@PEAVSoftBodyMesh@Gu@physx@@PEAV123@U?$PxHash@PEAVSoftBodyMesh@Gu@physx@@@3@UGetKey@?$PxHashSetBase@PEAVSoftBodyMesh@Gu@physx@@U?$PxHash@PEAVSoftBodyMesh@Gu@physx@@@3@VPxAllocator@3@$00@3@VPxAllocator@3@$00@physx@@QEAA_NAEBQEAVSoftBodyMesh@Gu@2@@Z 0000000180018cd0 f i GuMeshFactory.obj
 0001:00017cd0       ?erase@?$PxHashBase@PEAVTetrahedronMesh@Gu@physx@@PEAV123@U?$PxHash@PEAVTetrahedronMesh@Gu@physx@@@3@UGetKey@?$PxHashSetBase@PEAVTetrahedronMesh@Gu@physx@@U?$PxHash@PEAVTetrahedronMesh@Gu@physx@@@3@VPxAllocator@3@$00@3@VPxAllocator@3@$00@physx@@QEAA_NAEBQEAVTetrahedronMesh@Gu@2@@Z 0000000180018cd0 f i GuMeshFactory.obj
 0001:00017cd0       ?erase@?$PxHashBase@PEAVTriangleMesh@Gu@physx@@PEAV123@U?$PxHash@PEAVTriangleMesh@Gu@physx@@@3@UGetKey@?$PxHashSetBase@PEAVTriangleMesh@Gu@physx@@U?$PxHash@PEAVTriangleMesh@Gu@physx@@@3@VPxAllocator@3@$00@3@VPxAllocator@3@$00@physx@@QEAA_NAEBQEAVTriangleMesh@Gu@2@@Z 0000000180018cd0 f i GuMeshFactory.obj
 0001:00017e50       ?getBVHs@MeshFactory@Gu@physx@@QEBAIPEAPEAVPxBVH@3@II@Z 0000000180018e50 f   GuMeshFactory.obj
 0001:00017ef0       ?getBounds@AABBTreeBounds@Gu@physx@@QEAAPEAVPxBounds3@3@XZ 0000000180018ef0 f i GuMeshFactory.obj
 0001:00017ef0       ?getBounds@AABBTreeBounds@Gu@physx@@QEBAPEBVPxBounds3@3@XZ 0000000180018ef0 f i GuMeshFactory.obj
 0001:00017f00       ?getConvexMeshes@MeshFactory@Gu@physx@@QEBAIPEAPEAVPxConvexMesh@3@II@Z 0000000180018f00 f   GuMeshFactory.obj
 0001:00017fa0       ?getHeightFields@MeshFactory@Gu@physx@@QEBAIPEAPEAVPxHeightField@3@II@Z 0000000180018fa0 f   GuMeshFactory.obj
 0001:00018040       ?getNbBVHs@MeshFactory@Gu@physx@@QEBAIXZ 0000000180019040 f   GuMeshFactory.obj
 0001:00018080       ?getNbConvexMeshes@MeshFactory@Gu@physx@@QEBAIXZ 0000000180019080 f   GuMeshFactory.obj
 0001:000180c0       ?getNbHeightFields@MeshFactory@Gu@physx@@QEBAIXZ 00000001800190c0 f   GuMeshFactory.obj
 0001:00018100       ?getNbPrimitives@AABBTreeBuildNode@Gu@physx@@QEBAIXZ 0000000180019100 f i GuMeshFactory.obj
 0001:00018100       ?getNbRuntimePrimitives@AABBTreeBuildNode@Gu@physx@@QEBAIXZ 0000000180019100 f i GuMeshFactory.obj
 0001:00018110       ?getNbSoftBodyMeshes@MeshFactory@Gu@physx@@QEBAIXZ 0000000180019110 f   GuMeshFactory.obj
 0001:00018150       ?getNbTetrahedronMeshes@MeshFactory@Gu@physx@@QEBAIXZ 0000000180019150 f   GuMeshFactory.obj
 0001:00018190       ?getNbTriangleMeshes@MeshFactory@Gu@physx@@QEBAIXZ 0000000180019190 f   GuMeshFactory.obj
 0001:000181d0       ?getNeg@AABBTreeBuildNode@Gu@physx@@QEBAPEBV123@XZ 00000001800191d0 f i GuMeshFactory.obj
 0001:000181f0       ?getPrimitives@AABBTreeBuildNode@Gu@physx@@QEAAPEAIPEAI@Z 00000001800191f0 f i GuMeshFactory.obj
 0001:000181f0       ?getPrimitives@AABBTreeBuildNode@Gu@physx@@QEBAPEBIPEBI@Z 00000001800191f0 f i GuMeshFactory.obj
 0001:00018200       ?getSoftBodyMeshes@MeshFactory@Gu@physx@@QEBAIPEAPEAVPxSoftBodyMesh@3@II@Z 0000000180019200 f   GuMeshFactory.obj
 0001:000182a0       ?getTetrahedronMeshes@MeshFactory@Gu@physx@@QEBAIPEAPEAVPxTetrahedronMesh@3@II@Z 00000001800192a0 f   GuMeshFactory.obj
 0001:00018330       ?getTriangleMeshes@MeshFactory@Gu@physx@@QEBAIPEAPEAVPxTriangleMesh@3@II@Z 0000000180019330 f   GuMeshFactory.obj
 0001:000183c0       ?growAndPushBack@?$PxArray@PEAVMeshFactoryListener@Gu@physx@@V?$PxReflectionAllocator@PEAVMeshFactoryListener@Gu@physx@@@3@@physx@@IEAAAEAPEAVMeshFactoryListener@Gu@2@AEBQEAV342@@Z 00000001800193c0 f i GuMeshFactory.obj
 0001:000184e0       ?isLeaf@AABBTreeBuildNode@Gu@physx@@QEBA_NXZ 00000001800194e0 f i GuMeshFactory.obj
 0001:00019ec0       ?moveFrom@AABBTreeBounds@Gu@physx@@QEAAXAEAV123@@Z 000000018001aec0 f i GuMeshFactory.obj
 0001:00019ed0       ?notifyFactoryListener@MeshFactory@Gu@physx@@QEAAXPEBVPxBase@3@G@Z 000000018001aed0 f   GuMeshFactory.obj
 0001:00019f40       ?ownsMemory@AABBTreeBounds@Gu@physx@@QEBA_NXZ 000000018001af40 f i GuMeshFactory.obj
 0001:0001a220       ?recreate@?$PxArray@USlab@NodeAllocator@Gu@physx@@V?$PxReflectionAllocator@USlab@NodeAllocator@Gu@physx@@@4@@physx@@IEAAXI@Z 000000018001b220 f i GuMeshFactory.obj
 0001:0001a2d0       ?release@CollisionMeshMappingData@Gu@physx@@UEAAXXZ 000000018001b2d0 f i GuMeshFactory.obj
 0001:0001a2f0       ?release@MeshFactory@Gu@physx@@QEAAXXZ 000000018001b2f0 f   GuMeshFactory.obj
 0001:0001a3f0       ?remove@MeshFactory@Gu@physx@@QEAA_NAEAVPxBase@3@@Z 000000018001b3f0 f   GuMeshFactory.obj
 0001:0001a4f0       ?removeBVH@MeshFactory@Gu@physx@@QEAA_NAEAVPxBVH@3@@Z 000000018001b4f0 f   GuMeshFactory.obj
 0001:0001a540       ?removeConvexMesh@MeshFactory@Gu@physx@@QEAA_NAEAVPxConvexMesh@3@@Z 000000018001b540 f   GuMeshFactory.obj
 0001:0001a590       ?removeFactoryListener@MeshFactory@Gu@physx@@QEAAXAEAVMeshFactoryListener@23@@Z 000000018001b590 f   GuMeshFactory.obj
 0001:0001a620       ?removeHeightField@MeshFactory@Gu@physx@@QEAA_NAEAVPxHeightField@3@@Z 000000018001b620 f   GuMeshFactory.obj
 0001:0001a670       ?removeSoftBodyMesh@MeshFactory@Gu@physx@@QEAA_NAEAVPxSoftBodyMesh@3@@Z 000000018001b670 f   GuMeshFactory.obj
 0001:0001a6c0       ?removeTetrahedronMesh@MeshFactory@Gu@physx@@QEAA_NAEAVPxTetrahedronMesh@3@@Z 000000018001b6c0 f   GuMeshFactory.obj
 0001:0001a710       ?removeTriangleMesh@MeshFactory@Gu@physx@@QEAA_NAEAVPxTriangleMesh@3@@Z 000000018001b710 f   GuMeshFactory.obj
 0001:0001a760       ?reserveInternal@?$PxHashBase@PEAVBVH@Gu@physx@@PEAV123@U?$PxHash@PEAVBVH@Gu@physx@@@3@UGetKey@?$PxHashSetBase@PEAVBVH@Gu@physx@@U?$PxHash@PEAVBVH@Gu@physx@@@3@VPxAllocator@3@$00@3@VPxAllocator@3@$00@physx@@AEAAXI@Z 000000018001b760 f i GuMeshFactory.obj
 0001:0001a760       ?reserveInternal@?$PxHashBase@PEAVConvexMesh@Gu@physx@@PEAV123@U?$PxHash@PEAVConvexMesh@Gu@physx@@@3@UGetKey@?$PxHashSetBase@PEAVConvexMesh@Gu@physx@@U?$PxHash@PEAVConvexMesh@Gu@physx@@@3@VPxAllocator@3@$00@3@VPxAllocator@3@$00@physx@@AEAAXI@Z 000000018001b760 f i GuMeshFactory.obj
 0001:0001a760       ?reserveInternal@?$PxHashBase@PEAVHeightField@Gu@physx@@PEAV123@U?$PxHash@PEAVHeightField@Gu@physx@@@3@UGetKey@?$PxHashSetBase@PEAVHeightField@Gu@physx@@U?$PxHash@PEAVHeightField@Gu@physx@@@3@VPxAllocator@3@$00@3@VPxAllocator@3@$00@physx@@AEAAXI@Z 000000018001b760 f i GuMeshFactory.obj
 0001:0001a760       ?reserveInternal@?$PxHashBase@PEAVSoftBodyMesh@Gu@physx@@PEAV123@U?$PxHash@PEAVSoftBodyMesh@Gu@physx@@@3@UGetKey@?$PxHashSetBase@PEAVSoftBodyMesh@Gu@physx@@U?$PxHash@PEAVSoftBodyMesh@Gu@physx@@@3@VPxAllocator@3@$00@3@VPxAllocator@3@$00@physx@@AEAAXI@Z 000000018001b760 f i GuMeshFactory.obj
 0001:0001a760       ?reserveInternal@?$PxHashBase@PEAVTetrahedronMesh@Gu@physx@@PEAV123@U?$PxHash@PEAVTetrahedronMesh@Gu@physx@@@3@UGetKey@?$PxHashSetBase@PEAVTetrahedronMesh@Gu@physx@@U?$PxHash@PEAVTetrahedronMesh@Gu@physx@@@3@VPxAllocator@3@$00@3@VPxAllocator@3@$00@physx@@AEAAXI@Z 000000018001b760 f i GuMeshFactory.obj
 0001:0001a760       ?reserveInternal@?$PxHashBase@PEAVTriangleMesh@Gu@physx@@PEAV123@U?$PxHash@PEAVTriangleMesh@Gu@physx@@@3@UGetKey@?$PxHashSetBase@PEAVTriangleMesh@Gu@physx@@U?$PxHash@PEAVTriangleMesh@Gu@physx@@@3@VPxAllocator@3@$00@3@VPxAllocator@3@$00@physx@@AEAAXI@Z 000000018001b760 f i GuMeshFactory.obj
 0001:0001a930       ?setBounds@AABBTreeBounds@Gu@physx@@QEAAXPEAVPxBounds3@3@@Z 000000018001b930 f i GuMeshFactory.obj
 0001:0001a940       ?setNbRunTimePrimitives@AABBTreeBuildNode@Gu@physx@@QEAAXI@Z 000000018001b940 f i GuMeshFactory.obj
 0001:0001a950       ?takeOwnership@AABBTreeBounds@Gu@physx@@QEAAXXZ 000000018001b950 f i GuMeshFactory.obj
 0001:0001a960       getInsertionCallback       000000018001b960 f   GuMeshFactory.obj
 0001:0001a970       ??4BigConvexData@physx@@QEAAAEAV01@AEBV01@@Z 000000018001b970 f i GuMetaData.obj
 0001:0001a990       ?GetAdjacentVerts@BigConvexData@physx@@QEBAPEBEXZ 000000018001b990 f i GuMetaData.obj
 0001:0001a990       ?getSoftBodyAuxData@SoftBodyMesh@Gu@physx@@UEAAPEAVPxSoftBodyAuxData@3@XZ 000000018001b990 f i GuTetrahedronMesh.obj
 0001:0001a990       ?getSoftBodyAuxData@SoftBodyMesh@Gu@physx@@UEBAPEBVPxSoftBodyAuxData@3@XZ 000000018001b990 f i GuTetrahedronMesh.obj
 0001:0001a990       ?getTransforms@PruningPool@Gu@physx@@QEAAPEAV?$PxTransformT@M@3@XZ 000000018001b990 f i GuIncrementalAABBPrunerCore.obj
 0001:0001a990       ?getTransforms@PruningPool@Gu@physx@@QEBAPEBV?$PxTransformT@M@3@XZ 000000018001b990 f i GuIncrementalAABBPrunerCore.obj
 0001:0001a990       ?getTriangles@TriangleMesh@Gu@physx@@UEBAPEBXXZ 000000018001b990 f i GuTriangleMesh.obj
 0001:0001a9a0       ?GetNbNeighbors@BigConvexData@physx@@QEBAGI@Z 000000018001b9a0 f i GuMetaData.obj
 0001:0001a9a0       ?GetValency@BigConvexData@physx@@QEBAGI@Z 000000018001b9a0 f i GuMetaData.obj
 0001:0001a9b0       ?GetNbSamples@BigConvexData@physx@@QEBAIXZ 000000018001b9b0 f i GuMetaData.obj
 0001:0001a9c0       ?GetNbVerts@BigConvexData@physx@@QEBAIXZ 000000018001b9c0 f i GuMetaData.obj
 0001:0001a9c0       ?getNbVertices@TetrahedronMesh@Gu@physx@@UEBAIXZ 000000018001b9c0 f i GuTetrahedronMesh.obj
 0001:0001a9c0       ?getNbVertices@TriangleMesh@Gu@physx@@UEBAIXZ 000000018001b9c0 f i GuTriangleMesh.obj
 0001:0001a9c0       ?length@pcharNode@@UEBAHXZ 000000018001b9c0 f i libvcruntime:undname.obj
 0001:0001a9c0       ?raw_length@pcharNode@@UEBAHXZ 000000018001b9c0 f i libvcruntime:undname.obj
 0001:0001a9d0       ?GetNeighbors@BigConvexData@physx@@QEBAPEBEI@Z 000000018001b9d0 f i GuMetaData.obj
 0001:0001a9e0       ?GetOffset@BigConvexData@physx@@QEBAGI@Z 000000018001b9e0 f i GuMetaData.obj
 0001:0001a9f0       ?GetSubdiv@BigConvexData@physx@@QEBAIXZ 000000018001b9f0 f i GuMetaData.obj
 0001:0001aa00       ?getBinaryMetaData@BV4Tree@Gu@physx@@SAXAEAVPxOutputStream@3@@Z 000000018001ba00 f   GuMetaData.obj
 0001:0001afa0       ?getBinaryMetaData@BV4TriangleMesh@Gu@physx@@SAXAEAVPxOutputStream@3@@Z 000000018001bfa0 f   GuMetaData.obj
 0001:0001b320       ?getBinaryMetaData@BigConvexData@physx@@SAXAEAVPxOutputStream@2@@Z 000000018001c320 f   GuMetaData.obj
 0001:0001b5e0       ?getBinaryMetaData@ConvexMesh@Gu@physx@@SAXAEAVPxOutputStream@3@@Z 000000018001c5e0 f   GuMetaData.obj
 0001:0001bc70       ?getBinaryMetaData@HeightField@Gu@physx@@SAXAEAVPxOutputStream@3@@Z 000000018001cc70 f   GuMetaData.obj
 0001:0001c060       ?getBinaryMetaData@RTree@Gu@physx@@SAXAEAVPxOutputStream@3@@Z 000000018001d060 f   GuMetaData.obj
 0001:0001c390       ?getBinaryMetaData@RTreeTriangleMesh@Gu@physx@@SAXAEAVPxOutputStream@3@@Z 000000018001d390 f   GuMetaData.obj
 0001:0001c470       ?getBinaryMetaData@TriangleMesh@Gu@physx@@SAXAEAVPxOutputStream@3@@Z 000000018001d470 f   GuMetaData.obj
 0001:0001dfb0       ?doSupport@?$SupportLocalImpl@VConvexHullNoScaleV@Gu@physx@@@Gu@physx@@UEBA?AT__m128@@AEBT4@@Z 000000018001efb0 f i GuMTD.obj
 0001:0001e000       ?doSupport@?$SupportLocalImpl@VConvexHullNoScaleV@Gu@physx@@@Gu@physx@@UEBAXAEBT__m128@@AEAT4@1@Z 000000018001f000 f i GuMTD.obj
 0001:0001e180       ?populateVerts@?$SupportLocalImpl@VConvexHullNoScaleV@Gu@physx@@@Gu@physx@@UEBAXPEBEIPEBV?$PxVec3T@M@3@PEAT__m128@@@Z 000000018001f180 f i GuMTD.obj
 0001:0001e1c0       ?getInternalData@TriangleMesh@Gu@physx@@UEBA_NAEAUPxTriangleMeshInternalData@3@_N@Z 000000018001f1c0 f   GuTriangleMesh.obj
 0001:0001e1c0       ?isDynamic@Pruner@Gu@physx@@UEBA_NXZ 000000018001f1c0 f   GuIncrementalAABBPruner.obj
 0001:0001ff60       ??$gjk@U?$LocalConvex@VCapsuleV@Gu@physx@@@Gu@physx@@U?$LocalConvex@VConvexHullV@Gu@physx@@@23@@Gu@physx@@YA?AW4GjkStatus@01@AEBU?$LocalConvex@VCapsuleV@Gu@physx@@@01@AEBU?$LocalConvex@VConvexHullV@Gu@physx@@@01@AEBT__m128@@2AEAT5@333@Z 0000000180020f60 f i GuMTD.obj
 0001:00020cc0       ??0SeparatingAxes@Gu@physx@@QEAA@$$QEAV012@@Z 0000000180021cc0 f i GuMTD.obj
 0001:00020cc0       ??0SeparatingAxes@Gu@physx@@QEAA@AEBV012@@Z 0000000180021cc0 f i GuMTD.obj
 0001:00020dd0       ??0SeparatingAxes@Gu@physx@@QEAA@XZ 0000000180021dd0 f i GuMTD.obj
 0001:00020de0       ??4SeparatingAxes@Gu@physx@@QEAAAEAV012@$$QEAV012@@Z 0000000180021de0 f i GuMTD.obj
 0001:00020de0       ??4SeparatingAxes@Gu@physx@@QEAAAEAV012@AEBV012@@Z 0000000180021de0 f i GuMTD.obj
 0001:00020ef0       ??_E?$LocalConvex@UCustomConvexV@@@Gu@physx@@UEAAPEAXI@Z 0000000180021ef0 f i GuGjkQuery.obj
 0001:00020ef0       ??_E?$LocalConvex@UPointConvexV@@@Gu@physx@@UEAAPEAXI@Z 0000000180021ef0 f i GuGjkQuery.obj
 0001:00020ef0       ??_E?$LocalConvex@VBoxV@Gu@physx@@@Gu@physx@@UEAAPEAXI@Z 0000000180021ef0 f i GuSweepTests.obj
 0001:00020ef0       ??_E?$LocalConvex@VCapsuleV@Gu@physx@@@Gu@physx@@UEAAPEAXI@Z 0000000180021ef0 f i GuMTD.obj
 0001:00020ef0       ??_E?$LocalConvex@VConvexHullNoScaleV@Gu@physx@@@Gu@physx@@UEAAPEAXI@Z 0000000180021ef0 f i GuPCMContactBoxConvex.obj
 0001:00020ef0       ??_E?$LocalConvex@VConvexHullV@Gu@physx@@@Gu@physx@@UEAAPEAXI@Z 0000000180021ef0 f i GuMTD.obj
 0001:00020ef0       ??_E?$LocalConvex@VTetrahedronV@Gu@physx@@@Gu@physx@@UEAAPEAXI@Z 0000000180021ef0 f i GuCookingTetrahedronMesh.obj
 0001:00020ef0       ??_E?$LocalConvex@VTriangleV@Gu@physx@@@Gu@physx@@UEAAPEAXI@Z 0000000180021ef0 f i GuSweepTests.obj
 0001:00020ef0       ??_EGjkConvex@Gu@physx@@UEAAPEAXI@Z 0000000180021ef0 f i GuMTD.obj
 0001:00020ef0       ??_G?$LocalConvex@UCustomConvexV@@@Gu@physx@@UEAAPEAXI@Z 0000000180021ef0 f i GuGjkQuery.obj
 0001:00020ef0       ??_G?$LocalConvex@UPointConvexV@@@Gu@physx@@UEAAPEAXI@Z 0000000180021ef0 f i GuGjkQuery.obj
 0001:00020ef0       ??_G?$LocalConvex@VBoxV@Gu@physx@@@Gu@physx@@UEAAPEAXI@Z 0000000180021ef0 f i GuSweepTests.obj
 0001:00020ef0       ??_G?$LocalConvex@VCapsuleV@Gu@physx@@@Gu@physx@@UEAAPEAXI@Z 0000000180021ef0 f i GuMTD.obj
 0001:00020ef0       ??_G?$LocalConvex@VConvexHullNoScaleV@Gu@physx@@@Gu@physx@@UEAAPEAXI@Z 0000000180021ef0 f i GuPCMContactBoxConvex.obj
 0001:00020ef0       ??_G?$LocalConvex@VConvexHullV@Gu@physx@@@Gu@physx@@UEAAPEAXI@Z 0000000180021ef0 f i GuMTD.obj
 0001:00020ef0       ??_G?$LocalConvex@VTetrahedronV@Gu@physx@@@Gu@physx@@UEAAPEAXI@Z 0000000180021ef0 f i GuCookingTetrahedronMesh.obj
 0001:00020ef0       ??_G?$LocalConvex@VTriangleV@Gu@physx@@@Gu@physx@@UEAAPEAXI@Z 0000000180021ef0 f i GuSweepTests.obj
 0001:00020ef0       ??_GGjkConvex@Gu@physx@@UEAAPEAXI@Z 0000000180021ef0 f i GuMTD.obj
 0001:00025070       ?getAxes@SeparatingAxes@Gu@physx@@QEBAPEBV?$PxVec3T@M@3@XZ 0000000180026070 f i GuMTD.obj
 0001:00025080       ?getCenter@?$LocalConvex@UCustomConvexV@@@Gu@physx@@UEBA?AT__m128@@XZ 0000000180026080 f i GuGjkQuery.obj
 0001:00025080       ?getCenter@?$LocalConvex@UPointConvexV@@@Gu@physx@@UEBA?AT__m128@@XZ 0000000180026080 f i GuGjkQuery.obj
 0001:00025080       ?getCenter@?$LocalConvex@VBoxV@Gu@physx@@@Gu@physx@@UEBA?AT__m128@@XZ 0000000180026080 f i GuSweepTests.obj
 0001:00025080       ?getCenter@?$LocalConvex@VCapsuleV@Gu@physx@@@Gu@physx@@UEBA?AT__m128@@XZ 0000000180026080 f i GuMTD.obj
 0001:00025080       ?getCenter@?$LocalConvex@VConvexHullNoScaleV@Gu@physx@@@Gu@physx@@UEBA?AT__m128@@XZ 0000000180026080 f i GuPCMContactBoxConvex.obj
 0001:00025080       ?getCenter@?$LocalConvex@VConvexHullV@Gu@physx@@@Gu@physx@@UEBA?AT__m128@@XZ 0000000180026080 f i GuMTD.obj
 0001:00025080       ?getCenter@?$LocalConvex@VTetrahedronV@Gu@physx@@@Gu@physx@@UEBA?AT__m128@@XZ 0000000180026080 f i GuCookingTetrahedronMesh.obj
 0001:00025080       ?getCenter@?$LocalConvex@VTriangleV@Gu@physx@@@Gu@physx@@UEBA?AT__m128@@XZ 0000000180026080 f i GuSweepTests.obj
 0001:00025090       ?getCount@BuildStats@Gu@physx@@QEBAIXZ 0000000180026090 f i GuBV4Build.obj
 0001:00025090       ?getNbActiveObjects@PruningPool@Gu@physx@@QEBAIXZ 0000000180026090 f i GuIncrementalAABBPrunerCore.obj
 0001:00025090       ?getNumAxes@SeparatingAxes@Gu@physx@@QEBAIXZ 0000000180026090 f i GuMTD.obj
 0001:000250a0       ?getSweepMargin@?$LocalConvex@VCapsuleV@Gu@physx@@@Gu@physx@@UEBA?AT__m128@@XZ 00000001800260a0 f i GuMTD.obj
 0001:000250a0       ?getSweepMargin@?$RelativeConvex@VCapsuleV@Gu@physx@@@Gu@physx@@UEBA?AT__m128@@XZ 00000001800260a0 f i GuCCDSweepPrimitives.obj
 0001:000250b0       ?getSweepMargin@?$LocalConvex@UCustomConvexV@@@Gu@physx@@UEBA?AT__m128@@XZ 00000001800260b0 f i GuGjkQuery.obj
 0001:000250b0       ?getSweepMargin@?$LocalConvex@UPointConvexV@@@Gu@physx@@UEBA?AT__m128@@XZ 00000001800260b0 f i GuGjkQuery.obj
 0001:000250b0       ?getSweepMargin@?$LocalConvex@VBoxV@Gu@physx@@@Gu@physx@@UEBA?AT__m128@@XZ 00000001800260b0 f i GuSweepTests.obj
 0001:000250b0       ?getSweepMargin@?$LocalConvex@VConvexHullNoScaleV@Gu@physx@@@Gu@physx@@UEBA?AT__m128@@XZ 00000001800260b0 f i GuPCMContactBoxConvex.obj
 0001:000250b0       ?getSweepMargin@?$LocalConvex@VConvexHullV@Gu@physx@@@Gu@physx@@UEBA?AT__m128@@XZ 00000001800260b0 f i GuMTD.obj
 0001:000250b0       ?getSweepMargin@?$RelativeConvex@UCustomConvexV@@@Gu@physx@@UEBA?AT__m128@@XZ 00000001800260b0 f i GuGjkQuery.obj
 0001:000250b0       ?getSweepMargin@?$RelativeConvex@VBoxV@Gu@physx@@@Gu@physx@@UEBA?AT__m128@@XZ 00000001800260b0 f i GuOverlapTests.obj
 0001:000250b0       ?getSweepMargin@?$RelativeConvex@VConvexHullNoScaleV@Gu@physx@@@Gu@physx@@UEBA?AT__m128@@XZ 00000001800260b0 f i GuPCMContactConvexConvex.obj
 0001:000250b0       ?getSweepMargin@?$RelativeConvex@VConvexHullV@Gu@physx@@@Gu@physx@@UEBA?AT__m128@@XZ 00000001800260b0 f i GuOverlapTests.obj
 0001:000250d0       ?getSweepMargin@GjkConvex@Gu@physx@@UEBA?AT__m128@@XZ 00000001800260d0 f i GuMTD.obj
 0001:000250f0       ?pointConvexDistance@@YA_NAEAV?$PxVec3T@M@physx@@0AEAMAEBV12@PEBVConvexMesh@Gu@2@AEBVPxMeshScale@2@AEBV?$PxTransformT@M@2@@Z 00000001800260f0 f   GuMTD.obj
 0001:00025e50       ?reset@SeparatingAxes@Gu@physx@@QEAAXXZ 0000000180026e50 f i GuMTD.obj
 0001:00025e60       ?support@?$LocalConvex@VCapsuleV@Gu@physx@@@Gu@physx@@UEBA?AT__m128@@AEBT4@@Z 0000000180026e60 f i GuMTD.obj
 0001:00025ec0       ?support@?$LocalConvex@VCapsuleV@Gu@physx@@@Gu@physx@@UEBA?AT__m128@@AEBT4@AEAH@Z 0000000180026ec0 f i GuMTD.obj
 0001:00025f30       ?support@?$LocalConvex@VConvexHullV@Gu@physx@@@Gu@physx@@UEBA?AT__m128@@AEBT4@@Z 0000000180026f30 f i GuMTD.obj
 0001:00026010       ?support@?$LocalConvex@VConvexHullV@Gu@physx@@@Gu@physx@@UEBA?AT__m128@@AEBT4@AEAH@Z 0000000180027010 f i GuMTD.obj
 0001:000260e0       ?support@GjkConvex@Gu@physx@@UEBA?AT__m128@@AEBT4@@Z 00000001800270e0 f i GuMTD.obj
 0001:00026100       ?support@GjkConvex@Gu@physx@@UEBA?AT__m128@@AEBT4@AEAH@Z 0000000180027100 f i GuMTD.obj
 0001:00026120       ?supportPoint@?$LocalConvex@VCapsuleV@Gu@physx@@@Gu@physx@@UEBA?AT__m128@@H@Z 0000000180027120 f i GuMTD.obj
 0001:00026150       ?supportPoint@?$LocalConvex@VConvexHullV@Gu@physx@@@Gu@physx@@UEBA?AT__m128@@H@Z 0000000180027150 f i GuMTD.obj
 0001:000261a0       ?supportPoint@GjkConvex@Gu@physx@@UEBA?AT__m128@@H@Z 00000001800271a0 f i GuMTD.obj
 0001:000261c0       ?supportPoint@?$RelativeConvex@VBoxV@Gu@physx@@@Gu@physx@@UEBA?AT__m128@@H@Z 00000001800271c0 f i GuOverlapTests.obj
 0001:00026230       ?support@?$RelativeConvex@VBoxV@Gu@physx@@@Gu@physx@@UEBA?AT__m128@@AEBT4@@Z 0000000180027230 f i GuOverlapTests.obj
 0001:000262b0       ?support@?$RelativeConvex@VBoxV@Gu@physx@@@Gu@physx@@UEBA?AT__m128@@AEBT4@AEAH@Z 00000001800272b0 f i GuOverlapTests.obj
 0001:00026340       ?getCenter@?$RelativeConvex@UCustomConvexV@@@Gu@physx@@UEBA?AT__m128@@XZ 0000000180027340 f i GuGjkQuery.obj
 0001:00026340       ?getCenter@?$RelativeConvex@VBoxV@Gu@physx@@@Gu@physx@@UEBA?AT__m128@@XZ 0000000180027340 f i GuOverlapTests.obj
 0001:00026340       ?getCenter@?$RelativeConvex@VCapsuleV@Gu@physx@@@Gu@physx@@UEBA?AT__m128@@XZ 0000000180027340 f i GuCCDSweepPrimitives.obj
 0001:00026340       ?getCenter@?$RelativeConvex@VConvexHullNoScaleV@Gu@physx@@@Gu@physx@@UEBA?AT__m128@@XZ 0000000180027340 f i GuPCMContactConvexConvex.obj
 0001:00026340       ?getCenter@?$RelativeConvex@VConvexHullV@Gu@physx@@@Gu@physx@@UEBA?AT__m128@@XZ 0000000180027340 f i GuOverlapTests.obj
 0001:00026340       ?getCenter@?$RelativeConvex@VTriangleV@Gu@physx@@@Gu@physx@@UEBA?AT__m128@@XZ 0000000180027340 f i GuCCDSweepPrimitives.obj
 0001:00026380       ??_E?$RelativeConvex@UCustomConvexV@@@Gu@physx@@UEAAPEAXI@Z 0000000180027380 f i GuGjkQuery.obj
 0001:00026380       ??_E?$RelativeConvex@VBoxV@Gu@physx@@@Gu@physx@@UEAAPEAXI@Z 0000000180027380 f i GuOverlapTests.obj
 0001:00026380       ??_E?$RelativeConvex@VCapsuleV@Gu@physx@@@Gu@physx@@UEAAPEAXI@Z 0000000180027380 f i GuCCDSweepPrimitives.obj
 0001:00026380       ??_E?$RelativeConvex@VConvexHullNoScaleV@Gu@physx@@@Gu@physx@@UEAAPEAXI@Z 0000000180027380 f i GuPCMContactConvexConvex.obj
 0001:00026380       ??_E?$RelativeConvex@VConvexHullV@Gu@physx@@@Gu@physx@@UEAAPEAXI@Z 0000000180027380 f i GuOverlapTests.obj
 0001:00026380       ??_E?$RelativeConvex@VTriangleV@Gu@physx@@@Gu@physx@@UEAAPEAXI@Z 0000000180027380 f i GuCCDSweepPrimitives.obj
 0001:00026380       ??_G?$RelativeConvex@UCustomConvexV@@@Gu@physx@@UEAAPEAXI@Z 0000000180027380 f i GuGjkQuery.obj
 0001:00026380       ??_G?$RelativeConvex@VBoxV@Gu@physx@@@Gu@physx@@UEAAPEAXI@Z 0000000180027380 f i GuOverlapTests.obj
 0001:00026380       ??_G?$RelativeConvex@VCapsuleV@Gu@physx@@@Gu@physx@@UEAAPEAXI@Z 0000000180027380 f i GuCCDSweepPrimitives.obj
 0001:00026380       ??_G?$RelativeConvex@VConvexHullNoScaleV@Gu@physx@@@Gu@physx@@UEAAPEAXI@Z 0000000180027380 f i GuPCMContactConvexConvex.obj
 0001:00026380       ??_G?$RelativeConvex@VConvexHullV@Gu@physx@@@Gu@physx@@UEAAPEAXI@Z 0000000180027380 f i GuOverlapTests.obj
 0001:00026380       ??_G?$RelativeConvex@VTriangleV@Gu@physx@@@Gu@physx@@UEAAPEAXI@Z 0000000180027380 f i GuCCDSweepPrimitives.obj
 0001:000284e0       ?supportPoint@?$RelativeConvex@VConvexHullV@Gu@physx@@@Gu@physx@@UEBA?AT__m128@@H@Z 00000001800294e0 f i GuOverlapTests.obj
 0001:00028560       ?support@?$RelativeConvex@VConvexHullV@Gu@physx@@@Gu@physx@@UEBA?AT__m128@@AEBT4@@Z 0000000180029560 f i GuOverlapTests.obj
 0001:00028690       ?support@?$RelativeConvex@VConvexHullV@Gu@physx@@@Gu@physx@@UEBA?AT__m128@@AEBT4@AEAH@Z 0000000180029690 f i GuOverlapTests.obj
 0001:00028860       ??$gjk@U?$RelativeConvex@VBoxV@Gu@physx@@@Gu@physx@@U?$LocalConvex@VConvexHullV@Gu@physx@@@23@@Gu@physx@@YA?AW4GjkStatus@01@AEBU?$RelativeConvex@VBoxV@Gu@physx@@@01@AEBU?$LocalConvex@VConvexHullV@Gu@physx@@@01@AEBT__m128@@2AEAT5@333@Z 0000000180029860 f i GuOverlapTests.obj
 0001:00029610       ??$gjk@U?$RelativeConvex@VConvexHullV@Gu@physx@@@Gu@physx@@U?$LocalConvex@VConvexHullV@Gu@physx@@@23@@Gu@physx@@YA?AW4GjkStatus@01@AEBU?$RelativeConvex@VConvexHullV@Gu@physx@@@01@AEBU?$LocalConvex@VConvexHullV@Gu@physx@@@01@AEBT__m128@@2AEAT5@333@Z 000000018002a610 f i GuOverlapTests.obj
 0001:0002a490       ?ComputeCubemapNearestOffset@physx@@YAIAEBV?$PxVec3T@M@1@I@Z 000000018002b490 f i GuOverlapTests.obj
 0001:0002a590       ?getOverlapFuncTable@Gu@physx@@YAPEAY0L@Q6A_NAEBVPxGeometry@2@AEBV?$PxTransformT@M@2@01PEAUTriggerCache@12@PEAUPxQueryThreadContext@2@@ZXZ 000000018002b590 f   GuOverlapTests.obj
 0001:0002c150       ?registerHeightFields@Gu@physx@@YAXXZ 000000018002d150 f   GuOverlapTests.obj
 0001:0002c1a0       ?raycast_box@@YAIAEBVPxGeometry@physx@@AEBV?$PxTransformT@M@2@AEBV?$PxVec3T@M@2@2MV?$PxFlags@W4Enum@PxHitFlag@physx@@G@2@IPEIAUPxGeomRaycastHit@2@IPEAUPxQueryThreadContext@2@@Z 000000018002d1a0 f   GuRaycastTests.obj
 0001:0002c7d0       ?raycast_sphere@@YAIAEBVPxGeometry@physx@@AEBV?$PxTransformT@M@2@AEBV?$PxVec3T@M@2@2MV?$PxFlags@W4Enum@PxHitFlag@physx@@G@2@IPEIAUPxGeomRaycastHit@2@IPEAUPxQueryThreadContext@2@@Z 000000018002d7d0 f   GuRaycastTests.obj
 0001:0002c960       ?raycast_capsule@@YAIAEBVPxGeometry@physx@@AEBV?$PxTransformT@M@2@AEBV?$PxVec3T@M@2@2MV?$PxFlags@W4Enum@PxHitFlag@physx@@G@2@IPEIAUPxGeomRaycastHit@2@IPEAUPxQueryThreadContext@2@@Z 000000018002d960 f   GuRaycastTests.obj
 0001:0002cec0       ?raycast_plane@@YAIAEBVPxGeometry@physx@@AEBV?$PxTransformT@M@2@AEBV?$PxVec3T@M@2@2MV?$PxFlags@W4Enum@PxHitFlag@physx@@G@2@IPEIAUPxGeomRaycastHit@2@IPEAUPxQueryThreadContext@2@@Z 000000018002dec0 f   GuRaycastTests.obj
 0001:0002d030       ?raycast_convexMesh@@YAIAEBVPxGeometry@physx@@AEBV?$PxTransformT@M@2@AEBV?$PxVec3T@M@2@2MV?$PxFlags@W4Enum@PxHitFlag@physx@@G@2@IPEIAUPxGeomRaycastHit@2@IPEAUPxQueryThreadContext@2@@Z 000000018002e030 f   GuRaycastTests.obj
 0001:0002db30       ?getMidphaseID@RTreeTriangleMesh@Gu@physx@@UEBA?AW4Enum@PxMeshMidPhase@3@XZ 000000018002eb30 f   GuTriangleMeshRTree.obj
 0001:0002db30       ?getMidphaseID@RTreeTriangleMeshBuilder@physx@@UEBA?AW4Enum@PxMeshMidPhase@2@XZ 000000018002eb30 f   GuCookingTriangleMesh.obj
 0001:0002db30       ?getTetrahedraRemap@TetrahedronMesh@Gu@physx@@UEBAPEBIXZ 000000018002eb30 f   GuTetrahedronMesh.obj
 0001:0002db30       ?raycast_hairsystem@@YAIAEBVPxGeometry@physx@@AEBV?$PxTransformT@M@2@AEBV?$PxVec3T@M@2@2MV?$PxFlags@W4Enum@PxHitFlag@physx@@G@2@IPEIAUPxGeomRaycastHit@2@IPEAUPxQueryThreadContext@2@@Z 000000018002eb30 f   GuRaycastTests.obj
 0001:0002db30       ?raycast_particlesystem@@YAIAEBVPxGeometry@physx@@AEBV?$PxTransformT@M@2@AEBV?$PxVec3T@M@2@2MV?$PxFlags@W4Enum@PxHitFlag@physx@@G@2@IPEIAUPxGeomRaycastHit@2@IPEAUPxQueryThreadContext@2@@Z 000000018002eb30 f   GuRaycastTests.obj
 0001:0002db30       ?raycast_softbody@@YAIAEBVPxGeometry@physx@@AEBV?$PxTransformT@M@2@AEBV?$PxVec3T@M@2@2MV?$PxFlags@W4Enum@PxHitFlag@physx@@G@2@IPEIAUPxGeomRaycastHit@2@IPEAUPxQueryThreadContext@2@@Z 000000018002eb30 f   GuRaycastTests.obj
 0001:0002db40       ?raycast_triangleMesh@@YAIAEBVPxGeometry@physx@@AEBV?$PxTransformT@M@2@AEBV?$PxVec3T@M@2@2MV?$PxFlags@W4Enum@PxHitFlag@physx@@G@2@IPEIAUPxGeomRaycastHit@2@IPEAUPxQueryThreadContext@2@@Z 000000018002eb40 f   GuRaycastTests.obj
 0001:0002ef20       ??Dphysx@@YA?AV?$PxMat34T@M@0@AEBVPxMeshScale@0@AEBV?$PxTransformT@M@0@@Z 000000018002ff20 f i GuRaycastTests.obj
 0001:0002fa10       ?getRaycastFuncTable@Gu@physx@@YAAEAY0L@Q6AIAEBVPxGeometry@2@AEBV?$PxTransformT@M@2@AEBV?$PxVec3T@M@2@2MV?$PxFlags@W4Enum@PxHitFlag@physx@@G@2@IPEIAUPxGeomRaycastHit@2@IPEAUPxQueryThreadContext@2@@ZXZ 0000000180030a10 f   GuRaycastTests.obj
 0001:0002fa20       ?raycast_heightField@@YAIAEBVPxGeometry@physx@@AEBV?$PxTransformT@M@2@AEBV?$PxVec3T@M@2@2MV?$PxFlags@W4Enum@PxHitFlag@physx@@G@2@IPEIAUPxGeomRaycastHit@2@IPEAUPxQueryThreadContext@2@@Z 0000000180030a20 f   GuRaycastTests.obj
 0001:00030160       ?registerHeightFields_Raycasts@@YAXXZ 0000000180031160 f   GuRaycastTests.obj
 0001:00030170       ??Dphysx@@YA?AV?$PxMat34T@M@0@AEBV?$PxTransformT@M@0@AEBVPxMeshScale@0@@Z 0000000180031170 f i GuSweepMTD.obj
 0001:000306c0       ??_E?$MeshHitCallback@UPxGeomRaycastHit@physx@@@Gu@physx@@UEAAPEAXI@Z 00000001800316c0 f i GuSweepMTD.obj
 0001:000306c0       ??_G?$MeshHitCallback@UPxGeomRaycastHit@physx@@@Gu@physx@@UEAAPEAXI@Z 00000001800316c0 f i GuSweepMTD.obj
 0001:000306f0       ??_EMeshMTDGenerationCallback@@UEAAPEAXI@Z 00000001800316f0 f i GuSweepMTD.obj
 0001:000306f0       ??_GMeshMTDGenerationCallback@@UEAAPEAXI@Z 00000001800316f0 f i GuSweepMTD.obj
 0001:00030720       ??_EMidPhaseQueryLocalReport@@UEAAPEAXI@Z 0000000180031720 f i GuSweepMTD.obj
 0001:00030720       ??_ERTreeCookerRemap@@UEAAPEAXI@Z 0000000180031720 f i GuCookingTriangleMesh.obj
 0001:00030720       ??_GMidPhaseQueryLocalReport@@UEAAPEAXI@Z 0000000180031720 f i GuSweepMTD.obj
 0001:00030720       ??_GRTreeCookerRemap@@UEAAPEAXI@Z 0000000180031720 f i GuCookingTriangleMesh.obj
 0001:00030750       ?allocate@?$PxArray@IV?$PxReflectionAllocator@I@physx@@@physx@@IEAAPEAII@Z 0000000180031750 f i GuSweepMTD.obj
 0001:000307f0       ?computeBox_HeightFieldMTD@Gu@physx@@YA_NAEBVPxHeightFieldGeometry@2@AEBV?$PxTransformT@M@2@AEBVBox@12@1M_NAEAUPxGeomSweepHit@2@@Z 00000001800317f0 f   GuSweepMTD.obj
 0001:000315c0       ?computeBox_TriangleMeshMTD@Gu@physx@@YA_NAEBVPxTriangleMeshGeometry@2@AEBV?$PxTransformT@M@2@AEBVBox@12@1M_NAEAUPxGeomSweepHit@2@@Z 00000001800325c0 f   GuSweepMTD.obj
 0001:00032630       ?computeCapsule_CapsuleMTD@Gu@physx@@YA_NAEBVCapsule@12@0AEAUPxGeomSweepHit@2@@Z 0000000180033630 f   GuSweepMTD.obj
 0001:00032870       ?computeCapsule_HeightFieldMTD@Gu@physx@@YA_NAEBVPxHeightFieldGeometry@2@AEBV?$PxTransformT@M@2@AEAVCapsuleV@12@M_NAEAUPxGeomSweepHit@2@@Z 0000000180033870 f   GuSweepMTD.obj
 0001:00033040       ?computeCapsule_TriangleMeshMTD@Gu@physx@@YA_NAEBVPxTriangleMeshGeometry@2@AEBV?$PxTransformT@M@2@AEAVCapsuleV@12@M_NAEAUPxGeomSweepHit@2@@Z 0000000180034040 f   GuSweepMTD.obj
 0001:000338f0       ?computeConvex_HeightFieldMTD@Gu@physx@@YA_NAEBVPxHeightFieldGeometry@2@AEBV?$PxTransformT@M@2@AEBVPxConvexMeshGeometry@2@1M_NAEAUPxGeomSweepHit@2@@Z 00000001800348f0 f   GuSweepMTD.obj
 0001:00034bc0       ?computeConvex_TriangleMeshMTD@Gu@physx@@YA_NAEBVPxTriangleMeshGeometry@2@AEBV?$PxTransformT@M@2@AEBVPxConvexMeshGeometry@2@1M_NAEAUPxGeomSweepHit@2@@Z 0000000180035bc0 f   GuSweepMTD.obj
 0001:000361e0       ?computePlane_BoxMTD@Gu@physx@@YA_NAEBVPxPlane@2@AEBVBox@12@AEAUPxGeomSweepHit@2@@Z 00000001800371e0 f   GuSweepMTD.obj
 0001:00036480       ?computePlane_CapsuleMTD@Gu@physx@@YA_NAEBVPxPlane@2@AEBVCapsule@12@AEAUPxGeomSweepHit@2@@Z 0000000180037480 f   GuSweepMTD.obj
 0001:00036590       ?computePlane_ConvexMTD@Gu@physx@@YA_NAEBVPxPlane@2@AEBVPxConvexMeshGeometry@2@AEBV?$PxTransformT@M@2@AEAUPxGeomSweepHit@2@@Z 0000000180037590 f   GuSweepMTD.obj
 0001:00037150       ?computeSphere_CapsuleMTD@Gu@physx@@YA_NAEBVSphere@12@AEBVCapsule@12@AEAUPxGeomSweepHit@2@@Z 0000000180038150 f   GuSweepMTD.obj
 0001:00037300       ?computeSphere_SphereMTD@Gu@physx@@YA_NAEBVSphere@12@0AEAUPxGeomSweepHit@2@@Z 0000000180038300 f   GuSweepMTD.obj
 0001:000373f0       ?getInverse@?$PxMat33T@M@physx@@QEBA?BV12@XZ 00000001800383f0 f i GuSweepMTD.obj
 0001:00037640       ?growAndPushBack@?$PxArray@IV?$PxReflectionAllocator@I@physx@@@physx@@IEAAAEAIAEBI@Z 0000000180038640 f i GuSweepMTD.obj
 0001:00037700       ?init@FastVertex2ShapeScaling@Cm@physx@@QEAAXAEBV?$PxVec3T@M@3@AEBV?$PxQuatT@M@3@@Z 0000000180038700 f i GuSweepMTD.obj
 0001:00038010       ?processHit@MeshMTDGenerationCallback@@UEAA_NAEBUPxGeomRaycastHit@physx@@AEBV?$PxVec3T@M@3@11AEAMPEBI@Z 0000000180039010 f i GuSweepMTD.obj
 0001:00038060       ?recreate@?$PxArray@IV?$PxReflectionAllocator@I@physx@@@physx@@IEAAXI@Z 0000000180039060 f i GuSweepMTD.obj
 0001:00038100       ?reportTouchedTris@MidPhaseQueryLocalReport@@UEAA_NIPEBI@Z 0000000180039100 f i GuSweepMTD.obj
 0001:00038170       ??$gjkPenetration@U?$LocalConvex@VCapsuleV@Gu@physx@@@Gu@physx@@U?$LocalConvex@VConvexHullV@Gu@physx@@@23@@Gu@physx@@YA?AW4GjkStatus@01@AEBU?$LocalConvex@VCapsuleV@Gu@physx@@@01@AEBU?$LocalConvex@VConvexHullV@Gu@physx@@@01@AEBT__m128@@2_NPEIAE4AEAEAEAUGjkOutput@01@@Z 0000000180039170 f i GuSweepSharedTests.obj
 0001:000381e0       ??$gjkPenetration@U?$LocalConvex@VCapsuleV@Gu@physx@@@Gu@physx@@U?$LocalConvex@VConvexHullV@Gu@physx@@@23@@Gu@physx@@YA?AW4GjkStatus@01@AEBU?$LocalConvex@VCapsuleV@Gu@physx@@@01@AEBU?$LocalConvex@VConvexHullV@Gu@physx@@@01@AEBT__m128@@2_NPEIAE4PEIAT5@5AEAEAEAUGjkOutput@01@@Z 00000001800391e0 f i GuSweepSharedTests.obj
 0001:00039710       ??$gjkPenetration@U?$RelativeConvex@VBoxV@Gu@physx@@@Gu@physx@@U?$LocalConvex@VConvexHullV@Gu@physx@@@23@@Gu@physx@@YA?AW4GjkStatus@01@AEBU?$RelativeConvex@VBoxV@Gu@physx@@@01@AEBU?$LocalConvex@VConvexHullV@Gu@physx@@@01@AEBT__m128@@2_NPEIAE4AEAEAEAUGjkOutput@01@@Z 000000018003a710 f i GuSweepSharedTests.obj
 0001:00039780       ??$gjkPenetration@U?$RelativeConvex@VBoxV@Gu@physx@@@Gu@physx@@U?$LocalConvex@VConvexHullV@Gu@physx@@@23@@Gu@physx@@YA?AW4GjkStatus@01@AEBU?$RelativeConvex@VBoxV@Gu@physx@@@01@AEBU?$LocalConvex@VConvexHullV@Gu@physx@@@01@AEBT__m128@@2_NPEIAE4PEIAT5@5AEAEAEAUGjkOutput@01@@Z 000000018003a780 f i GuSweepSharedTests.obj
 0001:0003ad00       ??$gjkPenetration@U?$RelativeConvex@VConvexHullV@Gu@physx@@@Gu@physx@@U?$LocalConvex@VConvexHullV@Gu@physx@@@23@@Gu@physx@@YA?AW4GjkStatus@01@AEBU?$RelativeConvex@VConvexHullV@Gu@physx@@@01@AEBU?$LocalConvex@VConvexHullV@Gu@physx@@@01@AEBT__m128@@2_NPEIAE4AEAEAEAUGjkOutput@01@@Z 000000018003bd00 f i GuSweepSharedTests.obj
 0001:0003ad70       ??$gjkPenetration@U?$RelativeConvex@VConvexHullV@Gu@physx@@@Gu@physx@@U?$LocalConvex@VConvexHullV@Gu@physx@@@23@@Gu@physx@@YA?AW4GjkStatus@01@AEBU?$RelativeConvex@VConvexHullV@Gu@physx@@@01@AEBU?$LocalConvex@VConvexHullV@Gu@physx@@@01@AEBT__m128@@2_NPEIAE4PEIAT5@5AEAEAEAUGjkOutput@01@@Z 000000018003bd70 f i GuSweepSharedTests.obj
 0001:0003c3c0       ??$gjkRaycast@U?$LocalConvex@VCapsuleV@Gu@physx@@@Gu@physx@@U?$LocalConvex@VConvexHullV@Gu@physx@@@23@@Gu@physx@@YA_NAEBU?$LocalConvex@VCapsuleV@Gu@physx@@@01@AEBU?$LocalConvex@VConvexHullV@Gu@physx@@@01@AEBT__m128@@222AEAT4@33M@Z 000000018003d3c0 f i GuSweepSharedTests.obj
 0001:0003d110       ??$gjkRaycast@U?$RelativeConvex@VBoxV@Gu@physx@@@Gu@physx@@U?$LocalConvex@VConvexHullV@Gu@physx@@@23@@Gu@physx@@YA_NAEBU?$RelativeConvex@VBoxV@Gu@physx@@@01@AEBU?$LocalConvex@VConvexHullV@Gu@physx@@@01@AEBT__m128@@222AEAT4@33M@Z 000000018003e110 f i GuSweepSharedTests.obj
 0001:0003df00       ??$gjkRaycast@U?$RelativeConvex@VConvexHullV@Gu@physx@@@Gu@physx@@U?$LocalConvex@VConvexHullV@Gu@physx@@@23@@Gu@physx@@YA_NAEBU?$RelativeConvex@VConvexHullV@Gu@physx@@@01@AEBU?$LocalConvex@VConvexHullV@Gu@physx@@@01@AEBT__m128@@222AEAT4@33M@Z 000000018003ef00 f i GuSweepSharedTests.obj
 0001:0003ece0       ??$gjkRaycastPenetration@U?$RelativeConvex@VConvexHullV@Gu@physx@@@Gu@physx@@U?$LocalConvex@VConvexHullV@Gu@physx@@@23@@Gu@physx@@YA_NAEBU?$RelativeConvex@VConvexHullV@Gu@physx@@@01@AEBU?$LocalConvex@VConvexHullV@Gu@physx@@@01@AEBT__m128@@222AEAT4@33M_N@Z 000000018003fce0 f i GuSweepSharedTests.obj
 0001:0003f8b0       ?sweepBox_ConvexGeom@@YA_NAEBVPxGeometry@physx@@AEBV?$PxTransformT@M@2@AEBVPxBoxGeometry@2@1AEBVBox@Gu@2@AEBV?$PxVec3T@M@2@MAEAUPxGeomSweepHit@2@V?$PxFlags@W4Enum@PxHitFlag@physx@@G@2@MPEAUPxQueryThreadContext@2@@Z 00000001800408b0 f   GuSweepSharedTests.obj
 0001:000406c0       ?sweepBox_PlaneGeom@@YA_NAEBVPxGeometry@physx@@AEBV?$PxTransformT@M@2@AEBVPxBoxGeometry@2@1AEBVBox@Gu@2@AEBV?$PxVec3T@M@2@MAEAUPxGeomSweepHit@2@V?$PxFlags@W4Enum@PxHitFlag@physx@@G@2@MPEAUPxQueryThreadContext@2@@Z 00000001800416c0 f   GuSweepSharedTests.obj
 0001:00040ab0       ?sweepCapsuleTriangles@Gu@physx@@YA_NIPEBVPxTriangle@2@_NAEBVPxCapsuleGeometry@2@AEBV?$PxTransformT@M@2@AEBV?$PxVec3T@M@2@MAEAUPxGeomSweepHit@2@PEBIMV?$PxFlags@W4Enum@PxHitFlag@physx@@G@2@@Z 0000000180041ab0 f   GuSweepSharedTests.obj
 0001:00040ca0       ?sweepCapsule_CapsuleGeom@@YA_NAEBVPxGeometry@physx@@AEBV?$PxTransformT@M@2@AEBVPxCapsuleGeometry@2@1AEBVCapsule@Gu@2@AEBV?$PxVec3T@M@2@MAEAUPxGeomSweepHit@2@V?$PxFlags@W4Enum@PxHitFlag@physx@@G@2@MPEAUPxQueryThreadContext@2@@Z 0000000180041ca0 f   GuSweepSharedTests.obj
 0001:00040e80       ?sweepCapsule_ConvexGeom@@YA_NAEBVPxGeometry@physx@@AEBV?$PxTransformT@M@2@AEBVPxCapsuleGeometry@2@1AEBVCapsule@Gu@2@AEBV?$PxVec3T@M@2@MAEAUPxGeomSweepHit@2@V?$PxFlags@W4Enum@PxHitFlag@physx@@G@2@MPEAUPxQueryThreadContext@2@@Z 0000000180041e80 f   GuSweepSharedTests.obj
 0001:00041ba0       ?sweepCapsule_PlaneGeom@@YA_NAEBVPxGeometry@physx@@AEBV?$PxTransformT@M@2@AEBVPxCapsuleGeometry@2@1AEBVCapsule@Gu@2@AEBV?$PxVec3T@M@2@MAEAUPxGeomSweepHit@2@V?$PxFlags@W4Enum@PxHitFlag@physx@@G@2@MPEAUPxQueryThreadContext@2@@Z 0000000180042ba0 f   GuSweepSharedTests.obj
 0001:00041e80       ?sweepCapsule_SphereGeom@@YA_NAEBVPxGeometry@physx@@AEBV?$PxTransformT@M@2@AEBVPxCapsuleGeometry@2@1AEBVCapsule@Gu@2@AEBV?$PxVec3T@M@2@MAEAUPxGeomSweepHit@2@V?$PxFlags@W4Enum@PxHitFlag@physx@@G@2@MPEAUPxQueryThreadContext@2@@Z 0000000180042e80 f   GuSweepSharedTests.obj
 0001:00042020       ?sweepConvex_BoxGeom@@YA_NAEBVPxGeometry@physx@@AEBV?$PxTransformT@M@2@AEBVPxConvexMeshGeometry@2@1AEBV?$PxVec3T@M@2@MAEAUPxGeomSweepHit@2@V?$PxFlags@W4Enum@PxHitFlag@physx@@G@2@MPEAUPxQueryThreadContext@2@@Z 0000000180043020 f   GuSweepSharedTests.obj
 0001:00042240       ?sweepConvex_CapsuleGeom@@YA_NAEBVPxGeometry@physx@@AEBV?$PxTransformT@M@2@AEBVPxConvexMeshGeometry@2@1AEBV?$PxVec3T@M@2@MAEAUPxGeomSweepHit@2@V?$PxFlags@W4Enum@PxHitFlag@physx@@G@2@MPEAUPxQueryThreadContext@2@@Z 0000000180043240 f   GuSweepSharedTests.obj
 0001:00042470       ?sweepConvex_ConvexGeom@@YA_NAEBVPxGeometry@physx@@AEBV?$PxTransformT@M@2@AEBVPxConvexMeshGeometry@2@1AEBV?$PxVec3T@M@2@MAEAUPxGeomSweepHit@2@V?$PxFlags@W4Enum@PxHitFlag@physx@@G@2@MPEAUPxQueryThreadContext@2@@Z 0000000180043470 f   GuSweepSharedTests.obj
 0001:00043440       ?sweepConvex_PlaneGeom@@YA_NAEBVPxGeometry@physx@@AEBV?$PxTransformT@M@2@AEBVPxConvexMeshGeometry@2@1AEBV?$PxVec3T@M@2@MAEAUPxGeomSweepHit@2@V?$PxFlags@W4Enum@PxHitFlag@physx@@G@2@MPEAUPxQueryThreadContext@2@@Z 0000000180044440 f   GuSweepSharedTests.obj
 0001:00043880       ?sweepConvex_SphereGeom@@YA_NAEBVPxGeometry@physx@@AEBV?$PxTransformT@M@2@AEBVPxConvexMeshGeometry@2@1AEBV?$PxVec3T@M@2@MAEAUPxGeomSweepHit@2@V?$PxFlags@W4Enum@PxHitFlag@physx@@G@2@MPEAUPxQueryThreadContext@2@@Z 0000000180044880 f   GuSweepSharedTests.obj
 0001:00044490       ?sweepCapsule_BoxGeom@@YA_NAEBVPxGeometry@physx@@AEBV?$PxTransformT@M@2@AEBVPxCapsuleGeometry@2@1AEBVCapsule@Gu@2@AEBV?$PxVec3T@M@2@MAEAUPxGeomSweepHit@2@V?$PxFlags@W4Enum@PxHitFlag@physx@@G@2@MPEAUPxQueryThreadContext@2@@Z 0000000180045490 f   GuSweepTests.obj
 0001:00044d40       ?sweepBox_SphereGeom@@YA_NAEBVPxGeometry@physx@@AEBV?$PxTransformT@M@2@AEBVPxBoxGeometry@2@1AEBVBox@Gu@2@AEBV?$PxVec3T@M@2@MAEAUPxGeomSweepHit@2@V?$PxFlags@W4Enum@PxHitFlag@physx@@G@2@MPEAUPxQueryThreadContext@2@@Z 0000000180045d40 f   GuSweepTests.obj
 0001:00045420       ?sweepBox_CapsuleGeom@@YA_NAEBVPxGeometry@physx@@AEBV?$PxTransformT@M@2@AEBVPxBoxGeometry@2@1AEBVBox@Gu@2@AEBV?$PxVec3T@M@2@MAEAUPxGeomSweepHit@2@V?$PxFlags@W4Enum@PxHitFlag@physx@@G@2@MPEAUPxQueryThreadContext@2@@Z 0000000180046420 f   GuSweepTests.obj
 0001:00045cd0       ?sweepBox_BoxGeom@@YA_NAEBVPxGeometry@physx@@AEBV?$PxTransformT@M@2@AEBVPxBoxGeometry@2@1AEBVBox@Gu@2@AEBV?$PxVec3T@M@2@MAEAUPxGeomSweepHit@2@V?$PxFlags@W4Enum@PxHitFlag@physx@@G@2@MPEAUPxQueryThreadContext@2@@Z 0000000180046cd0 f   GuSweepTests.obj
 0001:00046790       ??$gjkPenetration@U?$LocalConvex@VCapsuleV@Gu@physx@@@Gu@physx@@U?$LocalConvex@VBoxV@Gu@physx@@@23@@Gu@physx@@YA?AW4GjkStatus@01@AEBU?$LocalConvex@VCapsuleV@Gu@physx@@@01@AEBU?$LocalConvex@VBoxV@Gu@physx@@@01@AEBT__m128@@2_NPEIAE4AEAEAEAUGjkOutput@01@@Z 0000000180047790 f i GuSweepTests.obj
 0001:00046800       ??$gjkPenetration@U?$LocalConvex@VCapsuleV@Gu@physx@@@Gu@physx@@U?$LocalConvex@VBoxV@Gu@physx@@@23@@Gu@physx@@YA?AW4GjkStatus@01@AEBU?$LocalConvex@VCapsuleV@Gu@physx@@@01@AEBU?$LocalConvex@VBoxV@Gu@physx@@@01@AEBT__m128@@2_NPEIAE4PEIAT5@5AEAEAEAUGjkOutput@01@@Z 0000000180047800 f i GuSweepTests.obj
 0001:00047c80       ??$gjkPenetration@U?$RelativeConvex@VBoxV@Gu@physx@@@Gu@physx@@U?$LocalConvex@VBoxV@Gu@physx@@@23@@Gu@physx@@YA?AW4GjkStatus@01@AEBU?$RelativeConvex@VBoxV@Gu@physx@@@01@AEBU?$LocalConvex@VBoxV@Gu@physx@@@01@AEBT__m128@@2_NPEIAE4AEAEAEAUGjkOutput@01@@Z 0000000180048c80 f i GuSweepTests.obj
 0001:00047cf0       ??$gjkPenetration@U?$RelativeConvex@VBoxV@Gu@physx@@@Gu@physx@@U?$LocalConvex@VBoxV@Gu@physx@@@23@@Gu@physx@@YA?AW4GjkStatus@01@AEBU?$RelativeConvex@VBoxV@Gu@physx@@@01@AEBU?$LocalConvex@VBoxV@Gu@physx@@@01@AEBT__m128@@2_NPEIAE4PEIAT5@5AEAEAEAUGjkOutput@01@@Z 0000000180048cf0 f i GuSweepTests.obj
 0001:000491a0       ??$gjkRaycast@U?$LocalConvex@VCapsuleV@Gu@physx@@@Gu@physx@@U?$LocalConvex@VBoxV@Gu@physx@@@23@@Gu@physx@@YA_NAEBU?$LocalConvex@VCapsuleV@Gu@physx@@@01@AEBU?$LocalConvex@VBoxV@Gu@physx@@@01@AEBT__m128@@222AEAT4@33M@Z 000000018004a1a0 f i GuSweepTests.obj
 0001:00049d70       ??$gjkRaycast@U?$LocalConvex@VTriangleV@Gu@physx@@@Gu@physx@@U?$LocalConvex@VBoxV@Gu@physx@@@23@@Gu@physx@@YA_NAEBU?$LocalConvex@VTriangleV@Gu@physx@@@01@AEBU?$LocalConvex@VBoxV@Gu@physx@@@01@AEBT__m128@@222AEAT4@33M@Z 000000018004ad70 f i GuSweepTests.obj
 0001:0004a9c0       ??$gjkRaycast@U?$RelativeConvex@VBoxV@Gu@physx@@@Gu@physx@@U?$LocalConvex@VBoxV@Gu@physx@@@23@@Gu@physx@@YA_NAEBU?$RelativeConvex@VBoxV@Gu@physx@@@01@AEBU?$LocalConvex@VBoxV@Gu@physx@@@01@AEBT__m128@@222AEAT4@33M@Z 000000018004b9c0 f i GuSweepTests.obj
 0001:0004b5f0       ?getSweepFuncTable@Gu@physx@@YAAEBUGeomSweepFuncs@12@XZ 000000018004c5f0 f   GuSweepTests.obj
 0001:0004b600       ?getSweepMargin@?$LocalConvex@VTetrahedronV@Gu@physx@@@Gu@physx@@UEBA?AT__m128@@XZ 000000018004c600 f i GuCookingTetrahedronMesh.obj
 0001:0004b600       ?getSweepMargin@?$LocalConvex@VTriangleV@Gu@physx@@@Gu@physx@@UEBA?AT__m128@@XZ 000000018004c600 f i GuSweepTests.obj
 0001:0004b600       ?getSweepMargin@?$RelativeConvex@VTriangleV@Gu@physx@@@Gu@physx@@UEBA?AT__m128@@XZ 000000018004c600 f i GuCCDSweepPrimitives.obj
 0001:0004b610       ?registerHeightFields_Sweeps@@YAXXZ 000000018004c610 f   GuSweepTests.obj
 0001:0004b650       ?support@?$LocalConvex@VBoxV@Gu@physx@@@Gu@physx@@UEBA?AT__m128@@AEBT4@@Z 000000018004c650 f i GuSweepTests.obj
 0001:0004b680       ?support@?$LocalConvex@VBoxV@Gu@physx@@@Gu@physx@@UEBA?AT__m128@@AEBT4@AEAH@Z 000000018004c680 f i GuSweepTests.obj
 0001:0004b6c0       ?support@?$LocalConvex@VTriangleV@Gu@physx@@@Gu@physx@@UEBA?AT__m128@@AEBT4@@Z 000000018004c6c0 f i GuSweepTests.obj
 0001:0004b750       ?support@?$LocalConvex@VTriangleV@Gu@physx@@@Gu@physx@@UEBA?AT__m128@@AEBT4@AEAH@Z 000000018004c750 f i GuSweepTests.obj
 0001:0004b830       ?supportPoint@?$LocalConvex@VBoxV@Gu@physx@@@Gu@physx@@UEBA?AT__m128@@H@Z 000000018004c830 f i GuSweepTests.obj
 0001:0004b870       ?supportPoint@?$LocalConvex@VTetrahedronV@Gu@physx@@@Gu@physx@@UEBA?AT__m128@@H@Z 000000018004c870 f i GuCookingTetrahedronMesh.obj
 0001:0004b870       ?supportPoint@?$LocalConvex@VTriangleV@Gu@physx@@@Gu@physx@@UEBA?AT__m128@@H@Z 000000018004c870 f i GuSweepTests.obj
 0001:0004b890       ?sweepBoxTriangles@Gu@physx@@YA_NIPEBVPxTriangle@2@_NAEBVPxBoxGeometry@2@AEBV?$PxTransformT@M@2@AEBV?$PxVec3T@M@2@MAEAUPxGeomSweepHit@2@PEBIMV?$PxFlags@W4Enum@PxHitFlag@physx@@G@2@@Z 000000018004c890 f   GuSweepTests.obj
 0001:0004c310       ??$traverseBVH@VClosestDistanceToTrimeshTraversalController@Gu@physx@@@Gu@physx@@YAXPEBUBVHNode@01@AEAVClosestDistanceToTrimeshTraversalController@01@H@Z 000000018004d310 f i GuSDF.obj
 0001:0004c700       ??$traverseBVH@VLineSegmentTrimeshIntersectionTraversalController@Gu@physx@@@Gu@physx@@YAXPEBUBVHNode@01@AEAVLineSegmentTrimeshIntersectionTraversalController@01@H@Z 000000018004d700 f i GuSDF.obj
 0001:0004cbf0       ??1SDF@Gu@physx@@QEAA@XZ   000000018004dbf0 f   GuSDF.obj
 0001:0004cc80       ??_E?$PxThreadT@V?$PxReflectionAllocator@VPxThreadImpl@physx@@@physx@@@physx@@UEAAPEAXI@Z 000000018004dc80 f i GuSDF.obj
 0001:0004cc80       ??_G?$PxThreadT@V?$PxReflectionAllocator@VPxThreadImpl@physx@@@physx@@@physx@@UEAAPEAXI@Z 000000018004dc80 f i GuSDF.obj
 0001:0004cd20       ??_EPxRunnable@physx@@UEAAPEAXI@Z 000000018004dd20 f i GuSDF.obj
 0001:0004cd20       ??_GPxRunnable@physx@@UEAAPEAXI@Z 000000018004dd20 f i GuSDF.obj
 0001:0004cd50       ?SDFUsingWindingNumbers@Gu@physx@@YAXAEAV?$PxArray@UBVHNode@Gu@physx@@V?$PxReflectionAllocator@UBVHNode@Gu@physx@@@3@@2@AEAV?$PxHashMap@IU?$ClusterApproximationT@MV?$PxVec3T@M@physx@@@Gu@physx@@U?$PxHash@I@3@VPxAllocator@3@@2@PEBV?$PxVec3T@M@2@PEBIIIIIPEAMAEAVGridQueryPointSampler@12@PEAV52@I_N7@Z 000000018004dd50 f   GuSDF.obj
 0001:0004d260       ?SDFUsingWindingNumbers@Gu@physx@@YAXPEBV?$PxVec3T@M@2@PEBIIIIIPEAMV32@3PEAV32@_NI@Z 000000018004e260 f   GuSDF.obj
 0001:0004d570       ?SDFUsingWindingNumbersSparse@Gu@physx@@YAXPEBV?$PxVec3T@M@2@PEBIIIIIAEBV32@2MIAEAV?$PxArray@MV?$PxReflectionAllocator@M@physx@@@2@AEAV?$PxArray@IV?$PxReflectionAllocator@I@physx@@@2@33AEAM5I@Z 000000018004e570 f   GuSDF.obj
 0001:0004e380       ?allocate@?$PxArray@HV?$PxInlineAllocator@$0EAA@V?$PxReflectionAllocator@H@physx@@@physx@@@physx@@IEAAPEAHI@Z 000000018004f380 f i GuSDF.obj
 0001:0004e440       ?allocate@?$PxArray@MV?$PxReflectionAllocator@M@physx@@@physx@@IEAAPEAMI@Z 000000018004f440 f i GuSDF.obj
 0001:0004e4e0       ?allocateSdfs@SDF@Gu@physx@@QEAAPEAMAEBV?$PxVec3T@M@3@AEBMIIIIIIIMMI@Z 000000018004f4e0 f   GuSDF.obj
 0001:0004e6e0       ?buildTree@Gu@physx@@YAXPEBIIPEBV?$PxVec3T@M@2@AEAV?$PxArray@UBVHNode@Gu@physx@@V?$PxReflectionAllocator@UBVHNode@Gu@physx@@@3@@2@M@Z 000000018004f6e0 f   GuSDF.obj
 0001:0004e910       ?computeSDFThreadJob@Gu@physx@@YAPEAXPEAX@Z 000000018004f910 f   GuSDF.obj
 0001:0004f390       ?convertSparseSDFTo3DTextureLayout@Gu@physx@@YAXIIIIPEAIPEBMIAEAV?$PxArray@MV?$PxReflectionAllocator@M@physx@@@2@AEAI33@Z 0000000180050390 f   GuSDF.obj
 0001:0004f740       ?create@?$PxHashBase@V?$PxPair@$$CB_KH@physx@@_KU?$PxHash@_K@2@UGetKey@?$PxHashMapBase@_KHU?$PxHash@_K@physx@@VPxAllocator@2@@2@VPxAllocator@2@$00@physx@@QEAAPEAV?$PxPair@$$CB_KH@2@AEB_KAEA_N@Z 0000000180050740 f i GuMeshAnalysis.obj
 0001:0004f740       ?create@?$PxHashBase@V?$PxPair@$$CB_KI@physx@@_KU?$PxHash@_K@2@UGetKey@?$PxHashMapBase@_KIU?$PxHash@_K@physx@@VPxAllocator@2@@2@VPxAllocator@2@$00@physx@@QEAAPEAV?$PxPair@$$CB_KI@2@AEB_KAEA_N@Z 0000000180050740 f i GuSDF.obj
 0001:0004f8d0       ?createTriangles@Gu@physx@@YAXHHHMQEAMAEBV?$PxHashMap@_KIU?$PxHash@_K@physx@@VPxAllocator@2@@2@AEBV?$PxArray@V?$PxVec3T@M@physx@@V?$PxReflectionAllocator@V?$PxVec3T@M@physx@@@2@@2@AEAV?$PxArray@IV?$PxReflectionAllocator@I@physx@@@2@@Z 00000001800508d0 f   GuSDF.obj
 0001:00050130       ?extractIsosurfaceFromSDF@Gu@physx@@YAXAEBVSDF@12@AEAV?$PxArray@V?$PxVec3T@M@physx@@V?$PxReflectionAllocator@V?$PxVec3T@M@physx@@@2@@2@AEAV?$PxArray@IV?$PxReflectionAllocator@I@physx@@@2@@Z 0000000180051130 f   GuSDF.obj
 0001:00051f00       ?fixSdfForNonClosedGeometry@Gu@physx@@YAXIIIPEAMAEBV?$PxVec3T@M@2@@Z 0000000180052f00 f   GuSDF.obj
 0001:00052fe0       ?generatePointInCell@Gu@physx@@YA_NAEBVSDF@12@HHHAEAV?$PxVec3T@M@2@QEAY111M@Z 0000000180053fe0 f   GuSDF.obj
 0001:00053430       ?growAndPushBack@?$PxArray@HV?$PxInlineAllocator@$0EAA@V?$PxReflectionAllocator@H@physx@@@physx@@@physx@@IEAAAEAHAEBH@Z 0000000180054430 f i GuSDF.obj
 0001:00053520       ?growAndPushBack@?$PxArray@MV?$PxReflectionAllocator@M@physx@@@physx@@IEAAAEAMAEBM@Z 0000000180054520 f i GuSDF.obj
 0001:00053600       ?growAndPushBack@?$PxArray@PEAV?$PxThreadT@V?$PxReflectionAllocator@VPxThreadImpl@physx@@@physx@@@physx@@V?$PxReflectionAllocator@PEAV?$PxThreadT@V?$PxReflectionAllocator@VPxThreadImpl@physx@@@physx@@@physx@@@2@@physx@@IEAAAEAPEAV?$PxThreadT@V?$PxReflectionAllocator@VPxThreadImpl@physx@@@physx@@@2@AEBQEAV32@@Z 0000000180054600 f i GuSDF.obj
 0001:00053720       ?growAndPushBack@?$PxArray@UMutation@Gu@physx@@V?$PxReflectionAllocator@UMutation@Gu@physx@@@3@@physx@@IEAAAEAUMutation@Gu@2@AEBU342@@Z 0000000180054720 f i GuSDF.obj
 0001:00053850       ?growAndPushBack@?$PxArray@URange@Gu@physx@@V?$PxReflectionAllocator@URange@Gu@physx@@@3@@physx@@IEAAAEAURange@Gu@2@AEBU342@@Z 0000000180054850 f i GuSDF.obj
 0001:00053990       ?growAndPushBack@?$PxArray@USDFCalculationData@Gu@physx@@V?$PxReflectionAllocator@USDFCalculationData@Gu@physx@@@3@@physx@@IEAAAEAUSDFCalculationData@Gu@2@AEBU342@@Z 0000000180054990 f i GuSDF.obj
 0001:00053b20       ?growAndPushBack@?$PxArray@V?$PxVec3T@M@physx@@V?$PxReflectionAllocator@V?$PxVec3T@M@physx@@@2@@physx@@IEAAAEAV?$PxVec3T@M@2@AEBV32@@Z 0000000180054b20 f i GuSDF.obj
 0001:00053d00       ?recreate@?$PxArray@MV?$PxReflectionAllocator@M@physx@@@physx@@IEAAXI@Z 0000000180054d00 f i GuSDF.obj
 0001:00053de0       ?reserveInternal@?$PxHashBase@V?$PxPair@$$CBIU?$ClusterApproximationT@MV?$PxVec3T@M@physx@@@Gu@physx@@@physx@@IU?$PxHash@I@2@UGetKey@?$PxHashMapBase@IU?$ClusterApproximationT@MV?$PxVec3T@M@physx@@@Gu@physx@@U?$PxHash@I@3@VPxAllocator@3@@2@VPxAllocator@2@$00@physx@@AEAAXI@Z 0000000180054de0 f i GuSDF.obj
 0001:00053fe0       ?reserveInternal@?$PxHashBase@V?$PxPair@$$CB_KH@physx@@_KU?$PxHash@_K@2@UGetKey@?$PxHashMapBase@_KHU?$PxHash@_K@physx@@VPxAllocator@2@@2@VPxAllocator@2@$00@physx@@AEAAXI@Z 0000000180054fe0 f i GuMeshAnalysis.obj
 0001:00053fe0       ?reserveInternal@?$PxHashBase@V?$PxPair@$$CB_KI@physx@@_KU?$PxHash@_K@2@UGetKey@?$PxHashMapBase@_KIU?$PxHash@_K@physx@@VPxAllocator@2@@2@VPxAllocator@2@$00@physx@@AEAAXI@Z 0000000180054fe0 f i GuSDF.obj
 0001:000541c0       ?resize@?$PxArray@MV?$PxReflectionAllocator@M@physx@@@physx@@QEAAXIAEBM@Z 00000001800551c0 f i GuSDF.obj
 0001:000542d0       ?sampleSDFDirect@?$DenseSDF@M@Gu@physx@@QEAAMAEBV?$PxVec3T@M@3@@Z 00000001800552d0 f i GuSDF.obj
 0001:00054460       ?windingNumbers@Gu@physx@@YAXPEBV?$PxVec3T@M@2@PEBIIIIIPEAMV32@3PEAV32@@Z 0000000180055460 f   GuSDF.obj
 0001:000548b0       ?windingNumbersInsideCheck@Gu@physx@@YAXPEBV?$PxVec3T@M@2@PEBIIIIIPEA_NV32@3PEAV32@@Z 00000001800558b0 f   GuSDF.obj
 0001:00055270       ??0MeshData@physx@@QEAA@AEBVPxTriangleMeshDesc@1@@Z 0000000180056270 f i GuCookingSDF.obj
 0001:00055350       ?GetBounds@MeshData@physx@@QEBAXAEAV?$PxVec3T@M@2@0@Z 0000000180056350 f i GuCookingSDF.obj
 0001:000555f0       ?buildSDF@physx@@YA_NAEAVPxTriangleMeshDesc@1@AEAV?$PxArray@MV?$PxReflectionAllocator@M@physx@@@1@AEAV?$PxArray@EV?$PxReflectionAllocator@E@physx@@@1@AEAV?$PxArray@IV?$PxReflectionAllocator@I@physx@@@1@@Z 00000001800565f0 f   GuCookingSDF.obj
 0001:00055f20       ?quantizeSparseSDF@physx@@YAXW4Enum@PxSdfBitsPerSubgridPixel@1@AEBV?$PxArray@MV?$PxReflectionAllocator@M@physx@@@1@AEAV?$PxArray@EV?$PxReflectionAllocator@E@physx@@@1@MM@Z 0000000180056f20 f   GuCookingSDF.obj
 0001:00056000       ?recreate@?$PxArray@EV?$PxReflectionAllocator@E@physx@@@physx@@IEAAXI@Z 0000000180057000 f i GuCookingSDF.obj
 0001:00056110       ?recreate@?$PxArray@V?$PxVec3T@M@physx@@V?$PxReflectionAllocator@V?$PxVec3T@M@physx@@@2@@physx@@IEAAXI@Z 0000000180057110 f i GuCookingSDF.obj
 0001:000562d0       ?resize@?$PxArray@EV?$PxReflectionAllocator@E@physx@@@physx@@QEAAXIAEBE@Z 00000001800572d0 f i GuCookingSDF.obj
 0001:00056390       ?resize@?$PxArray@IV?$PxReflectionAllocator@I@physx@@@physx@@QEAAXIAEBI@Z 0000000180057390 f i GuCookingSDF.obj
 0001:00056450       ?resize@?$PxArray@V?$PxVec3T@M@physx@@V?$PxReflectionAllocator@V?$PxVec3T@M@physx@@@2@@physx@@QEAAXIAEBV?$PxVec3T@M@2@@Z 0000000180057450 f i GuCookingSDF.obj
 0001:00056540       ??$gjk@U?$RelativeConvex@UCustomConvexV@@@Gu@physx@@U?$LocalConvex@UCustomConvexV@@@23@@Gu@physx@@YA?AW4GjkStatus@01@AEBU?$RelativeConvex@UCustomConvexV@@@01@AEBU?$LocalConvex@UCustomConvexV@@@01@AEBT__m128@@2AEAT5@333@Z 0000000180057540 f i GuGjkQuery.obj
 0001:000572d0       ??$gjkPenetration@U?$RelativeConvex@UCustomConvexV@@@Gu@physx@@U?$LocalConvex@UCustomConvexV@@@23@@Gu@physx@@YA?AW4GjkStatus@01@AEBU?$RelativeConvex@UCustomConvexV@@@01@AEBU?$LocalConvex@UCustomConvexV@@@01@AEBT__m128@@2_NPEIAE4PEIAT5@5AEAEAEAUGjkOutput@01@@Z 00000001800582d0 f i GuGjkQuery.obj
 0001:00058840       ??$gjkPenetration@U?$RelativeConvex@UCustomConvexV@@@Gu@physx@@U?$LocalConvex@UCustomConvexV@@@23@@Gu@physx@@YA?AW4GjkStatus@01@AEBU?$RelativeConvex@UCustomConvexV@@@01@AEBU?$LocalConvex@UCustomConvexV@@@01@AEBT__m128@@2_NPEIAT5@4AEAEAEAUGjkOutput@01@@Z 0000000180059840 f i GuGjkQuery.obj
 0001:000588a0       ??$gjkRaycast@U?$RelativeConvex@UCustomConvexV@@@Gu@physx@@U?$LocalConvex@UCustomConvexV@@@23@@Gu@physx@@YA_NAEBU?$RelativeConvex@UCustomConvexV@@@01@AEBU?$LocalConvex@UCustomConvexV@@@01@AEBT__m128@@222AEAT4@33M@Z 00000001800598a0 f i GuGjkQuery.obj
 0001:00059600       ??$gjkRaycast@U?$RelativeConvex@UCustomConvexV@@@Gu@physx@@U?$LocalConvex@UPointConvexV@@@23@@Gu@physx@@YA_NAEBU?$RelativeConvex@UCustomConvexV@@@01@AEBU?$LocalConvex@UPointConvexV@@@01@AEBT__m128@@222AEAT4@33M@Z 000000018005a600 f i GuGjkQuery.obj
 0001:0005a240       ?overlap@PxGjkQuery@physx@@SA_NAEBUSupport@12@0AEBV?$PxTransformT@M@2@1@Z 000000018005b240 f   GuGjkQuery.obj
 0001:0005a5c0       ?proximityInfo@PxGjkQuery@physx@@SA_NAEBUSupport@12@0AEBV?$PxTransformT@M@2@1MMAEAV?$PxVec3T@M@2@22AEAM@Z 000000018005b5c0 f   GuGjkQuery.obj
 0001:0005b340       ?raycast@PxGjkQuery@physx@@SA_NAEBUSupport@12@AEBV?$PxTransformT@M@2@AEBV?$PxVec3T@M@2@2MAEAMAEAV52@4@Z 000000018005c340 f   GuGjkQuery.obj
 0001:0005b7e0       ?support@?$LocalConvex@UCustomConvexV@@@Gu@physx@@UEBA?AT__m128@@AEBT4@@Z 000000018005c7e0 f i GuGjkQuery.obj
 0001:0005b860       ?support@?$LocalConvex@UCustomConvexV@@@Gu@physx@@UEBA?AT__m128@@AEBT4@AEAH@Z 000000018005c860 f i GuGjkQuery.obj
 0001:0005b8e0       ?support@?$LocalConvex@UPointConvexV@@@Gu@physx@@UEBA?AT__m128@@AEBT4@@Z 000000018005c8e0 f i GuGjkQuery.obj
 0001:0005b8e0       ?supportPoint@?$LocalConvex@UPointConvexV@@@Gu@physx@@UEBA?AT__m128@@H@Z 000000018005c8e0 f i GuGjkQuery.obj
 0001:0005b8f0       ?support@?$LocalConvex@UPointConvexV@@@Gu@physx@@UEBA?AT__m128@@AEBT4@AEAH@Z 000000018005c8f0 f i GuGjkQuery.obj
 0001:0005b910       ?support@?$RelativeConvex@UCustomConvexV@@@Gu@physx@@UEBA?AT__m128@@AEBT4@@Z 000000018005c910 f i GuGjkQuery.obj
 0001:0005b9e0       ?support@?$RelativeConvex@UCustomConvexV@@@Gu@physx@@UEBA?AT__m128@@AEBT4@AEAH@Z 000000018005c9e0 f i GuGjkQuery.obj
 0001:0005bac0       ?supportPoint@?$LocalConvex@UCustomConvexV@@@Gu@physx@@UEBA?AT__m128@@H@Z 000000018005cac0 f i GuGjkQuery.obj
 0001:0005bb30       ?supportPoint@?$RelativeConvex@UCustomConvexV@@@Gu@physx@@UEBA?AT__m128@@H@Z 000000018005cb30 f i GuGjkQuery.obj
 0001:0005bbd0       ?sweep@PxGjkQuery@physx@@SA_NAEBUSupport@12@0AEBV?$PxTransformT@M@2@1AEBV?$PxVec3T@M@2@MAEAMAEAV52@4@Z 000000018005cbd0 f   GuGjkQuery.obj
 0001:0005c370       ??$approximateCluster@MV?$PxVec3T@M@physx@@@Gu@physx@@YAXAEBV?$PxArray@HV?$PxReflectionAllocator@H@physx@@@1@IIPEBIPEBV?$PxVec3T@M@1@AEBV?$PxArray@MV?$PxReflectionAllocator@M@physx@@@1@AEBV?$PxArray@V?$PxVec3T@M@physx@@V?$PxReflectionAllocator@V?$PxVec3T@M@physx@@@2@@1@4AEAU?$ClusterApproximationT@MV?$PxVec3T@M@physx@@@01@@Z 000000018005d370 f i GuWindingNumber.obj
 0001:0005c9b0       ??$copy@V?$PxReflectionAllocator@M@physx@@@?$PxArray@MV?$PxReflectionAllocator@M@physx@@@physx@@IEAAXAEBV01@@Z 000000018005d9b0 f i GuWindingNumber.obj
 0001:0005ca10       ??$precomputeClusterInformation@MV?$PxVec3T@M@physx@@@Gu@physx@@YAXHPEBUBVHNode@01@PEBIIPEBV?$PxVec3T@M@1@AEAV?$PxHashMap@IU?$ClusterApproximationT@MV?$PxVec3T@M@physx@@@Gu@physx@@U?$PxHash@I@3@VPxAllocator@3@@1@V?$PxArray@MV?$PxReflectionAllocator@M@physx@@@1@AEBV?$PxArray@V?$PxVec3T@M@physx@@V?$PxReflectionAllocator@V?$PxVec3T@M@physx@@@2@@1@5@Z 000000018005da10 f i GuWindingNumber.obj
 0001:0005cde0       ??$precomputeClusterInformation@MV?$PxVec3T@M@physx@@@Gu@physx@@YAXPEBUBVHNode@01@PEBIIPEBV?$PxVec3T@M@1@AEAV?$PxHashMap@IU?$ClusterApproximationT@MV?$PxVec3T@M@physx@@@Gu@physx@@U?$PxHash@I@3@VPxAllocator@3@@1@H@Z 000000018005dde0 f i GuWindingNumber.obj
 0001:0005d1e0       ??$traverseBVH@V?$WindingNumberTraversalController@MV?$PxVec3T@M@physx@@@Gu@physx@@@Gu@physx@@YAXPEBUBVHNode@01@AEAV?$WindingNumberTraversalController@MV?$PxVec3T@M@physx@@@01@H@Z 000000018005e1e0 f i GuWindingNumber.obj
 0001:0005d730       ?allocate@?$PxArray@HV?$PxReflectionAllocator@H@physx@@@physx@@IEAAPEAHI@Z 000000018005e730 f i GuWindingNumber.obj
 0001:0005d7d0       ?computeWindingNumber@Gu@physx@@YAMPEBUBVHNode@12@AEBV?$PxVec3T@M@2@AEBV?$PxHashMap@IU?$ClusterApproximationT@MV?$PxVec3T@M@physx@@@Gu@physx@@U?$PxHash@I@3@VPxAllocator@3@@2@PEBIPEBV42@@Z 000000018005e7d0 f   GuWindingNumber.obj
 0001:0005d840       ?computeWindingNumber@Gu@physx@@YAMPEBUBVHNode@12@AEBV?$PxVec3T@M@2@MAEBV?$PxHashMap@IU?$ClusterApproximationT@MV?$PxVec3T@M@physx@@@Gu@physx@@U?$PxHash@I@3@VPxAllocator@3@@2@PEBIPEBV42@@Z 000000018005e840 f   GuWindingNumber.obj
 0001:0005d8b0       ?copy@?$PxArray@MV?$PxReflectionAllocator@M@physx@@@physx@@KAXPEAM0PEBM@Z 000000018005e8b0 f i GuWindingNumber.obj
 0001:0005d910       ?create@?$PxHashBase@V?$PxPair@$$CBIU?$ClusterApproximationT@MV?$PxVec3T@M@physx@@@Gu@physx@@@physx@@IU?$PxHash@I@2@UGetKey@?$PxHashMapBase@IU?$ClusterApproximationT@MV?$PxVec3T@M@physx@@@Gu@physx@@U?$PxHash@I@3@VPxAllocator@3@@2@VPxAllocator@2@$00@physx@@QEAAPEAV?$PxPair@$$CBIU?$ClusterApproximationT@MV?$PxVec3T@M@physx@@@Gu@physx@@@2@AEBIAEA_N@Z 000000018005e910 f i GuWindingNumber.obj
 0001:0005da60       ?growAndPushBack@?$PxArray@HV?$PxReflectionAllocator@H@physx@@@physx@@IEAAAEAHAEBH@Z 000000018005ea60 f i GuWindingNumber.obj
 0001:0005db20       ?growAndPushBack@?$PxArray@USection@Gu@physx@@V?$PxReflectionAllocator@USection@Gu@physx@@@3@@physx@@IEAAAEAUSection@Gu@2@AEBU342@@Z 000000018005eb20 f i GuWindingNumber.obj
 0001:0005dc40       ?precomputeClusterInformation@Gu@physx@@YAXPEBUBVHNode@12@PEBIIPEBV?$PxVec3T@M@2@AEAV?$PxHashMap@IU?$ClusterApproximationT@MV?$PxVec3T@M@physx@@@Gu@physx@@U?$PxHash@I@3@VPxAllocator@3@@2@H@Z 000000018005ec40 f   GuWindingNumber.obj
 0001:0005dc50       ?recreate@?$PxArray@HV?$PxReflectionAllocator@H@physx@@@physx@@IEAAXI@Z 000000018005ec50 f i GuWindingNumber.obj
 0001:0005dd80       ?SweepAnyShapeHeightfield@Gu@physx@@YAMAEBUCCDShape@12@0AEBV?$PxTransformT@M@2@111MAEAV?$PxVec3T@M@2@2MAEAIM@Z 000000018005ed80 f   GuCCDSweepConvexMesh.obj
 0001:0005f320       ?SweepAnyShapeMesh@Gu@physx@@YAMAEBUCCDShape@12@0AEBV?$PxTransformT@M@2@111MAEAV?$PxVec3T@M@2@2MAEAIM@Z 0000000180060320 f   GuCCDSweepConvexMesh.obj
 0001:000608e0       ?SweepEstimateAnyShapeHeightfield@Gu@physx@@YAMAEBUCCDShape@12@0MM@Z 00000001800618e0 f   GuCCDSweepConvexMesh.obj
 0001:00061540       ?SweepEstimateAnyShapeMesh@Gu@physx@@YAMAEBUCCDShape@12@0MM@Z 0000000180062540 f   GuCCDSweepConvexMesh.obj
 0001:000617e0       ?allocate@?$PxArray@IV?$PxInlineAllocator@$0BAA@V?$PxReflectionAllocator@I@physx@@@physx@@@physx@@IEAAPEAII@Z 00000001800627e0 f i GuCCDSweepConvexMesh.obj
 0001:000622c0       ?growAndPushBack@?$PxArray@IV?$PxInlineAllocator@$0BAA@V?$PxReflectionAllocator@I@physx@@@physx@@@physx@@IEAAAEAIAEBI@Z 00000001800632c0 f i GuCCDSweepConvexMesh.obj
 0001:00062900       ?recreate@?$PxArray@IV?$PxInlineAllocator@$0BAA@V?$PxReflectionAllocator@I@physx@@@physx@@@physx@@IEAAXI@Z 0000000180063900 f i GuCCDSweepConvexMesh.obj
 0001:00062a30       ?resize@?$PxArray@IV?$PxInlineAllocator@$0BAA@V?$PxReflectionAllocator@I@physx@@@physx@@@physx@@QEAAXIAEBI@Z 0000000180063a30 f i GuCCDSweepConvexMesh.obj
 0001:00062b00       ?transformBoxOrthonormal@physx@@YA?AVBox@Gu@1@AEBV231@AEBV?$PxTransformT@M@1@@Z 0000000180063b00 f i GuCCDSweepConvexMesh.obj
 0001:00062f90       ?UnimplementedSweep@Gu@physx@@YAMAEBUCCDShape@12@0AEBV?$PxTransformT@M@2@111MAEAV?$PxVec3T@M@2@2MAEAIM@Z 0000000180063f90 f   GuCCDSweepPrimitives.obj
 0001:00066b30       ?UnimplementedTriangleSweep@Gu@physx@@YAMAEBVPxGeometry@2@0AEBV?$PxTransformT@M@2@111MAEAV?$PxVec3T@M@2@2AEBVFastVertex2ShapeScaling@Cm@2@AEAVTriangleV@12@M@Z 0000000180067b30 f   GuCCDSweepPrimitives.obj
 0001:00066b40       ??$SweepGeomTriangles@VCapsuleV@Gu@physx@@@Gu@physx@@YAMAEBVPxGeometry@1@0AEBV?$PxTransformT@M@1@111MAEAV?$PxVec3T@M@1@2AEBVFastVertex2ShapeScaling@Cm@1@AEAVTriangleV@01@M@Z 0000000180067b40 f i GuCCDSweepPrimitives.obj
 0001:00067270       ??$SweepGeomTriangles@VBoxV@Gu@physx@@@Gu@physx@@YAMAEBVPxGeometry@1@0AEBV?$PxTransformT@M@1@111MAEAV?$PxVec3T@M@1@2AEBVFastVertex2ShapeScaling@Cm@1@AEAVTriangleV@01@M@Z 0000000180068270 f i GuCCDSweepPrimitives.obj
 0001:000679c0       ??$SweepGeomTriangles@VConvexHullV@Gu@physx@@@Gu@physx@@YAMAEBVPxGeometry@1@0AEBV?$PxTransformT@M@1@111MAEAV?$PxVec3T@M@1@2AEBVFastVertex2ShapeScaling@Cm@1@AEAVTriangleV@01@M@Z 00000001800689c0 f i GuCCDSweepPrimitives.obj
 0001:000684b0       ?supportPoint@?$RelativeConvex@VCapsuleV@Gu@physx@@@Gu@physx@@UEBA?AT__m128@@H@Z 00000001800694b0 f i GuCCDSweepPrimitives.obj
 0001:00068510       ?support@?$RelativeConvex@VCapsuleV@Gu@physx@@@Gu@physx@@UEBA?AT__m128@@AEBT4@@Z 0000000180069510 f i GuCCDSweepPrimitives.obj
 0001:000685c0       ?support@?$RelativeConvex@VCapsuleV@Gu@physx@@@Gu@physx@@UEBA?AT__m128@@AEBT4@AEAH@Z 00000001800695c0 f i GuCCDSweepPrimitives.obj
 0001:00068680       ?supportPoint@?$RelativeConvex@VTriangleV@Gu@physx@@@Gu@physx@@UEBA?AT__m128@@H@Z 0000000180069680 f i GuCCDSweepPrimitives.obj
 0001:000686d0       ?support@?$RelativeConvex@VTriangleV@Gu@physx@@@Gu@physx@@UEBA?AT__m128@@AEBT4@@Z 00000001800696d0 f i GuCCDSweepPrimitives.obj
 0001:000687d0       ?support@?$RelativeConvex@VTriangleV@Gu@physx@@@Gu@physx@@UEBA?AT__m128@@AEBT4@AEAH@Z 00000001800697d0 f i GuCCDSweepPrimitives.obj
 0001:00068910       ??$gjkPenetration@U?$RelativeConvex@VCapsuleV@Gu@physx@@@Gu@physx@@U?$LocalConvex@VBoxV@Gu@physx@@@23@@Gu@physx@@YA?AW4GjkStatus@01@AEBU?$RelativeConvex@VCapsuleV@Gu@physx@@@01@AEBU?$LocalConvex@VBoxV@Gu@physx@@@01@AEBT__m128@@2_NPEIAE4AEAEAEAUGjkOutput@01@@Z 0000000180069910 f i GuCCDSweepPrimitives.obj
 0001:00068980       ??$gjkPenetration@U?$RelativeConvex@VCapsuleV@Gu@physx@@@Gu@physx@@U?$LocalConvex@VBoxV@Gu@physx@@@23@@Gu@physx@@YA?AW4GjkStatus@01@AEBU?$RelativeConvex@VCapsuleV@Gu@physx@@@01@AEBU?$LocalConvex@VBoxV@Gu@physx@@@01@AEBT__m128@@2_NPEIAE4PEIAT5@5AEAEAEAUGjkOutput@01@@Z 0000000180069980 f i GuCCDSweepPrimitives.obj
 0001:00069e80       ??$gjkPenetration@U?$RelativeConvex@VCapsuleV@Gu@physx@@@Gu@physx@@U?$LocalConvex@VCapsuleV@Gu@physx@@@23@@Gu@physx@@YA?AW4GjkStatus@01@AEBU?$RelativeConvex@VCapsuleV@Gu@physx@@@01@AEBU?$LocalConvex@VCapsuleV@Gu@physx@@@01@AEBT__m128@@2_NPEIAE4AEAEAEAUGjkOutput@01@@Z 000000018006ae80 f i GuCCDSweepPrimitives.obj
 0001:00069ef0       ??$gjkPenetration@U?$RelativeConvex@VCapsuleV@Gu@physx@@@Gu@physx@@U?$LocalConvex@VCapsuleV@Gu@physx@@@23@@Gu@physx@@YA?AW4GjkStatus@01@AEBU?$RelativeConvex@VCapsuleV@Gu@physx@@@01@AEBU?$LocalConvex@VCapsuleV@Gu@physx@@@01@AEBT__m128@@2_NPEIAE4PEIAT5@5AEAEAEAUGjkOutput@01@@Z 000000018006aef0 f i GuCCDSweepPrimitives.obj
 0001:0006b3e0       ??$gjkPenetration@U?$RelativeConvex@VCapsuleV@Gu@physx@@@Gu@physx@@U?$LocalConvex@VConvexHullV@Gu@physx@@@23@@Gu@physx@@YA?AW4GjkStatus@01@AEBU?$RelativeConvex@VCapsuleV@Gu@physx@@@01@AEBU?$LocalConvex@VConvexHullV@Gu@physx@@@01@AEBT__m128@@2_NPEIAE4AEAEAEAUGjkOutput@01@@Z 000000018006c3e0 f i GuCCDSweepPrimitives.obj
 0001:0006b450       ??$gjkPenetration@U?$RelativeConvex@VCapsuleV@Gu@physx@@@Gu@physx@@U?$LocalConvex@VConvexHullV@Gu@physx@@@23@@Gu@physx@@YA?AW4GjkStatus@01@AEBU?$RelativeConvex@VCapsuleV@Gu@physx@@@01@AEBU?$LocalConvex@VConvexHullV@Gu@physx@@@01@AEBT__m128@@2_NPEIAE4PEIAT5@5AEAEAEAUGjkOutput@01@@Z 000000018006c450 f i GuCCDSweepPrimitives.obj
 0001:0006ca00       ??$gjkPenetration@U?$RelativeConvex@VTriangleV@Gu@physx@@@Gu@physx@@U?$LocalConvex@VBoxV@Gu@physx@@@23@@Gu@physx@@YA?AW4GjkStatus@01@AEBU?$RelativeConvex@VTriangleV@Gu@physx@@@01@AEBU?$LocalConvex@VBoxV@Gu@physx@@@01@AEBT__m128@@2_NPEIAE4AEAEAEAUGjkOutput@01@@Z 000000018006da00 f i GuCCDSweepPrimitives.obj
 0001:0006ca70       ??$gjkPenetration@U?$RelativeConvex@VTriangleV@Gu@physx@@@Gu@physx@@U?$LocalConvex@VBoxV@Gu@physx@@@23@@Gu@physx@@YA?AW4GjkStatus@01@AEBU?$RelativeConvex@VTriangleV@Gu@physx@@@01@AEBU?$LocalConvex@VBoxV@Gu@physx@@@01@AEBT__m128@@2_NPEIAE4PEIAT5@5AEAEAEAUGjkOutput@01@@Z 000000018006da70 f i GuCCDSweepPrimitives.obj
 0001:0006df90       ??$gjkPenetration@U?$RelativeConvex@VTriangleV@Gu@physx@@@Gu@physx@@U?$LocalConvex@VCapsuleV@Gu@physx@@@23@@Gu@physx@@YA?AW4GjkStatus@01@AEBU?$RelativeConvex@VTriangleV@Gu@physx@@@01@AEBU?$LocalConvex@VCapsuleV@Gu@physx@@@01@AEBT__m128@@2_NPEIAE4AEAEAEAUGjkOutput@01@@Z 000000018006ef90 f i GuCCDSweepPrimitives.obj
 0001:0006e000       ??$gjkPenetration@U?$RelativeConvex@VTriangleV@Gu@physx@@@Gu@physx@@U?$LocalConvex@VCapsuleV@Gu@physx@@@23@@Gu@physx@@YA?AW4GjkStatus@01@AEBU?$RelativeConvex@VTriangleV@Gu@physx@@@01@AEBU?$LocalConvex@VCapsuleV@Gu@physx@@@01@AEBT__m128@@2_NPEIAE4PEIAT5@5AEAEAEAUGjkOutput@01@@Z 000000018006f000 f i GuCCDSweepPrimitives.obj
 0001:0006f520       ??$gjkPenetration@U?$RelativeConvex@VTriangleV@Gu@physx@@@Gu@physx@@U?$LocalConvex@VConvexHullV@Gu@physx@@@23@@Gu@physx@@YA?AW4GjkStatus@01@AEBU?$RelativeConvex@VTriangleV@Gu@physx@@@01@AEBU?$LocalConvex@VConvexHullV@Gu@physx@@@01@AEBT__m128@@2_NPEIAE4AEAEAEAUGjkOutput@01@@Z 0000000180070520 f i GuCCDSweepPrimitives.obj
 0001:0006f590       ??$gjkPenetration@U?$RelativeConvex@VTriangleV@Gu@physx@@@Gu@physx@@U?$LocalConvex@VConvexHullV@Gu@physx@@@23@@Gu@physx@@YA?AW4GjkStatus@01@AEBU?$RelativeConvex@VTriangleV@Gu@physx@@@01@AEBU?$LocalConvex@VConvexHullV@Gu@physx@@@01@AEBT__m128@@2_NPEIAE4PEIAT5@5AEAEAEAUGjkOutput@01@@Z 0000000180070590 f i GuCCDSweepPrimitives.obj
 0001:00070b50       ??$gjkRaycast@U?$RelativeConvex@VCapsuleV@Gu@physx@@@Gu@physx@@U?$LocalConvex@VBoxV@Gu@physx@@@23@@Gu@physx@@YA_NAEBU?$RelativeConvex@VCapsuleV@Gu@physx@@@01@AEBU?$LocalConvex@VBoxV@Gu@physx@@@01@AEBT__m128@@222AEAT4@33M@Z 0000000180071b50 f i GuCCDSweepPrimitives.obj
 0001:000717c0       ??$gjkRaycast@U?$RelativeConvex@VCapsuleV@Gu@physx@@@Gu@physx@@U?$LocalConvex@VCapsuleV@Gu@physx@@@23@@Gu@physx@@YA_NAEBU?$RelativeConvex@VCapsuleV@Gu@physx@@@01@AEBU?$LocalConvex@VCapsuleV@Gu@physx@@@01@AEBT__m128@@222AEAT4@33M@Z 00000001800727c0 f i GuCCDSweepPrimitives.obj
 0001:000724b0       ??$gjkRaycast@U?$RelativeConvex@VCapsuleV@Gu@physx@@@Gu@physx@@U?$LocalConvex@VConvexHullV@Gu@physx@@@23@@Gu@physx@@YA_NAEBU?$RelativeConvex@VCapsuleV@Gu@physx@@@01@AEBU?$LocalConvex@VConvexHullV@Gu@physx@@@01@AEBT__m128@@222AEAT4@33M@Z 00000001800734b0 f i GuCCDSweepPrimitives.obj
 0001:000732b0       ??$gjkRaycast@U?$RelativeConvex@VTriangleV@Gu@physx@@@Gu@physx@@U?$LocalConvex@VBoxV@Gu@physx@@@23@@Gu@physx@@YA_NAEBU?$RelativeConvex@VTriangleV@Gu@physx@@@01@AEBU?$LocalConvex@VBoxV@Gu@physx@@@01@AEBT__m128@@222AEAT4@33M@Z 00000001800742b0 f i GuCCDSweepPrimitives.obj
 0001:00073fc0       ??$gjkRaycast@U?$RelativeConvex@VTriangleV@Gu@physx@@@Gu@physx@@U?$LocalConvex@VCapsuleV@Gu@physx@@@23@@Gu@physx@@YA_NAEBU?$RelativeConvex@VTriangleV@Gu@physx@@@01@AEBU?$LocalConvex@VCapsuleV@Gu@physx@@@01@AEBT__m128@@222AEAT4@33M@Z 0000000180074fc0 f i GuCCDSweepPrimitives.obj
 0001:00074d40       ??$gjkRaycast@U?$RelativeConvex@VTriangleV@Gu@physx@@@Gu@physx@@U?$LocalConvex@VConvexHullV@Gu@physx@@@23@@Gu@physx@@YA_NAEBU?$RelativeConvex@VTriangleV@Gu@physx@@@01@AEBU?$LocalConvex@VConvexHullV@Gu@physx@@@01@AEBT__m128@@222AEAT4@33M@Z 0000000180075d40 f i GuCCDSweepPrimitives.obj
 0001:00075c00       ?SweepShapeShape@Gu@physx@@YAMAEBUCCDShape@12@0AEBV?$PxTransformT@M@2@111MAEAV?$PxVec3T@M@2@2MAEAIM@Z 0000000180076c00 f   GuCCDSweepPrimitives.obj
 0001:00075c20       ?SweepShapeTriangle@Gu@physx@@YAMAEBVPxGeometry@2@0AEBV?$PxTransformT@M@2@111MAEAV?$PxVec3T@M@2@2AEBVFastVertex2ShapeScaling@Cm@2@AEAVTriangleV@12@M@Z 0000000180076c20 f   GuCCDSweepPrimitives.obj
 0001:00075c40       ?barycentricCoordinates@Gu@physx@@YAXAEBT__m128@@000AEAT3@1@Z 0000000180076c40 f   GuBarycentricCoordinates.obj
 0001:00075d80       ?barycentricCoordinates@Gu@physx@@YAXAEBT__m128@@00AEAT3@@Z 0000000180076d80 f   GuBarycentricCoordinates.obj
 0001:00075df0       ??$?_UV?$PxReflectionAllocator@VAdjTriangle@Gu@physx@@@physx@@@PxUserAllocated@physx@@SAPEAX_KV?$PxReflectionAllocator@VAdjTriangle@Gu@physx@@@1@PEBDH@Z 0000000180076df0 f i GuAdjacencies.obj
 0001:00075ed0       ??0AdjacenciesBuilder@Gu@physx@@QEAA@XZ 0000000180076ed0 f   GuAdjacencies.obj
 0001:00075ee0       ??1AdjacenciesBuilder@Gu@physx@@QEAA@XZ 0000000180076ee0 f   GuAdjacencies.obj
 0001:00076030       ?ComputeNbBoundaryEdges@Adjacencies@Gu@physx@@QEBAIXZ 0000000180077030 f   GuAdjacencies.obj
 0001:000762c0       ?Init@AdjacenciesBuilder@Gu@physx@@QEAA_NAEBUADJACENCIESCREATE@23@@Z 00000001800772c0 f   GuAdjacencies.obj
 0001:00076820       ??0EdgeList@Gu@physx@@QEAA@XZ 0000000180077820 f   GuEdgeList.obj
 0001:00076840       ??1EdgeList@Gu@physx@@QEAA@XZ 0000000180077840 f   GuEdgeList.obj
 0001:000768f0       ?computeActiveEdges@EdgeList@Gu@physx@@AEAA_NIPEBIPEBGPEBV?$PxVec3T@M@3@M@Z 00000001800778f0 f   GuEdgeList.obj
 0001:00077c80       ?createEdgesToFaces@EdgeList@Gu@physx@@AEAA_NIPEBIPEBG@Z 0000000180078c80 f   GuEdgeList.obj
 0001:00077ee0       ?createFacesToEdges@EdgeList@Gu@physx@@AEAA_NIPEBIPEBG@Z 0000000180078ee0 f   GuEdgeList.obj
 0001:000782a0       ?init@EdgeList@Gu@physx@@QEAA_NAEBUEDGELISTCREATE@23@@Z 00000001800792a0 f   GuEdgeList.obj
 0001:000783c0       ?addAxis@SeparatingAxes@Gu@physx@@QEAA_NAEBV?$PxVec3T@M@3@@Z 00000001800793c0 f   GuSeparatingAxes.obj
 0001:00078480       ??$kmeans_cluster@V?$PxVec3T@M@physx@@M@@YAIPEBV?$PxVec3T@M@physx@@IIPEAV01@PEAIMM@Z 0000000180079480 f i GuQuantizer.obj
 0001:00078e40       ??_EQuantizer@Gu@physx@@MEAAPEAXI@Z 0000000180079e40 f i GuQuantizer.obj
 0001:00078e40       ??_GQuantizer@Gu@physx@@MEAAPEAXI@Z 0000000180079e40 f i GuQuantizer.obj
 0001:00078e70       ??_EQuantizerImpl@@EEAAPEAXI@Z 0000000180079e70 f i GuQuantizer.obj
 0001:00078e70       ??_GQuantizerImpl@@EEAAPEAXI@Z 0000000180079e70 f i GuQuantizer.obj
 0001:00078f40       ?createQuantizer@Gu@physx@@YAPEAVQuantizer@12@XZ 0000000180079f40 f   GuQuantizer.obj
 0001:00078ff0       ?getDenormalizeCenter@QuantizerImpl@@UEBAAEBV?$PxVec3T@M@physx@@XZ 0000000180079ff0 f i GuQuantizer.obj
 0001:00079000       ?getCurrentAABBTreeBounds@PruningPool@Gu@physx@@QEBAAEBVAABBTreeBounds@23@XZ 000000018007a000 f i GuIncrementalAABBPrunerCore.obj
 0001:00079000       ?getDenormalizeScale@QuantizerImpl@@UEBAAEBV?$PxVec3T@M@physx@@XZ 000000018007a000 f i GuQuantizer.obj
 0001:00079010       ?kmeansQuantize3D@QuantizerImpl@@UEAAPEBV?$PxVec3T@M@physx@@IPEBV23@I_NIAEAI@Z 000000018007a010 f i GuQuantizer.obj
 0001:00079270       ?normalizeInput@QuantizerImpl@@AEAAXIPEBV?$PxVec3T@M@physx@@I@Z 000000018007a270 f i GuQuantizer.obj
 0001:000796c0       ?release@QuantizerImpl@@UEAAXXZ 000000018007a6c0 f i GuQuantizer.obj
 0001:000796e0       ??0MeshCleaner@Gu@physx@@QEAA@IPEBV?$PxVec3T@M@2@IPEBIM@Z 000000018007a6e0 f   GuMeshCleaner.obj
 0001:0007a0a0       ??1MeshCleaner@Gu@physx@@QEAA@XZ 000000018007b0a0 f   GuMeshCleaner.obj
 0001:0007a130       ??0ReducedVertexCloud@Gu@physx@@QEAA@PEBV?$PxVec3T@M@2@I@Z 000000018007b130 f   GuVertexReducer.obj
 0001:0007a150       ??1ReducedVertexCloud@Gu@physx@@QEAA@XZ 000000018007b150 f   GuVertexReducer.obj
 0001:0007a160       ?clean@ReducedVertexCloud@Gu@physx@@QEAAAEAV123@XZ 000000018007b160 f   GuVertexReducer.obj
 0001:0007a1d0       ?reduce@ReducedVertexCloud@Gu@physx@@QEAA_NPEAUREDUCEDCLOUD@23@@Z 000000018007b1d0 f   GuVertexReducer.obj
 0001:0007a460       ??$copy@V?$PxReflectionAllocator@H@physx@@@?$PxArray@HV?$PxReflectionAllocator@H@physx@@@physx@@IEAAXAEBV01@@Z 000000018007b460 f i GuMeshAnalysis.obj
 0001:0007a4d0       ?buildTriangleAdjacency@MeshAnalyzer@Gu@physx@@SA_NPEBU?$IndexedTriangleT@H@23@IAEAV?$PxArray@HV?$PxReflectionAllocator@H@physx@@@3@AEAV?$PxHashMap@_KHU?$PxHash@_K@physx@@VPxAllocator@2@@3@@Z 000000018007b4d0 f   GuMeshAnalysis.obj
 0001:0007a7d0       ?checkConsistentTriangleOrientation@MeshAnalyzer@Gu@physx@@SA_NPEBU?$IndexedTriangleT@H@23@IAEAV?$PxArray@_NV?$PxReflectionAllocator@_N@physx@@@3@AEAV?$PxHashMap@_KHU?$PxHash@_K@physx@@VPxAllocator@2@@3@@Z 000000018007b7d0 f   GuMeshAnalysis.obj
 0001:0007ac10       ?checkMeshWatertightness@MeshAnalyzer@Gu@physx@@SA_NPEBU?$IndexedTriangleT@H@23@I@Z 000000018007bc10 f   GuMeshAnalysis.obj
 0001:0007ad60       ?erase@?$PxHashBase@V?$PxPair@$$CB_KH@physx@@_KU?$PxHash@_K@2@UGetKey@?$PxHashMapBase@_KHU?$PxHash@_K@physx@@VPxAllocator@2@@2@VPxAllocator@2@$00@physx@@QEAA_NAEB_K@Z 000000018007bd60 f i GuMeshAnalysis.obj
 0001:0007af10       ?growAndPushBack@?$PxArray@V?$PxArray@HV?$PxReflectionAllocator@H@physx@@@physx@@V?$PxReflectionAllocator@V?$PxArray@HV?$PxReflectionAllocator@H@physx@@@physx@@@2@@physx@@IEAAAEAV?$PxArray@HV?$PxReflectionAllocator@H@physx@@@2@AEBV32@@Z 000000018007bf10 f i GuMeshAnalysis.obj
 0001:0007b0a0       ?makeTriOrientationConsistent@MeshAnalyzer@Gu@physx@@SA_NPEAU?$IndexedTriangleT@H@23@I_N@Z 000000018007c0a0 f   GuMeshAnalysis.obj
 0001:0007b1b0       ?recreate@?$PxArray@_NV?$PxReflectionAllocator@_N@physx@@@physx@@IEAAXI@Z 000000018007c1b0 f i GuMeshAnalysis.obj
 0001:0007b2c0       ?resize@?$PxArray@HV?$PxReflectionAllocator@H@physx@@@physx@@QEAAXIAEBH@Z 000000018007c2c0 f i GuMeshAnalysis.obj
 0001:0007b380       ?resize@?$PxArray@_NV?$PxReflectionAllocator@_N@physx@@@physx@@QEAAXIAEB_N@Z 000000018007c380 f i GuMeshAnalysis.obj
 0001:0007b440       ?contactBoxBox@Gu@physx@@YA_NAEBVPxGeometry@2@0AEBV?$PxTransformT@M@2@1AEBUNarrowPhaseParams@12@AEAUCache@12@AEAVPxContactBuffer@2@PEAVPxRenderOutput@2@@Z 000000018007c440 f   GuContactBoxBox.obj
 0001:0007f280       ?contactCapsuleBox@Gu@physx@@YA_NAEBVPxGeometry@2@0AEBV?$PxTransformT@M@2@1AEBUNarrowPhaseParams@12@AEAUCache@12@AEAVPxContactBuffer@2@PEAVPxRenderOutput@2@@Z 0000000180080280 f   GuContactCapsuleBox.obj
 0001:0007fa90       ?contactCapsuleCapsule@Gu@physx@@YA_NAEBVPxGeometry@2@0AEBV?$PxTransformT@M@2@1AEBUNarrowPhaseParams@12@AEAUCache@12@AEAVPxContactBuffer@2@PEAVPxRenderOutput@2@@Z 0000000180080a90 f   GuContactCapsuleCapsule.obj
 0001:00082480       ?contactCapsuleConvex@Gu@physx@@YA_NAEBVPxGeometry@2@0AEBV?$PxTransformT@M@2@1AEBUNarrowPhaseParams@12@AEAUCache@12@AEAVPxContactBuffer@2@PEAVPxRenderOutput@2@@Z 0000000180083480 f   GuContactCapsuleConvex.obj
 0001:000849b0       ?contactCapsuleHeightfield@Gu@physx@@YA_NAEBVPxGeometry@2@0AEBV?$PxTransformT@M@2@1AEBUNarrowPhaseParams@12@AEAUCache@12@AEAVPxContactBuffer@2@PEAVPxRenderOutput@2@@Z 00000001800859b0 f   GuContactCapsuleMesh.obj
 0001:000851f0       ?contactCapsuleMesh@Gu@physx@@YA_NAEBVPxGeometry@2@0AEBV?$PxTransformT@M@2@1AEBUNarrowPhaseParams@12@AEAUCache@12@AEAVPxContactBuffer@2@PEAVPxRenderOutput@2@@Z 00000001800861f0 f   GuContactCapsuleMesh.obj
 0001:00086370       ?transformQueryBounds@FastVertex2ShapeScaling@Cm@physx@@QEBAXAEAV?$PxVec3T@M@3@0AEAV?$PxMat33T@M@3@@Z 0000000180087370 f i GuContactCapsuleMesh.obj
 0001:0008a8d0       ?contactBoxConvex@Gu@physx@@YA_NAEBVPxGeometry@2@0AEBV?$PxTransformT@M@2@1AEBUNarrowPhaseParams@12@AEAUCache@12@AEAVPxContactBuffer@2@PEAVPxRenderOutput@2@@Z 000000018008b8d0 f   GuContactConvexConvex.obj
 0001:0008aaa0       ?contactConvexConvex@Gu@physx@@YA_NAEBVPxGeometry@2@0AEBV?$PxTransformT@M@2@1AEBUNarrowPhaseParams@12@AEAUCache@12@AEAVPxContactBuffer@2@PEAVPxRenderOutput@2@@Z 000000018008baa0 f   GuContactConvexConvex.obj
 0001:0008af20       ?transformPlaneToShapeSpace@FastVertex2ShapeScaling@Cm@physx@@QEBAXAEBV?$PxVec3T@M@3@MAEAV43@AEAM@Z 000000018008bf20 f i GuContactConvexConvex.obj
 0001:0008b3d0       ??_EConvexMeshContactGenerationCallback@@UEAAPEAXI@Z 000000018008c3d0 f i GuContactConvexMesh.obj
 0001:0008b3d0       ??_GConvexMeshContactGenerationCallback@@UEAAPEAXI@Z 000000018008c3d0 f i GuContactConvexMesh.obj
 0001:0008b430       ?addData@?$CacheMap@UCachedEdge@Gu@physx@@$0IA@@Gu@physx@@QEAA_NAEBUCachedEdge@23@@Z 000000018008c430 f i GuContactConvexMesh.obj
 0001:0008b510       ?addData@?$CacheMap@UCachedVertex@Gu@physx@@$0IA@@Gu@physx@@QEAA_NAEBUCachedVertex@23@@Z 000000018008c510 f i GuContactConvexMesh.obj
 0001:0008b5a0       ?allocate@?$PxArray@IV?$PxInlineAllocator@$0BBAA@V?$PxReflectionAllocator@I@physx@@@physx@@@physx@@IEAAPEAII@Z 000000018008c5a0 f i GuContactConvexMesh.obj
 0001:0008b9a0       ?contactBoxHeightfield@Gu@physx@@YA_NAEBVPxGeometry@2@0AEBV?$PxTransformT@M@2@1AEBUNarrowPhaseParams@12@AEAUCache@12@AEAVPxContactBuffer@2@PEAVPxRenderOutput@2@@Z 000000018008c9a0 f   GuContactConvexMesh.obj
 0001:0008bb20       ?contactBoxMesh@Gu@physx@@YA_NAEBVPxGeometry@2@0AEBV?$PxTransformT@M@2@1AEBUNarrowPhaseParams@12@AEAUCache@12@AEAVPxContactBuffer@2@PEAVPxRenderOutput@2@@Z 000000018008cb20 f   GuContactConvexMesh.obj
 0001:0008bcf0       ?contactConvexHeightfield@Gu@physx@@YA_NAEBVPxGeometry@2@0AEBV?$PxTransformT@M@2@1AEBUNarrowPhaseParams@12@AEAUCache@12@AEAVPxContactBuffer@2@PEAVPxRenderOutput@2@@Z 000000018008ccf0 f   GuContactConvexMesh.obj
 0001:0008be40       ?contactConvexMesh@Gu@physx@@YA_NAEBVPxGeometry@2@0AEBV?$PxTransformT@M@2@1AEBUNarrowPhaseParams@12@AEAUCache@12@AEAVPxContactBuffer@2@PEAVPxRenderOutput@2@@Z 000000018008ce40 f   GuContactConvexMesh.obj
 0001:0008f550       ?processHit@ConvexMeshContactGenerationCallback@@UEAA_NAEBUPxGeomRaycastHit@physx@@AEBV?$PxVec3T@M@3@11AEAMPEBI@Z 0000000180090550 f i GuContactConvexMesh.obj
 0001:0008ff10       ?recreate@?$PxArray@IV?$PxInlineAllocator@$0BBAA@V?$PxReflectionAllocator@I@physx@@@physx@@@physx@@IEAAXI@Z 0000000180090f10 f i GuContactConvexMesh.obj
 0001:000913a0       ?contactPlaneBox@Gu@physx@@YA_NAEBVPxGeometry@2@0AEBV?$PxTransformT@M@2@1AEBUNarrowPhaseParams@12@AEAUCache@12@AEAVPxContactBuffer@2@PEAVPxRenderOutput@2@@Z 00000001800923a0 f   GuContactPlaneBox.obj
 0001:00092030       ?contactPlaneCapsule@Gu@physx@@YA_NAEBVPxGeometry@2@0AEBV?$PxTransformT@M@2@1AEBUNarrowPhaseParams@12@AEAUCache@12@AEAVPxContactBuffer@2@PEAVPxRenderOutput@2@@Z 0000000180093030 f   GuContactPlaneCapsule.obj
 0001:00092700       ?contactPlaneConvex@Gu@physx@@YA_NAEBVPxGeometry@2@0AEBV?$PxTransformT@M@2@1AEBUNarrowPhaseParams@12@AEAUCache@12@AEAVPxContactBuffer@2@PEAVPxRenderOutput@2@@Z 0000000180093700 f   GuContactPlaneConvex.obj
 0001:00094430       ?contactPolygonPolygonExt@Gu@physx@@YA_NIPEBV?$PxVec3T@M@2@PEBEAEBV?$PxMat34T@M@2@AEBVPxPlane@2@AEBV?$PxMat33T@M@2@I01234AEBV32@22IIAEAVPxContactBuffer@2@_N5M@Z 0000000180095430 f   GuContactPolygonPolygon.obj
 0001:00095ba0       ?findRotationMatrixFromZ@Gu@physx@@YA?AV?$PxMat33T@M@2@AEBV?$PxVec3T@M@2@@Z 0000000180096ba0 f   GuContactPolygonPolygon.obj
 0001:000965c0       ?contactSphereBox@Gu@physx@@YA_NAEBVPxGeometry@2@0AEBV?$PxTransformT@M@2@1AEBUNarrowPhaseParams@12@AEAUCache@12@AEAVPxContactBuffer@2@PEAVPxRenderOutput@2@@Z 00000001800975c0 f   GuContactSphereBox.obj
 0001:00096b80       ?contactSphereCapsule@Gu@physx@@YA_NAEBVPxGeometry@2@0AEBV?$PxTransformT@M@2@1AEBUNarrowPhaseParams@12@AEAUCache@12@AEAVPxContactBuffer@2@PEAVPxRenderOutput@2@@Z 0000000180097b80 f   GuContactSphereCapsule.obj
 0001:00097960       ?contactSphereHeightfield@Gu@physx@@YA_NAEBVPxGeometry@2@0AEBV?$PxTransformT@M@2@1AEBUNarrowPhaseParams@12@AEAUCache@12@AEAVPxContactBuffer@2@PEAVPxRenderOutput@2@@Z 0000000180098960 f   GuContactSphereMesh.obj
 0001:00098350       ?contactSphereMesh@Gu@physx@@YA_NAEBVPxGeometry@2@0AEBV?$PxTransformT@M@2@1AEBUNarrowPhaseParams@12@AEAUCache@12@AEAVPxContactBuffer@2@PEAVPxRenderOutput@2@@Z 0000000180099350 f   GuContactSphereMesh.obj
 0001:0009a670       ?contactSpherePlane@Gu@physx@@YA_NAEBVPxGeometry@2@0AEBV?$PxTransformT@M@2@1AEBUNarrowPhaseParams@12@AEAUCache@12@AEAVPxContactBuffer@2@PEAVPxRenderOutput@2@@Z 000000018009b670 f   GuContactSpherePlane.obj
 0001:0009a880       ?contactSphereSphere@Gu@physx@@YA_NAEBVPxGeometry@2@0AEBV?$PxTransformT@M@2@1AEBUNarrowPhaseParams@12@AEAUCache@12@AEAVPxContactBuffer@2@PEAVPxRenderOutput@2@@Z 000000018009b880 f   GuContactSphereSphere.obj
 0001:0009aa00       ?contactCustomGeometryGeometry@Gu@physx@@YA_NAEBVPxGeometry@2@0AEBV?$PxTransformT@M@2@1AEBUNarrowPhaseParams@12@AEAUCache@12@AEAVPxContactBuffer@2@PEAVPxRenderOutput@2@@Z 000000018009ba00 f   GuContactCustomGeometry.obj
 0001:0009aa60       ?contactGeometryCustomGeometry@Gu@physx@@YA_NAEBVPxGeometry@2@0AEBV?$PxTransformT@M@2@1AEBUNarrowPhaseParams@12@AEAUCache@12@AEAVPxContactBuffer@2@PEAVPxRenderOutput@2@@Z 000000018009ba60 f   GuContactCustomGeometry.obj
 0001:0009ab20       ?selectNormal@Gu@physx@@YA_NEMM@Z 000000018009bb20 f   GuFeatureCode.obj
 0001:0009aba0       ??0BigConvexData@physx@@QEAA@XZ 000000018009bba0 f   GuBigConvexData.obj
 0001:0009abc0       ??1BigConvexData@physx@@QEAA@XZ 000000018009bbc0 f   GuBigConvexData.obj
 0001:0009ac80       ?ComputeNearestOffset@BigConvexData@physx@@QEBAIAEBV?$PxVec3T@M@2@@Z 000000018009bc80 f   GuBigConvexData.obj
 0001:0009ad80       ?ComputeOffset@BigConvexData@physx@@QEBAIAEBV?$PxVec3T@M@2@@Z 000000018009bd80 f   GuBigConvexData.obj
 0001:0009ae80       ?CreateOffsets@BigConvexData@physx@@IEAAXXZ 000000018009be80 f   GuBigConvexData.obj
 0001:0009aed0       ?Load@BigConvexData@physx@@QEAA_NAEAVPxInputStream@2@@Z 000000018009bed0 f   GuBigConvexData.obj
 0001:0009afe0       ?VLoad@BigConvexData@physx@@IEAA_NAEAVPxInputStream@2@@Z 000000018009bfe0 f   GuBigConvexData.obj
 0001:0009b180       ?exportExtraData@BigConvexData@physx@@QEAAXAEAVPxSerializationContext@2@@Z 000000018009c180 f   GuBigConvexData.obj
 0001:0009b200       ?importExtraData@BigConvexData@physx@@QEAAXAEAVPxDeserializationContext@2@@Z 000000018009c200 f   GuBigConvexData.obj
 0001:0009b270       ?findUniqueConvexEdges@Gu@physx@@YAIIPEIAUConvexEdge@12@IPEIBUHullPolygonData@12@PEIBE@Z 000000018009c270 f   GuConvexHelper.obj
 0001:0009b3b0       ?getConvexData@Gu@physx@@YA_NAEBVPxConvexMeshGeometry@2@AEAVFastVertex2ShapeScaling@Cm@2@AEAVPxBounds3@2@AEAUPolygonalData@12@@Z 000000018009c3b0 f   GuConvexHelper.obj
 0001:0009b640       ?getScaledConvex@Gu@physx@@YAXAEAPEAV?$PxVec3T@M@2@AEAPEAEPEAV32@PEAE_NPEBV32@PEBEIAEBVFastVertex2ShapeScaling@Cm@2@@Z 000000018009c640 f   GuConvexHelper.obj
 0001:0009b770       ??0ConvexMesh@Gu@physx@@QEAA@PEAVMeshFactory@12@@Z 000000018009c770 f   GuConvexMesh.obj
 0001:0009b800       ??0ConvexMesh@Gu@physx@@QEAA@PEAVMeshFactory@12@AEAUConvexHullInitData@12@@Z 000000018009c800 f   GuConvexMesh.obj
 0001:0009b920       ??_EConvexMesh@Gu@physx@@UEAAPEAXI@Z 000000018009c920 f i GuConvexMesh.obj
 0001:0009b920       ??_GConvexMesh@Gu@physx@@UEAAPEAXI@Z 000000018009c920 f i GuConvexMesh.obj
 0001:0009ba20       ??_EPxBVH@physx@@MEAAPEAXI@Z 000000018009ca20 f i GuBVH.obj
 0001:0009ba20       ??_EPxBase@physx@@MEAAPEAXI@Z 000000018009ca20 f i GuConvexMesh.obj
 0001:0009ba20       ??_GPxBVH@physx@@MEAAPEAXI@Z 000000018009ca20 f i GuBVH.obj
 0001:0009ba20       ??_GPxBase@physx@@MEAAPEAXI@Z 000000018009ca20 f i GuConvexMesh.obj
 0001:0009ba50       ?acquireReference@ConvexMesh@Gu@physx@@UEAAXXZ 000000018009ca50 f   GuConvexMesh.obj
 0001:0009ba50       ?acquireReference@HeightField@Gu@physx@@UEAAXXZ 000000018009ca50 f   GuHeightField.obj
 0001:0009ba50       ?acquireReference@SoftBodyAuxData@Gu@physx@@UEAAXXZ 000000018009ca50 f   GuTetrahedronMesh.obj
 0001:0009ba50       ?acquireReference@SoftBodyMesh@Gu@physx@@UEAAXXZ 000000018009ca50 f   GuTetrahedronMesh.obj
 0001:0009ba50       ?acquireReference@TetrahedronMesh@Gu@physx@@UEAAXXZ 000000018009ca50 f   GuTetrahedronMesh.obj
 0001:0009ba50       ?acquireReference@TriangleMesh@Gu@physx@@UEAAXXZ 000000018009ca50 f   GuTriangleMesh.obj
 0001:0009bf20       ?createObject@ConvexMesh@Gu@physx@@SAPEAV123@AEAPEAEAEAVPxDeserializationContext@3@@Z 000000018009cf20 f   GuConvexMesh.obj
 0001:0009c010       ?exportExtraData@ConvexMesh@Gu@physx@@UEAAXAEAVPxSerializationContext@3@@Z 000000018009d010 f   GuConvexMesh.obj
 0001:0009c0e0       ?getConcreteTypeName@PxConvexMesh@physx@@UEBAPEBDXZ 000000018009d0e0 f i GuConvexMesh.obj
 0001:0009c0f0       ?getIndexBuffer@ConvexMesh@Gu@physx@@UEBAPEBEXZ 000000018009d0f0 f i GuConvexMesh.obj
 0001:0009c130       ?getLocalBounds@ConvexMesh@Gu@physx@@UEBA?AVPxBounds3@3@XZ 000000018009d130 f   GuConvexMesh.obj
 0001:0009c1c0       ?getMassInformation@ConvexMesh@Gu@physx@@UEBAXAEAMAEAV?$PxMat33T@M@3@AEAV?$PxVec3T@M@3@@Z 000000018009d1c0 f   GuConvexMesh.obj
 0001:0009c230       ?getNbPolygons@ConvexMesh@Gu@physx@@UEBAIXZ 000000018009d230 f i GuConvexMesh.obj
 0001:0009c240       ?getNbVertices@ConvexMesh@Gu@physx@@UEBAIXZ 000000018009d240 f i GuConvexMesh.obj
 0001:0009c250       ?getPolygonData@ConvexMesh@Gu@physx@@UEBA_NIAEAUPxHullPolygon@3@@Z 000000018009d250 f   GuConvexMesh.obj
 0001:0009c2a0       ?getReferenceCount@ConvexMesh@Gu@physx@@UEBAIXZ 000000018009d2a0 f   GuConvexMesh.obj
 0001:0009c2a0       ?getReferenceCount@HeightField@Gu@physx@@UEBAIXZ 000000018009d2a0 f   GuHeightField.obj
 0001:0009c2a0       ?getReferenceCount@SoftBodyAuxData@Gu@physx@@UEBAIXZ 000000018009d2a0 f   GuTetrahedronMesh.obj
 0001:0009c2a0       ?getReferenceCount@SoftBodyMesh@Gu@physx@@UEBAIXZ 000000018009d2a0 f   GuTetrahedronMesh.obj
 0001:0009c2a0       ?getReferenceCount@TetrahedronMesh@Gu@physx@@UEBAIXZ 000000018009d2a0 f   GuTetrahedronMesh.obj
 0001:0009c2a0       ?getReferenceCount@TriangleMesh@Gu@physx@@UEBAIXZ 000000018009d2a0 f   GuTriangleMesh.obj
 0001:0009c2a0       ?length@DNameStatusNode@@UEBAHXZ 000000018009d2a0 f   libvcruntime:undname.obj
 0001:0009c2a0       ?raw_length@DNameStatusNode@@UEBAHXZ 000000018009d2a0 f   libvcruntime:undname.obj
 0001:0009c2b0       ?getSDF@ConvexMesh@Gu@physx@@UEBAPEBMXZ 000000018009d2b0 f   GuConvexMesh.obj
 0001:0009c2c0       ?getVertices@ConvexMesh@Gu@physx@@UEBAPEBV?$PxVec3T@M@3@XZ 000000018009d2c0 f i GuConvexMesh.obj
 0001:0009c2e0       ?isGpuCompatible@ConvexMesh@Gu@physx@@UEBA_NXZ 000000018009d2e0 f   GuConvexMesh.obj
 0001:0009c320       ?isKindOf@PxBase@physx@@MEBA_NPEBD@Z 000000018009d320 f i GuConvexMesh.obj
 0001:0009c350       ?isKindOf@PxConvexMesh@physx@@MEBA_NPEBD@Z 000000018009d350 f i GuConvexMesh.obj
 0001:0009c3c0       ?isReleasable@PxBase@physx@@UEBA_NXZ 000000018009d3c0 f i GuConvexMesh.obj
 0001:0009c3d0       ?load@ConvexMesh@Gu@physx@@QEAA_NAEAVPxInputStream@3@@Z 000000018009d3d0 f   GuConvexMesh.obj
 0001:0009c930       ?onRefCountZero@ConvexMesh@Gu@physx@@UEAAXXZ 000000018009d930 f   GuConvexMesh.obj
 0001:0009ca60       ?release@ConvexMesh@Gu@physx@@UEAAXXZ 000000018009da60 f   GuConvexMesh.obj
 0001:0009ca60       ?release@HeightField@Gu@physx@@UEAAXXZ 000000018009da60 f   GuHeightField.obj
 0001:0009ca60       ?release@SoftBodyAuxData@Gu@physx@@UEAAXXZ 000000018009da60 f   GuTetrahedronMesh.obj
 0001:0009ca60       ?release@SoftBodyMesh@Gu@physx@@UEAAXXZ 000000018009da60 f   GuTetrahedronMesh.obj
 0001:0009ca60       ?release@TetrahedronMesh@Gu@physx@@UEAAXXZ 000000018009da60 f   GuTetrahedronMesh.obj
 0001:0009ca60       ?release@TriangleMesh@Gu@physx@@UEAAXXZ 000000018009da60 f   GuTriangleMesh.obj
 0001:0009ca90       ??Dphysx@@YA?AV?$PxMat34T@M@0@AEBVPxMeshScale@0@AEBV10@@Z 000000018009da90 f i GuConvexUtilsInternal.obj
 0001:0009d030       ?computeHullOBB@Gu@physx@@YAXAEAVBox@12@AEBVPxBounds3@2@MAEBV?$PxMat34T@M@2@2AEBVFastVertex2ShapeScaling@Cm@2@_N@Z 000000018009e030 f   GuConvexUtilsInternal.obj
 0001:0009d4e0       ?computeOBBAroundConvex@Gu@physx@@YAXAEAVBox@12@AEBVPxConvexMeshGeometry@2@PEBVPxConvexMesh@2@AEBV?$PxTransformT@M@2@@Z 000000018009e4e0 f   GuConvexUtilsInternal.obj
 0001:0009dd50       ?computeVertexSpaceOBB@Gu@physx@@YAXAEAVBox@12@AEBV312@AEBV?$PxTransformT@M@2@AEBVPxMeshScale@2@@Z 000000018009ed50 f   GuConvexUtilsInternal.obj
 0001:0009e080       ?transform@physx@@YA?AVBox@Gu@1@AEBV?$PxMat34T@M@1@AEBV231@@Z 000000018009f080 f i GuConvexUtilsInternal.obj
 0001:0009e2d0       ?localSearch@physx@@YAXAEAIAEBV?$PxVec3T@M@1@PEBV21@PEBUBigConvexRawData@Gu@1@@Z 000000018009f2d0 f   GuHillClimbing.obj
 0001:0009e400       ??0PCMPolygonalBox@Gu@physx@@QEAA@AEBV?$PxVec3T@M@2@@Z 000000018009f400 f   GuPCMShapeConvex.obj
 0001:0009e400       ??0PolygonalBox@Gu@physx@@QEAA@AEBV?$PxVec3T@M@2@@Z 000000018009f400 f   GuShapeConvex.obj
 0001:0009f8c0       ?getPolygonalData@PolygonalBox@Gu@physx@@QEBAXPEIAUPolygonalData@23@@Z 00000001800a08c0 f   GuShapeConvex.obj
 0001:0009f930       ?getPolygonalData_Convex@Gu@physx@@YAXPEIAUPolygonalData@12@PEIBUConvexHullData@12@AEBVFastVertex2ShapeScaling@Cm@2@@Z 00000001800a0930 f   GuShapeConvex.obj
 0001:0009fa90       ?distancePointBoxSquared@Gu@physx@@YAMAEBV?$PxVec3T@M@2@00AEBV?$PxMat33T@M@2@PEAV32@@Z 00000001800a0a90 f   GuDistancePointBox.obj
 0001:0009fbe0       ?closestPtPointTriangle@Gu@physx@@YA?AV?$PxVec3T@M@2@AEBV32@000AEAM1@Z 00000001800a0be0 f   GuDistancePointTriangle.obj
 0001:000a0100       ?distancePointTriangleSquared@Gu@physx@@YA?AT__m128@@AEBT3@000AEAT3@11@Z 00000001800a1100 f   GuDistancePointTriangle.obj
 0001:000a0e50       ?distanceSegmentBoxSquared@Gu@physx@@YAMAEBV?$PxVec3T@M@2@000AEBV?$PxMat33T@M@2@PEAMPEAV32@@Z 00000001800a1e50 f   GuDistanceSegmentBox.obj
 0001:000a16d0       ?distanceSegmentSegmentSquared4@Gu@physx@@YA?AT__m128@@AEBT3@000000000AEAT3@1@Z 00000001800a26d0 f   GuDistanceSegmentSegment.obj
 0001:000a19e0       ?distanceSegmentSegmentSquared@Gu@physx@@YA?AT__m128@@AEBT3@000AEAT3@1@Z 00000001800a29e0 f   GuDistanceSegmentSegment.obj
 0001:000a1ba0       ?distanceSegmentSegmentSquared@Gu@physx@@YAMAEBV?$PxVec3T@M@2@000PEAM1@Z 00000001800a2ba0 f   GuDistanceSegmentSegment.obj
 0001:000a1e30       ?distanceSegmentSegmentSquared@Gu@physx@@YAMAEBV?$PxVec3T@M@2@0M00MPEAM1@Z 00000001800a2e30 f   GuDistanceSegmentSegment.obj
 0001:000a2570       ?distanceSegmentTriangleSquared@Gu@physx@@YA?AT__m128@@AEBT3@0000AEAT3@1@Z 00000001800a3570 f   GuDistanceSegmentTriangle.obj
 0001:000a2cb0       ?distanceSegmentTriangleSquared@Gu@physx@@YAMAEBV?$PxVec3T@M@2@0000PEAM11@Z 00000001800a3cb0 f   GuDistanceSegmentTriangle.obj
 0001:000a4320       ?PointOutsideOfPlane4@Gu@physx@@YA?AV?$PxVec4T@M@2@AEBV?$PxVec3T@M@2@0000@Z 00000001800a5320 f   GuDistancePointTetrahedron.obj
 0001:000a4790       ?closestPtPointTetrahedron@Gu@physx@@YA?AV?$PxVec3T@M@2@AEBV32@0000AEBV?$PxVec4T@M@2@@Z 00000001800a5790 f   GuDistancePointTetrahedron.obj
 0001:000a5880       ?PenetrationDepth@EPA@Gu@physx@@QEAA?AW4GjkStatus@23@AEBUGjkConvex@23@0PEIBT__m128@@1E_NT6@AEAUGjkOutput@23@@Z 00000001800a6880 f   GuEPA.obj
 0001:000a63a0       ?addFacet@EPA@Gu@physx@@QEAAPEAVFacet@23@IIIAEBT__m128@@@Z 00000001800a73a0 f   GuEPA.obj
 0001:000a67d0       ?epaPenetration@Gu@physx@@YA?AW4GjkStatus@12@AEBUGjkConvex@12@0PEIBE1E_NT__m128@@AEAUGjkOutput@12@@Z 00000001800a77d0 f   GuEPA.obj
 0001:000a6940       ?epaPenetration@Gu@physx@@YA?AW4GjkStatus@12@AEBUGjkConvex@12@0PEIBT__m128@@1E_NT5@AEAUGjkOutput@12@@Z 00000001800a7940 f   GuEPA.obj
 0001:000a69f0       ?silhouette@Facet@Gu@physx@@QEAAXAEBT__m128@@PEIBT4@1AEAVEdgeBuffer@23@AEAV?$InlineDeferredIDPool@$0EA@@Cm@3@@Z 00000001800a79f0 f   GuEPA.obj
 0001:000a6bc0       ?closestPtPointTetrahedron@Gu@physx@@YA?AT__m128@@PEIAT3@00AEAI@Z 00000001800a7bc0 f   GuGJKSimplex.obj
 0001:000a7330       ?closestPtPointTetrahedron@Gu@physx@@YA?AT__m128@@PEIAT3@00PEIAH1AEAI@Z 00000001800a8330 f   GuGJKSimplex.obj
 0001:000a8db0       ??$gjk@UGjkConvex@Gu@physx@@U123@@Gu@physx@@YA?AW4GjkStatus@01@AEBUGjkConvex@01@0AEBT__m128@@1AEAT4@222@Z 00000001800a9db0 f i GuGJKTest.obj
 0001:000a99d0       ??$gjkPenetration@UGjkConvex@Gu@physx@@U123@@Gu@physx@@YA?AW4GjkStatus@01@AEBUGjkConvex@01@0AEBT__m128@@1_NPEIAE3AEAEAEAUGjkOutput@01@@Z 00000001800aa9d0 f i GuGJKTest.obj
 0001:000a9a40       ??$gjkPenetration@UGjkConvex@Gu@physx@@U123@@Gu@physx@@YA?AW4GjkStatus@01@AEBUGjkConvex@01@0AEBT__m128@@1_NPEIAE3PEIAT4@4AEAEAEAUGjkOutput@01@@Z 00000001800aaa40 f i GuGJKTest.obj
 0001:000aaea0       ?testEpaPenetration@Gu@physx@@YA?AW4GjkStatus@12@AEBUGjkConvex@12@0PEBE1EAEAUGjkOutput@12@@Z 00000001800abea0 f   GuGJKTest.obj
 0001:000aaef0       ?testGjk@Gu@physx@@YA?AW4GjkStatus@12@AEBUGjkConvex@12@0AEBT__m128@@1AEAT5@222@Z 00000001800abef0 f   GuGJKTest.obj
 0001:000aaf00       ?testGjkPenetration@Gu@physx@@YA?AW4GjkStatus@12@AEBUGjkConvex@12@0AEBT__m128@@1PEAE2AEAEAEAUGjkOutput@12@@Z 00000001800abf00 f   GuGJKTest.obj
 0001:000aaf50       ??0HeightField@Gu@physx@@QEAA@PEAVMeshFactory@12@@Z 00000001800abf50 f   GuHeightField.obj
 0001:000aafa0       ??0HeightField@Gu@physx@@QEAA@PEAVMeshFactory@12@AEAUHeightFieldData@12@@Z 00000001800abfa0 f   GuHeightField.obj
 0001:000ab050       ??1HeightField@Gu@physx@@UEAA@XZ 00000001800ac050 f   GuHeightField.obj
 0001:000ab0d0       ??_EHeightField@Gu@physx@@UEAAPEAXI@Z 00000001800ac0d0 f i GuHeightField.obj
 0001:000ab0d0       ??_GHeightField@Gu@physx@@UEAAPEAXI@Z 00000001800ac0d0 f i GuHeightField.obj
 0001:000ab170       ?computeCellCoordinates@HeightField@Gu@physx@@QEBAIMMAEAM0@Z 00000001800ac170 f   GuHeightField.obj
 0001:000ab290       ?createObject@HeightField@Gu@physx@@SAPEAV123@AEAPEAEAEAVPxDeserializationContext@3@@Z 00000001800ac290 f   GuHeightField.obj
 0001:000ab2e0       ?exportExtraData@HeightField@Gu@physx@@UEAAXAEAVPxSerializationContext@3@@Z 00000001800ac2e0 f   GuHeightField.obj
 0001:000ab330       ?getConcreteTypeName@PxHeightField@physx@@UEBAPEBDXZ 00000001800ac330 f i GuHeightField.obj
 0001:000ab340       ?getConvexEdgeThreshold@HeightField@Gu@physx@@UEBAMXZ 00000001800ac340 f i GuHeightField.obj
 0001:000ab350       ?getFlags@HeightField@Gu@physx@@UEBA?AV?$PxFlags@W4Enum@PxHeightFieldFlag@physx@@G@3@XZ 00000001800ac350 f i GuHeightField.obj
 0001:000ab360       ?getFormat@HeightField@Gu@physx@@UEBA?AW4Enum@PxHeightFieldFormat@3@XZ 00000001800ac360 f i GuHeightField.obj
 0001:000ab370       ?getHeight@HeightField@Gu@physx@@UEBAMMM@Z 00000001800ac370 f i GuHeightField.obj
 0001:000ab490       ?getNbColumns@HeightField@Gu@physx@@UEBAIXZ 00000001800ac490 f i GuHeightField.obj
 0001:000ab4a0       ?getNbBounds@BVH@Gu@physx@@UEBAIXZ 00000001800ac4a0 f i GuBVH.obj
 0001:000ab4a0       ?getNbPrimitives@SourceMesh@Gu@physx@@UEBAIXZ 00000001800ac4a0 f i GuBV4.obj
 0001:000ab4a0       ?getNbPrimitives@TetrahedronSourceMesh@Gu@physx@@UEBAIXZ 00000001800ac4a0 f i GuBV4.obj
 0001:000ab4a0       ?getNbRows@HeightField@Gu@physx@@UEBAIXZ 00000001800ac4a0 f i GuHeightField.obj
 0001:000ab4b0       ?getSample@HeightField@Gu@physx@@UEBAAEBUPxHeightFieldSample@3@II@Z 00000001800ac4b0 f i GuHeightField.obj
 0001:000ab4c0       ?getSampleStride@HeightField@Gu@physx@@UEBAIXZ 00000001800ac4c0 f i GuHeightField.obj
 0001:000ab4d0       ?getTimestamp@HeightField@Gu@physx@@UEBAIXZ 00000001800ac4d0 f i GuHeightField.obj
 0001:000ab4e0       ?getTriangleMaterialIndex@HeightField@Gu@physx@@UEBAGI@Z 00000001800ac4e0 f i GuHeightField.obj
 0001:000ab510       ?getTriangleNormal@HeightField@Gu@physx@@UEBA?AV?$PxVec3T@M@3@I@Z 00000001800ac510 f i GuHeightField.obj
 0001:000ab530       ?getTriangleNormalInternal@HeightField@Gu@physx@@QEBA?AV?$PxVec3T@M@3@I@Z 00000001800ac530 f i GuHeightField.obj
 0001:000ab860       ?isCollisionVertexPreca@HeightField@Gu@physx@@QEBA_NIIIG@Z 00000001800ac860 f   GuHeightField.obj
 0001:000ab900       ?isConvexVertex@HeightField@Gu@physx@@QEBA_NIII@Z 00000001800ac900 f i GuHeightField.obj
 0001:000ab9d0       ?isKindOf@PxHeightField@physx@@MEBA_NPEBD@Z 00000001800ac9d0 f i GuHeightField.obj
 0001:000aba40       ?isSolidVertex@HeightField@Gu@physx@@QEBA_NIIIGAEA_N@Z 00000001800aca40 f   GuHeightField.obj
 0001:000abcd0       ?load@HeightField@Gu@physx@@QEAA_NAEAVPxInputStream@3@@Z 00000001800accd0 f   GuHeightField.obj
 0001:000ac030       ?loadFromDesc@HeightField@Gu@physx@@QEAA_NAEBVPxHeightFieldDesc@3@@Z 00000001800ad030 f   GuHeightField.obj
 0001:000ac230       ?modifySamples@HeightField@Gu@physx@@UEAA_NHHAEBVPxHeightFieldDesc@3@_N@Z 00000001800ad230 f   GuHeightField.obj
 0001:000ac5a0       ?onRefCountZero@HeightField@Gu@physx@@UEAAXXZ 00000001800ad5a0 f   GuHeightField.obj
 0001:000ac670       ?parseTrianglesForCollisionVertices@HeightField@Gu@physx@@QEAAXG@Z 00000001800ad670 f   GuHeightField.obj
 0001:000acb70       ?releaseMemory@HeightField@Gu@physx@@QEAAXXZ 00000001800adb70 f   GuHeightField.obj
 0001:000acbc0       ?resizeAndClear@?$PxBitMapBase@VPxAllocator@physx@@@physx@@QEAAXI@Z 00000001800adbc0 f i GuHeightField.obj
 0001:000acc70       ?save@HeightField@Gu@physx@@QEAA_NAEAVPxOutputStream@3@_N@Z 00000001800adc70 f   GuHeightField.obj
 0001:000aceb0       ?saveCells@HeightField@Gu@physx@@UEBAIPEAXI@Z 00000001800adeb0 f   GuHeightField.obj
 0001:000acef0       ?computeLocalBounds@HeightFieldUtil@Gu@physx@@QEBAXAEAVPxBounds3@3@@Z 00000001800adef0 f   GuHeightFieldUtil.obj
 0001:000ad3c0       ?getTriangle@HeightFieldUtil@Gu@physx@@QEBAIAEBV?$PxTransformT@M@3@AEAVPxTriangle@3@PEAI2I_N3@Z 00000001800ae3c0 f   GuHeightFieldUtil.obj
 0001:000adec0       ?getTriangleAdjacencyIndices@HeightField@Gu@physx@@QEBAXIIIIAEAI00@Z 00000001800aeec0 f i GuHeightFieldUtil.obj
 0001:000ae070       ?getTriangleVertexIndices@HeightField@Gu@physx@@QEBAXIAEAI00@Z 00000001800af070 f i GuHeightFieldUtil.obj
 0001:000ae130       ?overlapAABBTriangles@HeightFieldUtil@Gu@physx@@QEBAXAEBVPxBounds3@3@AEAVOverlapReport@23@I@Z 00000001800af130 f   GuHeightFieldUtil.obj
 0001:000ae590       ??$gjk@U?$RelativeConvex@VTriangleV@Gu@physx@@@Gu@physx@@U?$LocalConvex@VConvexHullV@Gu@physx@@@23@@Gu@physx@@YA?AW4GjkStatus@01@AEBU?$RelativeConvex@VTriangleV@Gu@physx@@@01@AEBU?$LocalConvex@VConvexHullV@Gu@physx@@@01@AEBT__m128@@2AEAT5@333@Z 00000001800af590 f i GuOverlapTestsHF.obj
 0001:000af4d0       ?GeomOverlapCallback_BoxHeightfield@@YA_NAEBVPxGeometry@physx@@AEBV?$PxTransformT@M@2@01PEAUTriggerCache@Gu@2@PEAUPxQueryThreadContext@2@@Z 00000001800b04d0 f   GuOverlapTestsHF.obj
 0001:000afa30       ?GeomOverlapCallback_CapsuleHeightfield@@YA_NAEBVPxGeometry@physx@@AEBV?$PxTransformT@M@2@01PEAUTriggerCache@Gu@2@PEAUPxQueryThreadContext@2@@Z 00000001800b0a30 f   GuOverlapTestsHF.obj
 0001:000b0030       ?GeomOverlapCallback_ConvexHeightfield@@YA_NAEBVPxGeometry@physx@@AEBV?$PxTransformT@M@2@01PEAUTriggerCache@Gu@2@PEAUPxQueryThreadContext@2@@Z 00000001800b1030 f   GuOverlapTestsHF.obj
 0001:000b0a70       ?GeomOverlapCallback_SphereHeightfield@@YA_NAEBVPxGeometry@physx@@AEBV?$PxTransformT@M@2@01PEAUTriggerCache@Gu@2@PEAUPxQueryThreadContext@2@@Z 00000001800b1a70 f   GuOverlapTestsHF.obj
 0001:000b1630       ??$gjkRaycast@U?$LocalConvex@VTriangleV@Gu@physx@@@Gu@physx@@U?$LocalConvex@VConvexHullV@Gu@physx@@@23@@Gu@physx@@YA_NAEBU?$LocalConvex@VTriangleV@Gu@physx@@@01@AEBU?$LocalConvex@VConvexHullV@Gu@physx@@@01@AEBT__m128@@222AEAT4@33M@Z 00000001800b2630 f i GuSweepsHF.obj
 0001:000b2430       ??$traceSegment@VBoxTraceSegmentReport@@$0A@$00@HeightFieldTraceUtil@Gu@physx@@QEBAXAEBV?$PxVec3T@M@2@0MPEAVBoxTraceSegmentReport@@AEBVPxBounds3@2@_NPEBV32@@Z 00000001800b3430 f i GuSweepsHF.obj
 0001:000b2430       ??$traceSegment@VCapsuleTraceSegmentReport@@$0A@$00@HeightFieldTraceUtil@Gu@physx@@QEBAXAEBV?$PxVec3T@M@2@0MPEAVCapsuleTraceSegmentReport@@AEBVPxBounds3@2@_NPEBV32@@Z 00000001800b3430 f i GuSweepsHF.obj
 0001:000b2430       ??$traceSegment@VConvexTraceSegmentReport@@$0A@$00@HeightFieldTraceUtil@Gu@physx@@QEBAXAEBV?$PxVec3T@M@2@0MPEAVConvexTraceSegmentReport@@AEBVPxBounds3@2@_NPEBV32@@Z 00000001800b3430 f i GuSweepsHF.obj
 0001:000b2c50       ??0ConvexTraceSegmentReport@@QEAA@AEBVHeightFieldUtil@Gu@physx@@AEBUConvexHullData@23@AEBVPxMeshScale@3@AEBV?$PxTransformT@M@3@3AEBV?$PxVec3T@M@3@MV?$PxFlags@W4Enum@PxHitFlag@physx@@G@3@M@Z 00000001800b3c50 f i GuSweepsHF.obj
 0001:000b35c0       ??_EBoxTraceSegmentReport@@UEAAPEAXI@Z 00000001800b45c0 f i GuSweepsHF.obj
 0001:000b35c0       ??_GBoxTraceSegmentReport@@UEAAPEAXI@Z 00000001800b45c0 f i GuSweepsHF.obj
 0001:000b35f0       ??_ECapsuleTraceSegmentReport@@UEAAPEAXI@Z 00000001800b45f0 f i GuSweepsHF.obj
 0001:000b35f0       ??_GCapsuleTraceSegmentReport@@UEAAPEAXI@Z 00000001800b45f0 f i GuSweepsHF.obj
 0001:000b3620       ??_EConvexTraceSegmentReport@@UEAAPEAXI@Z 00000001800b4620 f i GuSweepsHF.obj
 0001:000b3620       ??_GConvexTraceSegmentReport@@UEAAPEAXI@Z 00000001800b4620 f i GuSweepsHF.obj
 0001:000b3650       ??_EHeightFieldTraceSegmentReport@@UEAAPEAXI@Z 00000001800b4650 f i GuSweepsHF.obj
 0001:000b3650       ??_GHeightFieldTraceSegmentReport@@UEAAPEAXI@Z 00000001800b4650 f i GuSweepsHF.obj
 0001:000b3680       ?finalizeHit@ConvexTraceSegmentReport@@QEAA_NAEAUPxGeomSweepHit@physx@@AEBVPxHeightFieldGeometry@3@AEBV?$PxTransformT@M@3@AEBVPxConvexMeshGeometry@3@2AEBV?$PxVec3T@M@3@M@Z 00000001800b4680 f i GuSweepsHF.obj
 0001:000b38b0       ?onEvent@BoxTraceSegmentReport@@UEAA_NIPEBI@Z 00000001800b48b0 f i GuSweepsHF.obj
 0001:000b3d00       ?onEvent@CapsuleTraceSegmentReport@@UEAA_NIPEBI@Z 00000001800b4d00 f i GuSweepsHF.obj
 0001:000b3f30       ?onEvent@ConvexTraceSegmentReport@@UEAA_NIPEBI@Z 00000001800b4f30 f i GuSweepsHF.obj
 0001:000b44f0       ?prepare@?$OverlapTraceSegment@VBoxTraceSegmentReport@@@HeightFieldTraceUtil@Gu@physx@@QEAAXAEBV?$PxVec3T@M@4@00AEAM1@Z 00000001800b54f0 f i GuSweepsHF.obj
 0001:000b44f0       ?prepare@?$OverlapTraceSegment@VCapsuleTraceSegmentReport@@@HeightFieldTraceUtil@Gu@physx@@QEAAXAEBV?$PxVec3T@M@4@00AEAM1@Z 00000001800b54f0 f i GuSweepsHF.obj
 0001:000b44f0       ?prepare@?$OverlapTraceSegment@VConvexTraceSegmentReport@@@HeightFieldTraceUtil@Gu@physx@@QEAAXAEBV?$PxVec3T@M@4@00AEAM1@Z 00000001800b54f0 f i GuSweepsHF.obj
 0001:000b47b0       ?sweepBox_HeightFieldGeom@@YA_NAEBVPxGeometry@physx@@AEBV?$PxTransformT@M@2@AEBVPxBoxGeometry@2@1AEBVBox@Gu@2@AEBV?$PxVec3T@M@2@MAEAUPxGeomSweepHit@2@V?$PxFlags@W4Enum@PxHitFlag@physx@@G@2@MPEAUPxQueryThreadContext@2@@Z 00000001800b57b0 f   GuSweepsHF.obj
 0001:000b5600       ?sweepCapsule_HeightFieldGeom@@YA_NAEBVPxGeometry@physx@@AEBV?$PxTransformT@M@2@AEBVPxCapsuleGeometry@2@1AEBVCapsule@Gu@2@AEBV?$PxVec3T@M@2@MAEAUPxGeomSweepHit@2@V?$PxFlags@W4Enum@PxHitFlag@physx@@G@2@MPEAUPxQueryThreadContext@2@@Z 00000001800b6600 f   GuSweepsHF.obj
 0001:000b5f50       ?sweepConvex_HeightFieldGeom@@YA_NAEBVPxGeometry@physx@@AEBV?$PxTransformT@M@2@AEBVPxConvexMeshGeometry@2@1AEBV?$PxVec3T@M@2@MAEAUPxGeomSweepHit@2@V?$PxFlags@W4Enum@PxHitFlag@physx@@G@2@MPEAUPxQueryThreadContext@2@@Z 00000001800b6f50 f   GuSweepsHF.obj
 0001:000b6920       ?testVertexIndex@?$OverlapTraceSegment@VBoxTraceSegmentReport@@@HeightFieldTraceUtil@Gu@physx@@QEAA_NI@Z 00000001800b7920 f i GuSweepsHF.obj
 0001:000b6920       ?testVertexIndex@?$OverlapTraceSegment@VCapsuleTraceSegmentReport@@@HeightFieldTraceUtil@Gu@physx@@QEAA_NI@Z 00000001800b7920 f i GuSweepsHF.obj
 0001:000b6920       ?testVertexIndex@?$OverlapTraceSegment@VConvexTraceSegmentReport@@@HeightFieldTraceUtil@Gu@physx@@QEAA_NI@Z 00000001800b7920 f i GuSweepsHF.obj
 0001:000b6a80       ?transformFast@PxBounds3@physx@@SA?AV12@AEBV?$PxTransformT@M@2@AEBV12@@Z 00000001800b7a80 f i GuSweepsHF.obj
 0001:000b6e60       ?visitCells@?$OverlapTraceSegment@VBoxTraceSegmentReport@@@HeightFieldTraceUtil@Gu@physx@@QEAA_NAEBUOverlapRectangle@1234@@Z 00000001800b7e60 f i GuSweepsHF.obj
 0001:000b6e60       ?visitCells@?$OverlapTraceSegment@VCapsuleTraceSegmentReport@@@HeightFieldTraceUtil@Gu@physx@@QEAA_NAEBUOverlapRectangle@1234@@Z 00000001800b7e60 f i GuSweepsHF.obj
 0001:000b6e60       ?visitCells@?$OverlapTraceSegment@VConvexTraceSegmentReport@@@HeightFieldTraceUtil@Gu@physx@@QEAA_NAEBUOverlapRectangle@1234@@Z 00000001800b7e60 f i GuSweepsHF.obj
 0001:000b7050       ?intersectOBBOBB@Gu@physx@@YA_NAEBV?$PxVec3T@M@2@0AEBV?$PxMat33T@M@2@001_N@Z 00000001800b8050 f   GuIntersectionBoxBox.obj
 0001:000b76a0       ?intersectCapsuleTriangle@Gu@physx@@YA_NAEBV?$PxVec3T@M@2@000AEBVCapsule@12@AEBUCapsuleTriangleOverlapData@12@@Z 00000001800b86a0 f   GuIntersectionCapsuleTriangle.obj
 0001:000b8290       ?intersectEdgeEdge@Gu@physx@@YA_NAEBV?$PxVec3T@M@2@0000AEAMAEAV32@@Z 00000001800b9290 f   GuIntersectionEdgeEdge.obj
 0001:000b85b0       ?intersectRayAABB2@Gu@physx@@YA_NAEBT__m128@@0000AEAT3@1@Z 00000001800b95b0 f   GuIntersectionRayBox.obj
 0001:000b8670       ?intersectRayAABB2@Gu@physx@@YA_NAEBV?$PxVec3T@M@2@000MAEAM1@Z 00000001800b9670 f   GuIntersectionRayBox.obj
 0001:000b8820       ?intersectRayAABB@Gu@physx@@YAHAEBV?$PxVec3T@M@2@000AEAM1@Z 00000001800b9820 f   GuIntersectionRayBox.obj
 0001:000b8930       ?rayAABBIntersect2@Gu@physx@@YAIAEBV?$PxVec3T@M@2@000AEAV32@AEAM@Z 00000001800b9930 f   GuIntersectionRayBox.obj
 0001:000b8b30       ?intersectRayCapsuleInternal@Gu@physx@@YAIAEBV?$PxVec3T@M@2@000MQEAM@Z 00000001800b9b30 f   GuIntersectionRayCapsule.obj
 0001:000b8ff0       ?intersectRaySphere@Gu@physx@@YA_NAEBV?$PxVec3T@M@2@0M0MAEAMPEAV32@@Z 00000001800b9ff0 f   GuIntersectionRaySphere.obj
 0001:000b90e0       ?intersectRaySphereBasic@Gu@physx@@YA_NAEBV?$PxVec3T@M@2@0M0MAEAMPEAV32@@Z 00000001800ba0e0 f   GuIntersectionRaySphere.obj
 0001:000b9240       ?intersectSphereBox@Gu@physx@@YA_NAEBVSphere@12@AEBVBox@12@@Z 00000001800ba240 f   GuIntersectionSphereBox.obj
 0001:000b9470       ?intersectTetrahedronBox@Gu@physx@@YA_NAEBV?$PxVec3T@M@2@000AEBVPxBounds3@2@@Z 00000001800ba470 f   GuIntersectionTetrahedronBox.obj
 0001:000b9840       ?intersectTriangleBox@Gu@physx@@YAHAEBVBoxPadded@12@AEBV?$PxVec3T@M@2@11@Z 00000001800ba840 f   GuIntersectionTriangleBox.obj
 0001:000b9e10       ?intersectTriangleBoxBV4@@YAHAEBV?$PxVec3T@M@physx@@00AEBV?$PxMat33T@M@2@00@Z 00000001800bae10 f   GuIntersectionTriangleBox.obj
 0001:000ba250       ?intersectTriangleBox_ReferenceCode@Gu@physx@@YAHAEBV?$PxVec3T@M@2@0000@Z 00000001800bb250 f   GuIntersectionTriangleBox.obj
 0001:000baa20       ?intersectTriangleBox_Unsafe@Gu@physx@@YAHAEBV?$PxVec3T@M@2@0000@Z 00000001800bba20 f   GuIntersectionTriangleBox.obj
 0001:000bb0d0       ?trianglesIntersect@Gu@physx@@YA_NAEBV?$PxVec3T@M@2@00000PEAVSegment@12@@Z 00000001800bc0d0 f   GuIntersectionTriangleTriangle.obj
 0001:000bb6c0       ??0BV4Tree@Gu@physx@@QEAA@W4PxEMPTY@2@@Z 00000001800bc6c0 f   GuBV4.obj
 0001:000bb6d0       ??0BV4Tree@Gu@physx@@QEAA@XZ 00000001800bc6d0 f   GuBV4.obj
 0001:000bb700       ??0SourceMesh@Gu@physx@@QEAA@XZ 00000001800bc700 f   GuBV4.obj
 0001:000bb730       ??0TetrahedronSourceMesh@Gu@physx@@QEAA@XZ 00000001800bc730 f   GuBV4.obj
 0001:000bb760       ??1BV4Tree@Gu@physx@@QEAA@XZ 00000001800bc760 f   GuBV4.obj
 0001:000bb7c0       ??1SourceMesh@Gu@physx@@UEAA@XZ 00000001800bc7c0 f   GuBV4.obj
 0001:000bb7c0       ??1TetrahedronSourceMesh@Gu@physx@@UEAA@XZ 00000001800bc7c0 f   GuBV4.obj
 0001:000bb810       ??4BV4Tree@Gu@physx@@QEAAXAEAV012@@Z 00000001800bc810 f   GuBV4.obj
 0001:000bb8a0       ??4SourceMesh@Gu@physx@@QEAAXAEAV012@@Z 00000001800bc8a0 f   GuBV4.obj
 0001:000bb8f0       ??_ESourceMesh@Gu@physx@@UEAAPEAXI@Z 00000001800bc8f0 f i GuBV4.obj
 0001:000bb8f0       ??_ETetrahedronSourceMesh@Gu@physx@@UEAAPEAXI@Z 00000001800bc8f0 f i GuBV4.obj
 0001:000bb8f0       ??_GSourceMesh@Gu@physx@@UEAAPEAXI@Z 00000001800bc8f0 f i GuBV4.obj
 0001:000bb8f0       ??_GTetrahedronSourceMesh@Gu@physx@@UEAAPEAXI@Z 00000001800bc8f0 f i GuBV4.obj
 0001:000bb990       ??_ESourceMeshBase@Gu@physx@@UEAAPEAXI@Z 00000001800bc990 f i GuBV4.obj
 0001:000bb990       ??_GSourceMeshBase@Gu@physx@@UEAAPEAXI@Z 00000001800bc990 f i GuBV4.obj
 0001:000bba30       ?exportExtraData@BV4Tree@Gu@physx@@QEAAXAEAVPxSerializationContext@3@@Z 00000001800bca30 f   GuBV4.obj
 0001:000bba90       ?getPrimitiveBox@SourceMesh@Gu@physx@@UEAAXIAEAT__m128@@0@Z 00000001800bca90 f   GuBV4.obj
 0001:000bbb30       ?getPrimitiveBox@TetrahedronSourceMesh@Gu@physx@@UEAAXIAEAT__m128@@0@Z 00000001800bcb30 f   GuBV4.obj
 0001:000bbbf0       ?importExtraData@BV4Tree@Gu@physx@@QEAAXAEAVPxDeserializationContext@3@@Z 00000001800bcbf0 f   GuBV4.obj
 0001:000bbc40       ?init@BV32Tree@Gu@physx@@QEAA_NPEAVSourceMeshBase@23@AEBVPxBounds3@3@@Z 00000001800bcc40 f   GuBV32.obj
 0001:000bbc40       ?init@BV4Tree@Gu@physx@@QEAA_NPEAVSourceMeshBase@23@AEBVPxBounds3@3@@Z 00000001800bcc40 f   GuBV4.obj
 0001:000bbce0       ?load@BV4Tree@Gu@physx@@QEAA_NAEAVPxInputStream@3@_N@Z 00000001800bcce0 f   GuBV4.obj
 0001:000bbf20       ?refit@BV4Tree@Gu@physx@@QEAA_NAEAVPxBounds3@3@M@Z 00000001800bcf20 f   GuBV4.obj
 0001:000bc590       ?refit@SourceMesh@Gu@physx@@UEAAXIAEAVPxBounds3@3@@Z 00000001800bd590 f   GuBV4.obj
 0001:000bc730       ?refit@TetrahedronSourceMesh@Gu@physx@@UEAAXIAEAVPxBounds3@3@@Z 00000001800bd730 f   GuBV4.obj
 0001:000bc950       ?remapTopology@SourceMesh@Gu@physx@@UEAAXPEBI@Z 00000001800bd950 f   GuBV4.obj
 0001:000bcbe0       ?remapTopology@TetrahedronSourceMesh@Gu@physx@@UEAAXPEBI@Z 00000001800bdbe0 f   GuBV4.obj
 0001:000bce80       ??0BV4_AABBTree@Gu@physx@@QEAA@XZ 00000001800bde80 f   GuBV4Build.obj
 0001:000bce90       ??0BVData@@QEAA@XZ         00000001800bde90 f   GuBV4Build.obj
 0001:000bcec0       ??0BuildStats@Gu@physx@@QEAA@XZ 00000001800bdec0 f i GuBV4Build.obj
 0001:000bced0       ??1BV4_AABBTree@Gu@physx@@QEAA@XZ 00000001800bded0 f   GuBV4Build.obj
 0001:000bcee0       ??4BuildStats@Gu@physx@@QEAAAEAU012@$$QEAU012@@Z 00000001800bdee0 f i GuBV4Build.obj
 0001:000bcef0       ??4BuildStats@Gu@physx@@QEAAAEAU012@AEBU012@@Z 00000001800bdef0 f i GuBV4Build.obj
 0001:000bcf00       ?BuildBV4Ex@Gu@physx@@YA_NAEAVBV4Tree@12@AEAVSourceMeshBase@12@MI_NW4BV4_BuildStrategy@12@@Z 00000001800bdf00 f   GuBV4Build.obj
 0001:000bde60       ?allocateNode@BV4BuildParams@@QEAAPEAUBV4Node@@XZ 00000001800bee60 f   GuBV4Build.obj
 0001:000be2e0       ?buildFromMesh@BV4_AABBTree@Gu@physx@@QEAA_NAEAVSourceMeshBase@23@IW4BV4_BuildStrategy@23@@Z 00000001800bf2e0 f   GuBV4Build.obj
 0001:000bf490       ?increaseCount@BuildStats@Gu@physx@@QEAAXI@Z 00000001800c0490 f i GuBV4Build.obj
 0001:000bfef0       ?release@BV4_AABBTree@Gu@physx@@QEAAXXZ 00000001800c0ef0 f   GuBV4Build.obj
 0001:000bff90       ?releaseNodes@BV4BuildParams@@QEAAXXZ 00000001800c0f90 f   GuBV4Build.obj
 0001:000c0000       ?reset@BuildStats@Gu@physx@@QEAAXXZ 00000001800c1000 f i GuBV4Build.obj
 0001:000c0010       ?setCount@BuildStats@Gu@physx@@QEAAXI@Z 00000001800c1010 f i GuBV4Build.obj
 0001:000c0680       ?walk@BV4_AABBTree@Gu@physx@@QEBAIP6A_NPEBVAABBTreeNode@23@IPEAX@Z1@Z 00000001800c1680 f   GuBV4Build.obj
 0001:000c0740       ?walkDistance@BV4_AABBTree@Gu@physx@@QEBAIP6A_NPEBVAABBTreeNode@23@IPEAX@ZP6A_N01@Z1@Z 00000001800c1740 f   GuBV4Build.obj
 0001:000c4760       ?GenericSweep_AABB_CB@@YAXAEBVBox@Gu@physx@@AEBV?$PxVec3T@M@3@MAEBVBV4Tree@23@P6A_NPEAX111IAEAM@Z3I@Z 00000001800c5760 f   GuBV4_AABBSweep.obj
 0001:000c48c0       ?Sweep_AABB_BV4@@YAHAEBVBox@Gu@physx@@AEBV?$PxVec3T@M@3@MAEBVBV4Tree@23@PEIAVSweepHit@23@I@Z 00000001800c58c0 f   GuBV4_AABBSweep.obj
 0001:000cd600       ?BV4_OverlapBoxAll@@YAIAEBVBox@Gu@physx@@AEBVBV4Tree@23@PEIBV?$PxMat44T@M@3@PEAIIAEA_N@Z 00000001800ce600 f   GuBV4_BoxOverlap.obj
 0001:000cde10       ?BV4_OverlapBoxAny@@YAHAEBVBox@Gu@physx@@AEBVBV4Tree@23@PEIBV?$PxMat44T@M@3@@Z 00000001800cee10 f   GuBV4_BoxOverlap.obj
 0001:000ce610       ?BV4_OverlapBoxCB@@YAXAEBVBox@Gu@physx@@AEBVBV4Tree@23@P6A_NPEAXAEBV?$PxVec3T@M@3@333IPEBI@Z2@Z 00000001800cf610 f   GuBV4_BoxOverlap.obj
 0001:000cecd0       ?BV4_OverlapBoxCB@@YAXAEBVBox@Gu@physx@@AEBVBV4Tree@23@P6A_NPEAXAEBV?$PxVec3T@M@3@33IPEBI@Z2@Z 00000001800cfcd0 f   GuBV4_BoxOverlap.obj
 0001:000cf180       ?BV4_OverlapCapsuleAll@@YAIAEBVCapsule@Gu@physx@@AEBVBV4Tree@23@PEIBV?$PxMat44T@M@3@PEAIIAEA_N@Z 00000001800d0180 f   GuBV4_BoxOverlap.obj
 0001:000cf8a0       ?BV4_OverlapCapsuleAny@@YAHAEBVCapsule@Gu@physx@@AEBVBV4Tree@23@PEIBV?$PxMat44T@M@3@@Z 00000001800d08a0 f   GuBV4_BoxOverlap.obj
 0001:000d2750       ?BV4_CapsuleSweepSingle@@YAHAEBVCapsule@Gu@physx@@AEBV?$PxVec3T@M@3@MAEBVBV4Tree@23@PEIAVSweepHit@23@I@Z 00000001800d3750 f   GuBV4_CapsuleSweep.obj
 0001:000d6820       ?BV4_CapsuleSweepSingleAA@@YAHAEBVCapsule@Gu@physx@@AEBV?$PxVec3T@M@3@MAEBVBV4Tree@23@PEIAVSweepHit@23@I@Z 00000001800d7820 f   GuBV4_CapsuleSweepAA.obj
 0001:000e66a0       ?BV4_OverlapMeshVsMesh@@YA_NAEAV?$PxReportCallback@UPxGeomIndexPair@physx@@@physx@@AEBVBV4Tree@Gu@2@1PEBV?$PxMat44T@M@2@2AEBV?$PxTransformT@M@2@3AEBVPxMeshScale@2@4V?$PxFlags@W4Enum@PxMeshMeshQueryFlag@physx@@I@2@@Z 00000001800e76a0 f   GuBV4_MeshMeshOverlap.obj
 0001:000e68c0       ?BV4_OverlapMeshVsMesh@@YA_NAEAV?$PxReportCallback@UPxGeomIndexPair@physx@@@physx@@AEBVBV4Tree@Gu@2@1PEBV?$PxMat44T@M@2@2V?$PxFlags@W4Enum@PxMeshMeshQueryFlag@physx@@I@2@@Z 00000001800e78c0 f   GuBV4_MeshMeshOverlap.obj
 0001:000ede20       ??D?$PxMat33T@M@physx@@QEBA?BV?$PxVec3T@M@1@AEBV21@@Z 00000001800eee20 f i GuBV4_OBBSweep.obj
 0001:000edeb0       ?BV4_BoxSweepSingle@@YAHAEBVBox@Gu@physx@@AEBV?$PxVec3T@M@3@MAEBVBV4Tree@23@PEIBV?$PxMat44T@M@3@PEIAVSweepHit@23@I@Z 00000001800eeeb0 f   GuBV4_OBBSweep.obj
 0001:000ee5e0       ?BV4_GenericSweepCB@@YAXAEBVBox@Gu@physx@@AEBV?$PxVec3T@M@3@MAEBVBV4Tree@23@P6A_NPEAX111IAEAM@Z3_N@Z 00000001800ef5e0 f   GuBV4_OBBSweep.obj
 0001:000ee810       ?Sweep_OBB_BV4@@YAHAEBVBox@Gu@physx@@AEBV?$PxVec3T@M@3@MAEBVBV4Tree@23@PEIAVSweepHit@23@I@Z 00000001800ef810 f   GuBV4_OBBSweep.obj
 0001:000f1350       ?BV4_RaycastCB@@YAXAEBV?$PxVec3T@M@physx@@0AEBVBV4Tree@Gu@2@PEIBV?$PxMat44T@M@2@MMIP6A?AW4HitCode@42@PEAX000IMMM@Z3@Z 00000001800f2350 f   GuBV4_Raycast.obj
 0001:000f1790       ?BV4_RaycastSingle@@YAHAEBV?$PxVec3T@M@physx@@0AEBVBV4Tree@Gu@2@PEIBV?$PxMat44T@M@2@PEIAUPxGeomRaycastHit@2@MMIV?$PxFlags@W4Enum@PxHitFlag@physx@@G@2@@Z 00000001800f2790 f   GuBV4_Raycast.obj
 0001:000f3cc0       ?BV4_OverlapSphereAll@@YAIAEBVSphere@Gu@physx@@AEBVBV4Tree@23@PEIBV?$PxMat44T@M@3@PEAIIAEA_N@Z 00000001800f4cc0 f   GuBV4_SphereOverlap.obj
 0001:000f3fe0       ?BV4_OverlapSphereAny@@YAHAEBVSphere@Gu@physx@@AEBVBV4Tree@23@PEIBV?$PxMat44T@M@3@@Z 00000001800f4fe0 f   GuBV4_SphereOverlap.obj
 0001:000f42c0       ?BV4_PointDistance@@YAXAEBV?$PxVec3T@M@physx@@AEBVBV4Tree@Gu@2@MAEAIAEAMAEAV12@@Z 00000001800f52c0 f   GuBV4_SphereOverlap.obj
 0001:000fac90       ?BV4_GenericSweepCB_Old@@YAXAEBV?$PxVec3T@M@physx@@00MAEBVBV4Tree@Gu@2@PEIBV?$PxMat44T@M@2@P6A_NPEAX000IAEAM@Z3@Z 00000001800fbc90 f   GuBV4_SphereSweep.obj
 0001:000fb0a0       ?BV4_SphereSweepSingle@@YAHAEBVSphere@Gu@physx@@AEBV?$PxVec3T@M@3@MAEBVBV4Tree@23@PEIBV?$PxMat44T@M@3@PEIAVSweepHit@23@I@Z 00000001800fc0a0 f   GuBV4_SphereSweep.obj
 0001:000fc3b0       ?computeSweepData@physx@@YAMAEBVPxTriangleMeshGeometry@1@AEAV?$PxVec3T@M@1@11M@Z 00000001800fd3b0 f i GuMidphaseBV4.obj
 0001:000fd7f0       ?intersectBoxVsMesh_BV4@Gu@physx@@YA_NAEBVBox@12@AEBVTriangleMesh@12@AEBV?$PxTransformT@M@2@AEBVPxMeshScale@2@PEAULimitedResults@12@@Z 00000001800fe7f0 f   GuMidphaseBV4.obj
 0001:000fe2d0       ?intersectCapsuleVsMesh_BV4@Gu@physx@@YA_NAEBVCapsule@12@AEBVTriangleMesh@12@AEBV?$PxTransformT@M@2@AEBVPxMeshScale@2@PEAULimitedResults@12@@Z 00000001800ff2d0 f   GuMidphaseBV4.obj
 0001:000feae0       ?intersectMeshVsMesh_BV4@Gu@physx@@YA_NAEAV?$PxReportCallback@UPxGeomIndexPair@physx@@@2@AEBVTriangleMesh@12@1AEBV?$PxTransformT@M@2@2AEBVPxMeshScale@2@3V?$PxFlags@W4Enum@PxMeshMeshQueryFlag@physx@@I@2@@Z 00000001800ffae0 f   GuMidphaseBV4.obj
 0001:000ff3e0       ?intersectOBB_BV4@Gu@physx@@YAXPEBVTetrahedronMesh@12@AEBVBox@12@AEAU?$TetMeshHitCallback@UPxGeomRaycastHit@physx@@@12@@Z 00000001801003e0 f   GuMidphaseBV4.obj
 0001:000ff400       ?intersectOBB_BV4@Gu@physx@@YAXPEBVTriangleMesh@12@AEBVBox@12@AEAU?$MeshHitCallback@UPxGeomRaycastHit@physx@@@12@_N3@Z 0000000180100400 f   GuMidphaseBV4.obj
 0001:000ff420       ?intersectSphereVsMesh_BV4@Gu@physx@@YA_NAEBVSphere@12@AEBVTriangleMesh@12@AEBV?$PxTransformT@M@2@AEBVPxMeshScale@2@PEAULimitedResults@12@@Z 0000000180100420 f   GuMidphaseBV4.obj
 0001:000ffb20       ?pointMeshDistance_BV4@Gu@physx@@YAXPEBVTriangleMesh@12@AEBVPxTriangleMeshGeometry@2@AEBV?$PxTransformT@M@2@AEBV?$PxVec3T@M@2@MAEAIAEAMAEAV62@@Z 0000000180100b20 f   GuMidphaseBV4.obj
 0001:001001d0       ?raycast_triangleMesh_BV4@Gu@physx@@YAIPEBVTriangleMesh@12@AEBVPxTriangleMeshGeometry@2@AEBV?$PxTransformT@M@2@AEBV?$PxVec3T@M@2@3MV?$PxFlags@W4Enum@PxHitFlag@physx@@G@2@IPEIAUPxGeomRaycastHit@2@I@Z 00000001801011d0 f   GuMidphaseBV4.obj
 0001:00100fe0       ?sweepBox_MeshGeom_BV4@Gu@physx@@YA_NPEBVTriangleMesh@12@AEBVPxTriangleMeshGeometry@2@AEBV?$PxTransformT@M@2@AEBVBox@12@AEBV?$PxVec3T@M@2@MAEAUPxGeomSweepHit@2@V?$PxFlags@W4Enum@PxHitFlag@physx@@G@2@M@Z 0000000180101fe0 f   GuMidphaseBV4.obj
 0001:001026e0       ?sweepCapsule_MeshGeom_BV4@Gu@physx@@YA_NPEBVTriangleMesh@12@AEBVPxTriangleMeshGeometry@2@AEBV?$PxTransformT@M@2@AEBVCapsule@12@AEBV?$PxVec3T@M@2@MAEAUPxGeomSweepHit@2@V?$PxFlags@W4Enum@PxHitFlag@physx@@G@2@M@Z 00000001801036e0 f   GuMidphaseBV4.obj
 0001:00103200       ?sweepConvex_MeshGeom_BV4@Gu@physx@@YAXPEBVTriangleMesh@12@AEBVBox@12@AEBV?$PxVec3T@M@2@MAEAUSweepConvexMeshHitCallback@12@_N@Z 0000000180104200 f   GuMidphaseBV4.obj
 0001:00103240       ?transform@PxMeshScale@physx@@QEBA?AV?$PxVec3T@M@2@AEBV32@@Z 0000000180104240 f i GuMidphaseBV4.obj
 0001:00103480       ?findOverlapHeightField@PxMeshQuery@physx@@SAIAEBVPxGeometry@2@AEBV?$PxTransformT@M@2@AEBVPxHeightFieldGeometry@2@1PEAIIIAEA_NV?$PxFlags@W4Enum@PxGeometryQueryFlag@physx@@I@2@@Z 0000000180104480 f   GuMeshQuery.obj
 0001:00103bf0       ?findOverlapTriangleMesh@PxMeshQuery@physx@@SAIAEBVPxGeometry@2@AEBV?$PxTransformT@M@2@AEBVPxTriangleMeshGeometry@2@1PEAIIIAEA_NV?$PxFlags@W4Enum@PxGeometryQueryFlag@physx@@I@2@@Z 0000000180104bf0 f   GuMeshQuery.obj
 0001:00103f10       ?findOverlapTriangleMesh@PxMeshQuery@physx@@SA_NAEAV?$PxReportCallback@UPxGeomIndexPair@physx@@@2@AEBVPxTriangleMeshGeometry@2@AEBV?$PxTransformT@M@2@12V?$PxFlags@W4Enum@PxGeometryQueryFlag@physx@@I@2@V?$PxFlags@W4Enum@PxMeshMeshQueryFlag@physx@@I@2@@Z 0000000180104f10 f   GuMeshQuery.obj
 0001:00104020       ?getTriangle@PxMeshQuery@physx@@SAXAEBVPxHeightFieldGeometry@2@AEBV?$PxTransformT@M@2@IAEAVPxTriangle@2@PEAI3@Z 0000000180105020 f   GuMeshQuery.obj
 0001:001040a0       ?getTriangle@PxMeshQuery@physx@@SAXAEBVPxTriangleMeshGeometry@2@AEBV?$PxTransformT@M@2@IAEAVPxTriangle@2@PEAI3@Z 00000001801050a0 f   GuMeshQuery.obj
 0001:001045a0       ?sweep@PxMeshQuery@physx@@SA_NAEBV?$PxVec3T@M@2@MAEBVPxGeometry@2@AEBV?$PxTransformT@M@2@IPEBVPxTriangle@2@AEAUPxGeomSweepHit@2@V?$PxFlags@W4Enum@PxHitFlag@physx@@G@2@PEBIM_NV?$PxFlags@W4Enum@PxGeometryQueryFlag@physx@@I@2@@Z 00000001801055a0 f   GuMeshQuery.obj
 0001:00104820       ??$collide@$00$00@MeshRayCollider@@SAXAEBV?$PxVec3T@M@physx@@0M_NPEBVRTreeTriangleMesh@Gu@2@AEAU?$MeshHitCallback@UPxGeomRaycastHit@physx@@@42@PEBV12@@Z 0000000180105820 f i GuMidphaseRTree.obj
 0001:00104b90       ??$collide@$00$0A@@MeshRayCollider@@SAXAEBV?$PxVec3T@M@physx@@0M_NPEBVRTreeTriangleMesh@Gu@2@AEAU?$MeshHitCallback@UPxGeomRaycastHit@physx@@@42@PEBV12@@Z 0000000180105b90 f i GuMidphaseRTree.obj
 0001:00104dd0       ??$collide@$0A@$00@MeshRayCollider@@SAXAEBV?$PxVec3T@M@physx@@0M_NPEBVRTreeTriangleMesh@Gu@2@AEAU?$MeshHitCallback@UPxGeomRaycastHit@physx@@@42@PEBV12@@Z 0000000180105dd0 f i GuMidphaseRTree.obj
 0001:00107110       ??0?$RayRTreeCallback@$00$0A@@@QEAA@MAEAU?$MeshHitCallback@UPxGeomRaycastHit@physx@@@Gu@physx@@HPEBXPEBV?$PxVec3T@M@3@AEBV43@3M_N2@Z 0000000180108110 f i GuMidphaseRTree.obj
 0001:00107230       ??1?$RayRTreeCallback@$00$00@@UEAA@XZ 0000000180108230 f i GuMidphaseRTree.obj
 0001:001072c0       ??1?$RayRTreeCallback@$00$0A@@@UEAA@XZ 00000001801082c0 f i GuMidphaseRTree.obj
 0001:001072c0       ??1?$RayRTreeCallback@$0A@$0A@@@UEAA@XZ 00000001801082c0 f i GuMidphaseRTree.obj
 0001:00107350       ??1?$RayRTreeCallback@$0A@$00@@UEAA@XZ 0000000180108350 f i GuMidphaseRTree.obj
 0001:001073d8       ??_E?$RayRTreeCallback@$00$00@@W7EAAPEAXI@Z 00000001801083d8 f i GuMidphaseRTree.obj
 0001:001073e4       ??_E?$RayRTreeCallback@$00$0A@@@W7EAAPEAXI@Z 00000001801083e4 f i GuMidphaseRTree.obj
 0001:001073e4       ??_E?$RayRTreeCallback@$0A@$0A@@@W7EAAPEAXI@Z 00000001801083e4 f i GuMidphaseRTree.obj
 0001:001073f0       ??_E?$RayRTreeCallback@$0A@$00@@W7EAAPEAXI@Z 00000001801083f0 f i GuMidphaseRTree.obj
 0001:00107460       ??_E?$RayRTreeCallback@$00$00@@UEAAPEAXI@Z 0000000180108460 f i GuMidphaseRTree.obj
 0001:00107460       ??_G?$RayRTreeCallback@$00$00@@UEAAPEAXI@Z 0000000180108460 f i GuMidphaseRTree.obj
 0001:001074a0       ??_E?$RayRTreeCallback@$00$0A@@@UEAAPEAXI@Z 00000001801084a0 f i GuMidphaseRTree.obj
 0001:001074a0       ??_E?$RayRTreeCallback@$0A@$0A@@@UEAAPEAXI@Z 00000001801084a0 f i GuMidphaseRTree.obj
 0001:001074a0       ??_G?$RayRTreeCallback@$00$0A@@@UEAAPEAXI@Z 00000001801084a0 f i GuMidphaseRTree.obj
 0001:001074a0       ??_G?$RayRTreeCallback@$0A@$0A@@@UEAAPEAXI@Z 00000001801084a0 f i GuMidphaseRTree.obj
 0001:001074e0       ??_E?$RayRTreeCallback@$0A@$00@@UEAAPEAXI@Z 00000001801084e0 f i GuMidphaseRTree.obj
 0001:001074e0       ??_G?$RayRTreeCallback@$0A@$00@@UEAAPEAXI@Z 00000001801084e0 f i GuMidphaseRTree.obj
 0001:00107520       ??_ECallback@RTree@Gu@physx@@UEAAPEAXI@Z 0000000180108520 f i GuMidphaseRTree.obj
 0001:00107520       ??_GCallback@RTree@Gu@physx@@UEAAPEAXI@Z 0000000180108520 f i GuMidphaseRTree.obj
 0001:00107550       ??_ERayMeshColliderCallback@@UEAAPEAXI@Z 0000000180108550 f i GuMidphaseRTree.obj
 0001:00107550       ??_ESweepCapsuleMeshHitCallback@Gu@physx@@UEAAPEAXI@Z 0000000180108550 f i GuSweepsMesh.obj
 0001:00107550       ??_GRayMeshColliderCallback@@UEAAPEAXI@Z 0000000180108550 f i GuMidphaseRTree.obj
 0001:00107550       ??_GSweepCapsuleMeshHitCallback@Gu@physx@@UEAAPEAXI@Z 0000000180108550 f i GuSweepsMesh.obj
 0001:00107580       ?collideOBB@MeshRayCollider@@SAXAEBVBox@Gu@physx@@_NPEBVRTreeTriangleMesh@34@AEAU?$MeshHitCallback@UPxGeomRaycastHit@physx@@@34@1@Z 0000000180108580 f   GuMidphaseRTree.obj
 0001:00107a50       ?intersectBoxVsMesh_RTREE@Gu@physx@@YA_NAEBVBox@12@AEBVTriangleMesh@12@AEBV?$PxTransformT@M@2@AEBVPxMeshScale@2@PEAULimitedResults@12@@Z 0000000180108a50 f   GuMidphaseRTree.obj
 0001:00107ac0       ?intersectCapsuleVsMesh_RTREE@Gu@physx@@YA_NAEBVCapsule@12@AEBVTriangleMesh@12@AEBV?$PxTransformT@M@2@AEBVPxMeshScale@2@PEAULimitedResults@12@@Z 0000000180108ac0 f   GuMidphaseRTree.obj
 0001:00107b40       ?intersectOBB_RTREE@Gu@physx@@YAXPEBVTriangleMesh@12@AEBVBox@12@AEAU?$MeshHitCallback@UPxGeomRaycastHit@physx@@@12@_N3@Z 0000000180108b40 f   GuMidphaseRTree.obj
 0001:00107b70       ?intersectSphereVsMesh_RTREE@Gu@physx@@YA_NAEBVSphere@12@AEBVTriangleMesh@12@AEBV?$PxTransformT@M@2@AEBVPxMeshScale@2@PEAULimitedResults@12@@Z 0000000180108b70 f   GuMidphaseRTree.obj
 0001:00107ba0       ?pointMeshDistance_RTREE@Gu@physx@@YAXPEBVTriangleMesh@12@AEBVPxTriangleMeshGeometry@2@AEBV?$PxTransformT@M@2@AEBV?$PxVec3T@M@2@MAEAIAEAMAEAV62@@Z 0000000180108ba0 f   GuMidphaseRTree.obj
 0001:00108990       ?processHit@RayMeshColliderCallback@@UEAA_NAEBUPxGeomRaycastHit@physx@@AEBV?$PxVec3T@M@3@11AEAMPEBI@Z 0000000180109990 f i GuMidphaseRTree.obj
 0001:00109130       ?processResults@?$RayRTreeCallback@$00$00@@UEAA_NIPEAI@Z 000000018010a130 f i GuMidphaseRTree.obj
 0001:001094a0       ?processResults@?$RayRTreeCallback@$00$00@@UEAA_NIPEAIAEAM@Z 000000018010a4a0 f i GuMidphaseRTree.obj
 0001:00109820       ?processResults@?$RayRTreeCallback@$00$0A@@@UEAA_NIPEAI@Z 000000018010a820 f i GuMidphaseRTree.obj
 0001:00109820       ?processResults@?$RayRTreeCallback@$0A@$0A@@@UEAA_NIPEAI@Z 000000018010a820 f i GuMidphaseRTree.obj
 0001:00109a80       ?processResults@?$RayRTreeCallback@$00$0A@@@UEAA_NIPEAIAEAM@Z 000000018010aa80 f i GuMidphaseRTree.obj
 0001:00109a80       ?processResults@?$RayRTreeCallback@$0A@$0A@@@UEAA_NIPEAIAEAM@Z 000000018010aa80 f i GuMidphaseRTree.obj
 0001:00109d10       ?processResults@?$RayRTreeCallback@$0A@$00@@UEAA_NIPEAI@Z 000000018010ad10 f i GuMidphaseRTree.obj
 0001:0010a350       ?processResults@?$RayRTreeCallback@$0A@$00@@UEAA_NIPEAIAEAM@Z 000000018010b350 f i GuMidphaseRTree.obj
 0001:0010a9a0       ?raycast_triangleMesh_RTREE@Gu@physx@@YAIPEBVTriangleMesh@12@AEBVPxTriangleMeshGeometry@2@AEBV?$PxTransformT@M@2@AEBV?$PxVec3T@M@2@3MV?$PxFlags@W4Enum@PxHitFlag@physx@@G@2@IPEIAUPxGeomRaycastHit@2@I@Z 000000018010b9a0 f   GuMidphaseRTree.obj
 0001:0010b120       ?sweepBox_MeshGeom_RTREE@Gu@physx@@YA_NPEBVTriangleMesh@12@AEBVPxTriangleMeshGeometry@2@AEBV?$PxTransformT@M@2@AEBVBox@12@AEBV?$PxVec3T@M@2@MAEAUPxGeomSweepHit@2@V?$PxFlags@W4Enum@PxHitFlag@physx@@G@2@M@Z 000000018010c120 f   GuMidphaseRTree.obj
 0001:0010c640       ?sweepCapsule_MeshGeom_RTREE@Gu@physx@@YA_NPEBVTriangleMesh@12@AEBVPxTriangleMeshGeometry@2@AEBV?$PxTransformT@M@2@AEBVCapsule@12@AEBV?$PxVec3T@M@2@MAEAUPxGeomSweepHit@2@V?$PxFlags@W4Enum@PxHitFlag@physx@@G@2@M@Z 000000018010d640 f   GuMidphaseRTree.obj
 0001:0010cdf0       ?sweepConvex_MeshGeom_RTREE@Gu@physx@@YAXPEBVTriangleMesh@12@AEBVBox@12@AEBV?$PxVec3T@M@2@MAEAUSweepConvexMeshHitCallback@12@_N@Z 000000018010ddf0 f   GuMidphaseRTree.obj
 0001:0010d7a0       ??_E?$PxReportCallback@UPxGeomIndexPair@physx@@@physx@@UEAAPEAXI@Z 000000018010e7a0 f i GuOverlapTestsMesh.obj
 0001:0010d7a0       ??_G?$PxReportCallback@UPxGeomIndexPair@physx@@@physx@@UEAAPEAXI@Z 000000018010e7a0 f i GuOverlapTestsMesh.obj
 0001:0010d830       ?GeomOverlapCallback_BoxMesh@@YA_NAEBVPxGeometry@physx@@AEBV?$PxTransformT@M@2@01PEAUTriggerCache@Gu@2@PEAUPxQueryThreadContext@2@@Z 000000018010e830 f   GuOverlapTestsMesh.obj
 0001:0010d940       ?GeomOverlapCallback_CapsuleMesh@@YA_NAEBVPxGeometry@physx@@AEBV?$PxTransformT@M@2@01PEAUTriggerCache@Gu@2@PEAUPxQueryThreadContext@2@@Z 000000018010e940 f   GuOverlapTestsMesh.obj
 0001:0010da50       ?GeomOverlapCallback_ConvexMesh@@YA_NAEBVPxGeometry@physx@@AEBV?$PxTransformT@M@2@01PEAUTriggerCache@Gu@2@PEAUPxQueryThreadContext@2@@Z 000000018010ea50 f   GuOverlapTestsMesh.obj
 0001:0010df50       ?GeomOverlapCallback_MeshMesh@@YA_NAEBVPxGeometry@physx@@AEBV?$PxTransformT@M@2@01PEAUTriggerCache@Gu@2@PEAUPxQueryThreadContext@2@@Z 000000018010ef50 f   GuOverlapTestsMesh.obj
 0001:0010e010       ?GeomOverlapCallback_SphereMesh@@YA_NAEBVPxGeometry@physx@@AEBV?$PxTransformT@M@2@01PEAUTriggerCache@Gu@2@PEAUPxQueryThreadContext@2@@Z 000000018010f010 f   GuOverlapTestsMesh.obj
 0001:0010e400       ??0RTree@Gu@physx@@QEAA@W4PxEMPTY@2@@Z 000000018010f400 f   GuRTree.obj
 0001:0010e410       ?exportExtraData@RTree@Gu@physx@@QEAAXAEAVPxSerializationContext@3@@Z 000000018010f410 f   GuRTree.obj
 0001:0010e450       ?importExtraData@RTree@Gu@physx@@QEAAXAEAVPxDeserializationContext@3@@Z 000000018010f450 f   GuRTree.obj
 0001:0010e480       ?load@RTree@Gu@physx@@QEAA_NAEAVPxInputStream@3@I_N@Z 000000018010f480 f   GuRTree.obj
 0001:0010e780       ?refitAllStaticTree@RTree@Gu@physx@@QEAAXAEAUCallbackRefit@123@PEAVPxBounds3@3@@Z 000000018010f780 f   GuRTree.obj
 0001:0010ece0       ?validate@RTree@Gu@physx@@QEAAXPEAUCallbackRefit@123@@Z 000000018010fce0 f   GuRTree.obj
 0001:0010ef20       ?validateRecursive@RTree@Gu@physx@@IEAAXIURTreeNodeQ@23@PEAURTreePage@23@PEAUCallbackRefit@123@@Z 000000018010ff20 f   GuRTree.obj
 0001:0010f0e0       ??$traverseRay@$00@RTree@Gu@physx@@QEBAXAEBV?$PxVec3T@M@2@0IPEAIPEAUCallbackRaycast@012@PEBV32@M@Z 00000001801100e0 f i GuRTreeQueries.obj
 0001:0010f480       ??$traverseRay@$0A@@RTree@Gu@physx@@QEBAXAEBV?$PxVec3T@M@2@0IPEAIPEAUCallbackRaycast@012@PEBV32@M@Z 0000000180110480 f i GuRTreeQueries.obj
 0001:0010f7d0       ?traverseAABB@RTree@Gu@physx@@QEBAXAEBV?$PxVec3T@M@3@0IPEAIPEAUCallback@123@@Z 00000001801107d0 f   GuRTreeQueries.obj
 0001:0010f990       ?traverseOBB@RTree@Gu@physx@@QEBAXAEBVBox@23@IPEAIPEAUCallback@123@@Z 0000000180110990 f   GuRTreeQueries.obj
 0001:00110270       ??0SweepBoxMeshHitCallback@Gu@physx@@QEAA@W4Enum@CallbackMode@12@AEBVPxMat34Padded@2@M_NAEBVBox@12@AEBV?$PxVec3T@M@2@44AEBV?$PxFlags@W4Enum@PxHitFlag@physx@@G@2@M2M@Z 0000000180111270 f   GuSweepsMesh.obj
 0001:00110380       ??0SweepCapsuleMeshHitCallback@Gu@physx@@QEAA@AEAUPxGeomSweepHit@2@AEBV?$PxMat34T@M@2@M_NAEBVCapsule@12@AEBV?$PxVec3T@M@2@AEBV?$PxFlags@W4Enum@PxHitFlag@physx@@G@2@2M@Z 0000000180111380 f   GuSweepsMesh.obj
 0001:00110450       ??0SweepConvexMeshHitCallback@Gu@physx@@QEAA@AEBUConvexHullData@12@AEBVPxMeshScale@2@AEBVFastVertex2ShapeScaling@Cm@2@AEBV?$PxTransformT@M@2@3AEBV?$PxVec3T@M@2@MV?$PxFlags@W4Enum@PxHitFlag@physx@@G@2@_NM6M@Z 0000000180111450 f   GuSweepsMesh.obj
 0001:00110da0       ??_ESweepBoxMeshHitCallback@Gu@physx@@UEAAPEAXI@Z 0000000180111da0 f i GuSweepsMesh.obj
 0001:00110da0       ??_GSweepBoxMeshHitCallback@Gu@physx@@UEAAPEAXI@Z 0000000180111da0 f i GuSweepsMesh.obj
 0001:00110dd0       ??_ESweepConvexMeshHitCallback@Gu@physx@@UEAAPEAXI@Z 0000000180111dd0 f i GuSweepsMesh.obj
 0001:00110dd0       ??_GSweepConvexMeshHitCallback@Gu@physx@@UEAAPEAXI@Z 0000000180111dd0 f i GuSweepsMesh.obj
 0001:00110e00       ??_ESweepShapeMeshHitCallback@Gu@physx@@UEAAPEAXI@Z 0000000180111e00 f i GuSweepsMesh.obj
 0001:00110e00       ??_GSweepShapeMeshHitCallback@Gu@physx@@UEAAPEAXI@Z 0000000180111e00 f i GuSweepsMesh.obj
 0001:00110e30       ?finalizeHit@SweepBoxMeshHitCallback@Gu@physx@@QEBA_NAEAUPxGeomSweepHit@3@AEBVPxTriangleMeshGeometry@3@AEBV?$PxTransformT@M@3@2AEBV?$PxVec3T@M@3@_N4@Z 0000000180111e30 f   GuSweepsMesh.obj
 0001:001114f0       ?finalizeHit@SweepCapsuleMeshHitCallback@Gu@physx@@QEBA_NAEAUPxGeomSweepHit@3@AEBVCapsule@23@AEBVPxTriangleMeshGeometry@3@AEBV?$PxTransformT@M@3@_N@Z 00000001801124f0 f   GuSweepsMesh.obj
 0001:001116a0       ?finalizeHit@SweepConvexMeshHitCallback@Gu@physx@@QEAA_NAEAUPxGeomSweepHit@3@AEBVPxTriangleMeshGeometry@3@AEBV?$PxTransformT@M@3@AEBVPxConvexMeshGeometry@3@2AEBV?$PxVec3T@M@3@M_N555@Z 00000001801126a0 f   GuSweepsMesh.obj
 0001:00111b70       ?processHit@SweepBoxMeshHitCallback@Gu@physx@@UEAA_NAEBUPxGeomRaycastHit@3@AEBV?$PxVec3T@M@3@11AEAMPEBI@Z 0000000180112b70 f   GuSweepsMesh.obj
 0001:00112360       ?processHit@SweepCapsuleMeshHitCallback@Gu@physx@@UEAA_NAEBUPxGeomRaycastHit@3@AEBV?$PxVec3T@M@3@11AEAMPEBI@Z 0000000180113360 f   GuSweepsMesh.obj
 0001:001128c0       ?processHit@SweepConvexMeshHitCallback@Gu@physx@@UEAA_NAEBUPxGeomRaycastHit@3@AEBV?$PxVec3T@M@3@11AEAMPEBI@Z 00000001801138c0 f   GuSweepsMesh.obj
 0001:00113000       ?sweepBox_MeshGeom@@YA_NAEBVPxGeometry@physx@@AEBV?$PxTransformT@M@2@AEBVPxBoxGeometry@2@1AEBVBox@Gu@2@AEBV?$PxVec3T@M@2@MAEAUPxGeomSweepHit@2@V?$PxFlags@W4Enum@PxHitFlag@physx@@G@2@MPEAUPxQueryThreadContext@2@@Z 0000000180114000 f   GuSweepsMesh.obj
 0001:00113090       ?sweepCapsule_MeshGeom@@YA_NAEBVPxGeometry@physx@@AEBV?$PxTransformT@M@2@AEBVPxCapsuleGeometry@2@1AEBVCapsule@Gu@2@AEBV?$PxVec3T@M@2@MAEAUPxGeomSweepHit@2@V?$PxFlags@W4Enum@PxHitFlag@physx@@G@2@MPEAUPxQueryThreadContext@2@@Z 0000000180114090 f   GuSweepsMesh.obj
 0001:00113120       ?sweepConvex_MeshGeom@@YA_NAEBVPxGeometry@physx@@AEBV?$PxTransformT@M@2@AEBVPxConvexMeshGeometry@2@1AEBV?$PxVec3T@M@2@MAEAUPxGeomSweepHit@2@V?$PxFlags@W4Enum@PxHitFlag@physx@@G@2@MPEAUPxQueryThreadContext@2@@Z 0000000180114120 f   GuSweepsMesh.obj
 0001:00113c60       ??0TriangleMesh@Gu@physx@@QEAA@AEBUPxTriangleMeshInternalData@2@@Z 0000000180114c60 f   GuTriangleMesh.obj
 0001:00113d40       ??0TriangleMesh@Gu@physx@@QEAA@PEAVMeshFactory@12@AEAVTriangleMeshData@12@@Z 0000000180114d40 f   GuTriangleMesh.obj
 0001:001140c0       ??1TriangleMesh@Gu@physx@@UEAA@XZ 00000001801150c0 f   GuTriangleMesh.obj
 0001:00114310       ??_ETriangleMesh@Gu@physx@@UEAAPEAXI@Z 0000000180115310 f i GuTriangleMesh.obj
 0001:00114310       ??_GTriangleMesh@Gu@physx@@UEAAPEAXI@Z 0000000180115310 f i GuTriangleMesh.obj
 0001:00114380       ?exportExtraData@TriangleMesh@Gu@physx@@UEAAXAEAVPxSerializationContext@3@@Z 0000000180115380 f   GuTriangleMesh.obj
 0001:00114550       ?getLocalBounds@TriangleMesh@Gu@physx@@UEBA?AVPxBounds3@3@XZ 0000000180115550 f i GuTriangleMesh.obj
 0001:001145e0       ?getMassInformation@TriangleMesh@Gu@physx@@UEBAXAEAMAEAV?$PxMat33T@M@3@AEAV?$PxVec3T@M@3@@Z 00000001801155e0 f i GuTriangleMesh.obj
 0001:00114660       ?getNbTriangles@TriangleMesh@Gu@physx@@UEBAIXZ 0000000180115660 f i GuTriangleMesh.obj
 0001:00114670       ?getPreferSDFProjection@TriangleMesh@Gu@physx@@UEBA_NXZ 0000000180115670 f i GuTriangleMesh.obj
 0001:00114680       ?getSDF@TriangleMesh@Gu@physx@@UEBAPEBMXZ 0000000180115680 f i GuTriangleMesh.obj
 0001:00114690       ?getSDFDimensions@TriangleMesh@Gu@physx@@UEBAXAEAI00@Z 0000000180115690 f i GuTriangleMesh.obj
 0001:001146c0       ?getTriangleMaterialIndex@TriangleMesh@Gu@physx@@UEBAGI@Z 00000001801156c0 f i GuTriangleMesh.obj
 0001:001146e0       ?getTriangleMeshFlags@TriangleMesh@Gu@physx@@UEBA?AV?$PxFlags@W4Enum@PxTriangleMeshFlag@physx@@E@3@XZ 00000001801156e0 f i GuTriangleMesh.obj
 0001:001146f0       ?getTrianglesRemap@TriangleMesh@Gu@physx@@UEBAPEBIXZ 00000001801156f0 f i GuTriangleMesh.obj
 0001:00114700       ?getVerticesForModification@TriangleMesh@Gu@physx@@UEAAPEAV?$PxVec3T@M@3@XZ 0000000180115700 f   GuTriangleMesh.obj
 0001:00114740       ?importExtraData@TriangleMesh@Gu@physx@@QEAAXAEAVPxDeserializationContext@3@@Z 0000000180115740 f   GuTriangleMesh.obj
 0001:001148d0       ?isKindOf@PxTriangleMesh@physx@@MEBA_NPEBD@Z 00000001801158d0 f i GuTriangleMesh.obj
 0001:00114940       ?onRefCountZero@TriangleMesh@Gu@physx@@UEAAXXZ 0000000180115940 f   GuTriangleMesh.obj
 0001:00114a10       ?refitBVH@TriangleMesh@Gu@physx@@UEAA?AVPxBounds3@3@XZ 0000000180115a10 f   GuTriangleMesh.obj
 0001:00114ae0       ?requestEdgeList@TriangleMesh@Gu@physx@@QEBAPEBVEdgeList@23@XZ 0000000180115ae0 f   GuTriangleMesh.obj
 0001:00114bd0       ?setAllEdgesActive@TriangleMesh@Gu@physx@@QEAAXXZ 0000000180115bd0 f   GuTriangleMesh.obj
 0001:00114cc0       ?setPreferSDFProjection@TriangleMesh@Gu@physx@@UEAAX_N@Z 0000000180115cc0 f i GuTriangleMesh.obj
 0001:00114cf0       ??0BV4TriangleMesh@Gu@physx@@QEAA@AEBUPxTriangleMeshInternalData@2@@Z 0000000180115cf0 f   GuTriangleMeshBV4.obj
 0001:00114e50       ??0BV4TriangleMesh@Gu@physx@@QEAA@PEAVMeshFactory@12@AEAVTriangleMeshData@12@@Z 0000000180115e50 f   GuTriangleMeshBV4.obj
 0001:00114ee0       ??_EBV4TriangleMesh@Gu@physx@@UEAAPEAXI@Z 0000000180115ee0 f i GuTriangleMeshBV4.obj
 0001:00114ee0       ??_GBV4TriangleMesh@Gu@physx@@UEAAPEAXI@Z 0000000180115ee0 f i GuTriangleMeshBV4.obj
 0001:00114f70       ?createObject@BV4TriangleMesh@Gu@physx@@SAPEAVTriangleMesh@23@AEAPEAEAEAVPxDeserializationContext@3@@Z 0000000180115f70 f   GuTriangleMeshBV4.obj
 0001:00115050       ?exportExtraData@BV4TriangleMesh@Gu@physx@@UEAAXAEAVPxSerializationContext@3@@Z 0000000180116050 f   GuTriangleMeshBV4.obj
 0001:00115090       ?getConcreteTypeName@BV4TriangleMesh@Gu@physx@@UEBAPEBDXZ 0000000180116090 f i GuTriangleMeshBV4.obj
 0001:001150a0       ?getInternalData@BV4TriangleMesh@Gu@physx@@UEBA_NAEAUPxTriangleMeshInternalData@3@_N@Z 00000001801160a0 f   GuTriangleMeshBV4.obj
 0001:00115190       ?getMidphaseID@BV4TriangleMesh@Gu@physx@@UEBA?AW4Enum@PxMeshMidPhase@3@XZ 0000000180116190 f i GuTriangleMeshBV4.obj
 0001:00115190       ?getMidphaseID@BV4TriangleMeshBuilder@physx@@UEBA?AW4Enum@PxMeshMidPhase@2@XZ 0000000180116190 f i GuCookingTriangleMesh.obj
 0001:00115190       ?length@charNode@@UEBAHXZ  0000000180116190 f i libvcruntime:undname.obj
 0001:00115190       ?raw_length@charNode@@UEBAHXZ 0000000180116190 f i libvcruntime:undname.obj
 0001:00115190       DllMain                    0000000180116190 f i LIBCMT:dll_dllmain_stub.obj
 0001:00115190       _get_startup_argv_mode     0000000180116190 f i LIBCMT:argv_mode.obj
 0001:001151a0       ?getVerticesForModification@BV4TriangleMesh@Gu@physx@@UEAAPEAV?$PxVec3T@M@3@XZ 00000001801161a0 f   GuTriangleMeshBV4.obj
 0001:001151a0       ?getVerticesForModification@RTreeTriangleMesh@Gu@physx@@UEAAPEAV?$PxVec3T@M@3@XZ 00000001801161a0 f   GuTriangleMeshRTree.obj
 0001:001151b0       ?refitBVH@BV4TriangleMesh@Gu@physx@@UEAA?AVPxBounds3@3@XZ 00000001801161b0 f   GuTriangleMeshBV4.obj
 0001:00115320       PxGetTriangleMeshInternalData 0000000180116320 f   GuTriangleMeshBV4.obj
 0001:00115340       ??0RTreeTriangleMesh@Gu@physx@@QEAA@PEAVMeshFactory@12@AEAVTriangleMeshData@12@@Z 0000000180116340 f   GuTriangleMeshRTree.obj
 0001:001154b0       ??_E?$RefitCallback@G@physx@@UEAAPEAXI@Z 00000001801164b0 f i GuTriangleMeshRTree.obj
 0001:001154b0       ??_E?$RefitCallback@I@physx@@UEAAPEAXI@Z 00000001801164b0 f i GuTriangleMeshRTree.obj
 0001:001154b0       ??_G?$RefitCallback@G@physx@@UEAAPEAXI@Z 00000001801164b0 f i GuTriangleMeshRTree.obj
 0001:001154b0       ??_G?$RefitCallback@I@physx@@UEAAPEAXI@Z 00000001801164b0 f i GuTriangleMeshRTree.obj
 0001:001154e0       ??_ERTreeTriangleMesh@Gu@physx@@UEAAPEAXI@Z 00000001801164e0 f i GuTriangleMeshRTree.obj
 0001:001154e0       ??_GRTreeTriangleMesh@Gu@physx@@UEAAPEAXI@Z 00000001801164e0 f i GuTriangleMeshRTree.obj
 0001:00115590       ?createObject@RTreeTriangleMesh@Gu@physx@@SAPEAVTriangleMesh@23@AEAPEAEAEAVPxDeserializationContext@3@@Z 0000000180116590 f   GuTriangleMeshRTree.obj
 0001:00115620       ?exportExtraData@RTreeTriangleMesh@Gu@physx@@UEAAXAEAVPxSerializationContext@3@@Z 0000000180116620 f   GuTriangleMeshRTree.obj
 0001:00115660       ?getConcreteTypeName@RTreeTriangleMesh@Gu@physx@@UEBAPEBDXZ 0000000180116660 f i GuTriangleMeshRTree.obj
 0001:00115670       ?recomputeBounds@?$RefitCallback@G@physx@@UEAAXIAEAT__m128@@0@Z 0000000180116670 f i GuTriangleMeshRTree.obj
 0001:001159a0       ?recomputeBounds@?$RefitCallback@I@physx@@UEAAXIAEAT__m128@@0@Z 00000001801169a0 f i GuTriangleMeshRTree.obj
 0001:00115cc0       ?refitBVH@RTreeTriangleMesh@Gu@physx@@UEAA?AVPxBounds3@3@XZ 0000000180116cc0 f   GuTriangleMeshRTree.obj
 0001:00115de0       ??0BV32Tree@Gu@physx@@QEAA@XZ 0000000180116de0 f   GuBV32.obj
 0001:00115e10       ??1BV32Tree@Gu@physx@@QEAA@XZ 0000000180116e10 f   GuBV32.obj
 0001:00115e20       ?calculateLeafNode@BV32Tree@Gu@physx@@QEAAXAEAUBV32Data@23@@Z 0000000180116e20 f   GuBV32.obj
 0001:00116060       ?createSOAformatNode@BV32Tree@Gu@physx@@QEAAXAEAUBV32DataPacked@23@AEBUBV32Data@23@IAEAI2@Z 0000000180117060 f   GuBV32.obj
 0001:001164c0       ?load@BV32Tree@Gu@physx@@QEAA_NAEAVPxInputStream@3@_N@Z 00000001801174c0 f   GuBV32.obj
 0001:00116800       ?release@BV32Tree@Gu@physx@@QEAAXXZ 0000000180117800 f   GuBV32.obj
 0001:001168c0       ??0BV32Node@@QEAA@XZ       00000001801178c0 f i GuBV32Build.obj
 0001:00116d40       ?BuildBV32Ex@Gu@physx@@YA_NAEAVBV32Tree@12@AEAVSourceMeshBase@12@MI@Z 0000000180117d40 f   GuBV32Build.obj
 0001:00117ce0       ??0BVTetrahedronMesh@Gu@physx@@QEAA@AEAVTetrahedronMeshData@12@AEAVSoftBodyCollisionData@12@PEAVMeshFactory@12@@Z 0000000180118ce0 f   GuTetrahedronMesh.obj
 0001:00117f40       ??0SoftBodyMesh@Gu@physx@@QEAA@PEAVMeshFactory@12@AEAVSoftBodyMeshData@12@@Z 0000000180118f40 f   GuTetrahedronMesh.obj
 0001:00118310       ??0TetrahedronMesh@Gu@physx@@QEAA@PEAVMeshFactory@12@AEAVTetrahedronMeshData@12@@Z 0000000180119310 f   GuTetrahedronMesh.obj
 0001:00118400       ??1SoftBodyAuxData@Gu@physx@@UEAA@XZ 0000000180119400 f   GuTetrahedronMesh.obj
 0001:00118660       ??1TetrahedronMesh@Gu@physx@@UEAA@XZ 0000000180119660 f   GuTetrahedronMesh.obj
 0001:00118700       ??_EBVTetrahedronMesh@Gu@physx@@UEAAPEAXI@Z 0000000180119700 f i GuTetrahedronMesh.obj
 0001:00118700       ??_GBVTetrahedronMesh@Gu@physx@@UEAAPEAXI@Z 0000000180119700 f i GuTetrahedronMesh.obj
 0001:00118880       ??_ESoftBodyAuxData@Gu@physx@@UEAAPEAXI@Z 0000000180119880 f i GuTetrahedronMesh.obj
 0001:00118880       ??_GSoftBodyAuxData@Gu@physx@@UEAAPEAXI@Z 0000000180119880 f i GuTetrahedronMesh.obj
 0001:001188f0       ??_ESoftBodyMesh@Gu@physx@@UEAAPEAXI@Z 00000001801198f0 f i GuTetrahedronMesh.obj
 0001:001188f0       ??_GSoftBodyMesh@Gu@physx@@UEAAPEAXI@Z 00000001801198f0 f i GuTetrahedronMesh.obj
 0001:001189c0       ??_ETetrahedronMesh@Gu@physx@@UEAAPEAXI@Z 00000001801199c0 f i GuTetrahedronMesh.obj
 0001:001189c0       ??_GTetrahedronMesh@Gu@physx@@UEAAPEAXI@Z 00000001801199c0 f i GuTetrahedronMesh.obj
 0001:00118a30       ?exportExtraData@SoftBodyMesh@Gu@physx@@UEAAXAEAVPxSerializationContext@3@@Z 0000000180119a30 f   GuTetrahedronMesh.obj
 0001:00118b20       ?getConcreteTypeName@SoftBodyAuxData@Gu@physx@@UEBAPEBDXZ 0000000180119b20 f i GuTetrahedronMesh.obj
 0001:00118b30       ?getConcreteTypeName@SoftBodyMesh@Gu@physx@@UEBAPEBDXZ 0000000180119b30 f i GuTetrahedronMesh.obj
 0001:00118b40       ?getConcreteTypeName@TetrahedronMesh@Gu@physx@@UEBAPEBDXZ 0000000180119b40 f i GuTetrahedronMesh.obj
 0001:00118b50       ?getLocalBounds@TetrahedronMesh@Gu@physx@@UEBA?AVPxBounds3@3@XZ 0000000180119b50 f i GuTetrahedronMesh.obj
 0001:00118be0       ?getNbTetrahedrons@TetrahedronMesh@Gu@physx@@UEBAIXZ 0000000180119be0 f i GuTetrahedronMesh.obj
 0001:00118bf0       ?getBounds@BVH@Gu@physx@@UEBAPEBVPxBounds3@3@XZ 0000000180119bf0 f i GuBVH.obj
 0001:00118bf0       ?getTetrahedraRemap@BVTetrahedronMesh@Gu@physx@@UEBAPEBIXZ 0000000180119bf0 f i GuTetrahedronMesh.obj
 0001:00118c00       ?getTetrahedronMeshFlags@TetrahedronMesh@Gu@physx@@UEBA?AV?$PxFlags@W4Enum@PxTetrahedronMeshFlag@physx@@E@3@XZ 0000000180119c00 f i GuTetrahedronMesh.obj
 0001:00118c10       ?getTetrahedrons@TetrahedronMesh@Gu@physx@@UEBAPEBXXZ 0000000180119c10 f i GuTetrahedronMesh.obj
 0001:00118c20       ?isKindOf@PxSoftBodyAuxData@physx@@MEBA_NPEBD@Z 0000000180119c20 f i GuTetrahedronMesh.obj
 0001:00118c90       ?isKindOf@PxSoftBodyMesh@physx@@MEBA_NPEBD@Z 0000000180119c90 f i GuTetrahedronMesh.obj
 0001:00118d00       ?isKindOf@PxTetrahedronMesh@physx@@MEBA_NPEBD@Z 0000000180119d00 f i GuTetrahedronMesh.obj
 0001:00118d70       ?onRefCountZero@SoftBodyAuxData@Gu@physx@@UEAAXXZ 0000000180119d70 f i GuTetrahedronMesh.obj
 0001:00118d70       ?release@SimulationTetrahedronMeshData@Gu@physx@@UEAAXXZ 0000000180119d70 f i GuCookingTetrahedronMesh.obj
 0001:00118d90       ?onRefCountZero@SoftBodyMesh@Gu@physx@@UEAAXXZ 0000000180119d90 f   GuTetrahedronMesh.obj
 0001:00118e30       ?onRefCountZero@TetrahedronMesh@Gu@physx@@UEAAXXZ 0000000180119e30 f   GuTetrahedronMesh.obj
 0001:0011b3a0       ?pcmContactBoxBox@Gu@physx@@YA_NAEBVPxGeometry@2@0AEBV?$PxTransformT@M@2@1AEBUNarrowPhaseParams@12@AEAUCache@12@AEAVPxContactBuffer@2@PEAVPxRenderOutput@2@@Z 000000018011c3a0 f   GuPCMContactBoxBox.obj
 0001:0011c250       ??$gjkPenetration@U?$RelativeConvex@VBoxV@Gu@physx@@@Gu@physx@@U?$LocalConvex@VConvexHullNoScaleV@Gu@physx@@@23@@Gu@physx@@YA?AW4GjkStatus@01@AEBU?$RelativeConvex@VBoxV@Gu@physx@@@01@AEBU?$LocalConvex@VConvexHullNoScaleV@Gu@physx@@@01@AEBT__m128@@2_NPEIAE4AEAEAEAUGjkOutput@01@@Z 000000018011d250 f i GuPCMContactBoxConvex.obj
 0001:0011c2c0       ??$gjkPenetration@U?$RelativeConvex@VBoxV@Gu@physx@@@Gu@physx@@U?$LocalConvex@VConvexHullNoScaleV@Gu@physx@@@23@@Gu@physx@@YA?AW4GjkStatus@01@AEBU?$RelativeConvex@VBoxV@Gu@physx@@@01@AEBU?$LocalConvex@VConvexHullNoScaleV@Gu@physx@@@01@AEBT__m128@@2_NPEIAE4PEIAT5@5AEAEAEAUGjkOutput@01@@Z 000000018011d2c0 f i GuPCMContactBoxConvex.obj
 0001:0011dea0       ?pcmContactBoxConvex@Gu@physx@@YA_NAEBVPxGeometry@2@0AEBV?$PxTransformT@M@2@1AEBUNarrowPhaseParams@12@AEAUCache@12@AEAVPxContactBuffer@2@PEAVPxRenderOutput@2@@Z 000000018011eea0 f   GuPCMContactBoxConvex.obj
 0001:0011ec80       ?support@?$LocalConvex@VConvexHullNoScaleV@Gu@physx@@@Gu@physx@@UEBA?AT__m128@@AEBT4@@Z 000000018011fc80 f i GuPCMContactBoxConvex.obj
 0001:0011ecd0       ?support@?$LocalConvex@VConvexHullNoScaleV@Gu@physx@@@Gu@physx@@UEBA?AT__m128@@AEBT4@AEAH@Z 000000018011fcd0 f i GuPCMContactBoxConvex.obj
 0001:0011ed30       ?supportPoint@?$LocalConvex@VConvexHullNoScaleV@Gu@physx@@@Gu@physx@@UEBA?AT__m128@@H@Z 000000018011fd30 f i GuPCMContactBoxConvex.obj
 0001:0011ed60       ?pcmContactCapsuleBox@Gu@physx@@YA_NAEBVPxGeometry@2@0AEBV?$PxTransformT@M@2@1AEBUNarrowPhaseParams@12@AEAUCache@12@AEAVPxContactBuffer@2@PEAVPxRenderOutput@2@@Z 000000018011fd60 f   GuPCMContactCapsuleBox.obj
 0001:0011fcf0       ?pcmContactCapsuleCapsule@Gu@physx@@YA_NAEBVPxGeometry@2@0AEBV?$PxTransformT@M@2@1AEBUNarrowPhaseParams@12@AEAUCache@12@AEAVPxContactBuffer@2@PEAVPxRenderOutput@2@@Z 0000000180120cf0 f   GuPCMContactCapsuleCapsule.obj
 0001:00120580       ??$gjkPenetration@U?$LocalConvex@VCapsuleV@Gu@physx@@@Gu@physx@@U?$LocalConvex@VConvexHullNoScaleV@Gu@physx@@@23@@Gu@physx@@YA?AW4GjkStatus@01@AEBU?$LocalConvex@VCapsuleV@Gu@physx@@@01@AEBU?$LocalConvex@VConvexHullNoScaleV@Gu@physx@@@01@AEBT__m128@@2_NPEIAE4AEAEAEAUGjkOutput@01@@Z 0000000180121580 f i GuPCMContactCapsuleConvex.obj
 0001:001205f0       ??$gjkPenetration@U?$LocalConvex@VCapsuleV@Gu@physx@@@Gu@physx@@U?$LocalConvex@VConvexHullNoScaleV@Gu@physx@@@23@@Gu@physx@@YA?AW4GjkStatus@01@AEBU?$LocalConvex@VCapsuleV@Gu@physx@@@01@AEBU?$LocalConvex@VConvexHullNoScaleV@Gu@physx@@@01@AEBT__m128@@2_NPEIAE4PEIAT5@5AEAEAEAUGjkOutput@01@@Z 00000001801215f0 f i GuPCMContactCapsuleConvex.obj
 0001:00121cc0       ?pcmContactCapsuleConvex@Gu@physx@@YA_NAEBVPxGeometry@2@0AEBV?$PxTransformT@M@2@1AEBUNarrowPhaseParams@12@AEAUCache@12@AEAVPxContactBuffer@2@PEAVPxRenderOutput@2@@Z 0000000180122cc0 f   GuPCMContactCapsuleConvex.obj
 0001:00122eb0       ??_EPCMCapsuleVsHeightfieldContactGenerationCallback@@UEAAPEAXI@Z 0000000180123eb0 f i GuPCMContactCapsuleHeightField.obj
 0001:00122eb0       ??_EPCMConvexVsHeightfieldContactGenerationCallback@physx@@UEAAPEAXI@Z 0000000180123eb0 f i GuPCMContactConvexHeightField.obj
 0001:00122eb0       ??_GPCMCapsuleVsHeightfieldContactGenerationCallback@@UEAAPEAXI@Z 0000000180123eb0 f i GuPCMContactCapsuleHeightField.obj
 0001:00122eb0       ??_GPCMConvexVsHeightfieldContactGenerationCallback@physx@@UEAAPEAXI@Z 0000000180123eb0 f i GuPCMContactConvexHeightField.obj
 0001:00122ee0       ?pcmContactCapsuleHeightField@Gu@physx@@YA_NAEBVPxGeometry@2@0AEBV?$PxTransformT@M@2@1AEBUNarrowPhaseParams@12@AEAUCache@12@AEAVPxContactBuffer@2@PEAVPxRenderOutput@2@@Z 0000000180123ee0 f   GuPCMContactCapsuleHeightField.obj
 0001:00123df0       ?reportTouchedTris@?$PCMHeightfieldContactGenerationCallback@UPCMCapsuleVsHeightfieldContactGenerationCallback@@@Gu@physx@@UEAA_NIPEBI@Z 0000000180124df0 f i GuPCMContactCapsuleHeightField.obj
 0001:00124460       ?generateContacts@PCMCapsuleVsMeshContactGeneration@Gu@physx@@SAXAEBT__m128@@0000I000PEAVMeshPersistentContact@23@AEAI@Z 0000000180125460 f   GuPCMContactCapsuleMesh.obj
 0001:00124880       ?generateEE@PCMCapsuleVsMeshContactGeneration@Gu@physx@@QEAAXAEBT__m128@@000I00PEAVMeshPersistentContact@23@AEAI@Z 0000000180125880 f   GuPCMContactCapsuleMesh.obj
 0001:00124af0       ?generateEEMTD@PCMCapsuleVsMeshContactGeneration@Gu@physx@@SAXAEBT__m128@@000I00PEAVMeshPersistentContact@23@AEAI@Z 0000000180125af0 f   GuPCMContactCapsuleMesh.obj
 0001:00124d20       ?pcmContactCapsuleMesh@Gu@physx@@YA_NAEBVPxGeometry@2@0AEBV?$PxTransformT@M@2@1AEBUNarrowPhaseParams@12@AEAUCache@12@AEAVPxContactBuffer@2@PEAVPxRenderOutput@2@@Z 0000000180125d20 f   GuPCMContactCapsuleMesh.obj
 0001:001269b0       ?processTriangle@PCMCapsuleVsMeshContactGeneration@Gu@physx@@QEAA_NPEBV?$PxVec3T@M@3@IEPEBI@Z 00000001801279b0 f   GuPCMContactCapsuleMesh.obj
 0001:001275b0       ?processTriangle@PCMCapsuleVsMeshContactGeneration@Gu@physx@@SA_NAEBVTriangleV@23@IAEBVCapsuleV@23@AEBT__m128@@EPEAVMeshPersistentContact@23@AEAI@Z 00000001801285b0 f   GuPCMContactCapsuleMesh.obj
 0001:001278e0       ?addContactsToPatch@PCMConvexVsMeshContactGeneration@Gu@physx@@QEAAXAEBT__m128@@I@Z 00000001801288e0 f   GuPCMContactConvexCommon.obj
 0001:00128220       ?doSupport@?$SupportLocalImpl@VTriangleV@Gu@physx@@@Gu@physx@@UEBA?AT__m128@@AEBT4@@Z 0000000180129220 f i GuPCMContactConvexCommon.obj
 0001:001282b0       ?doSupport@?$SupportLocalImpl@VTriangleV@Gu@physx@@@Gu@physx@@UEBAXAEBT__m128@@AEAT4@1@Z 00000001801292b0 f i GuPCMContactConvexCommon.obj
 0001:00128320       ?generateLastContacts@PCMConvexVsMeshContactGeneration@Gu@physx@@QEAAXXZ 0000000180129320 f   GuPCMContactConvexCommon.obj
 0001:00128880       ?populateVerts@?$SupportLocalImpl@VTriangleV@Gu@physx@@@Gu@physx@@UEBAXPEBEIPEBV?$PxVec3T@M@3@PEAT__m128@@@Z 0000000180129880 f i GuPCMContactConvexCommon.obj
 0001:001289c0       ?processTriangle@PCMConvexVsMeshContactGeneration@Gu@physx@@QEAA_NPEBV?$PxVec3T@M@3@IEPEBI@Z 00000001801299c0 f   GuPCMContactConvexCommon.obj
 0001:00128f10       ?processTriangle@PCMConvexVsMeshContactGeneration@Gu@physx@@SA_NAEBUPolygonalData@23@PEAVSupportLocal@23@PEBV?$PxVec3T@M@3@IEAEBT__m128@@_NAEBVPxTransformV@aos@3@AEBVPxMatTransformV@93@PEAVMeshPersistentContact@23@AEAI@Z 0000000180129f10 f   GuPCMContactConvexCommon.obj
 0001:00129190       ??$gjkPenetration@U?$RelativeConvex@VConvexHullNoScaleV@Gu@physx@@@Gu@physx@@U?$LocalConvex@VConvexHullNoScaleV@Gu@physx@@@23@@Gu@physx@@YA?AW4GjkStatus@01@AEBU?$RelativeConvex@VConvexHullNoScaleV@Gu@physx@@@01@AEBU?$LocalConvex@VConvexHullNoScaleV@Gu@physx@@@01@AEBT__m128@@2_NPEIAE4AEAEAEAUGjkOutput@01@@Z 000000018012a190 f i GuPCMContactConvexConvex.obj
 0001:00129200       ??$gjkPenetration@U?$RelativeConvex@VConvexHullNoScaleV@Gu@physx@@@Gu@physx@@U?$LocalConvex@VConvexHullNoScaleV@Gu@physx@@@23@@Gu@physx@@YA?AW4GjkStatus@01@AEBU?$RelativeConvex@VConvexHullNoScaleV@Gu@physx@@@01@AEBU?$LocalConvex@VConvexHullNoScaleV@Gu@physx@@@01@AEBT__m128@@2_NPEIAE4PEIAT5@5AEAEAEAUGjkOutput@01@@Z 000000018012a200 f i GuPCMContactConvexConvex.obj
 0001:0012a710       ??$gjkPenetration@U?$RelativeConvex@VConvexHullNoScaleV@Gu@physx@@@Gu@physx@@U?$LocalConvex@VConvexHullV@Gu@physx@@@23@@Gu@physx@@YA?AW4GjkStatus@01@AEBU?$RelativeConvex@VConvexHullNoScaleV@Gu@physx@@@01@AEBU?$LocalConvex@VConvexHullV@Gu@physx@@@01@AEBT__m128@@2_NPEIAE4AEAEAEAUGjkOutput@01@@Z 000000018012b710 f i GuPCMContactConvexConvex.obj
 0001:0012a780       ??$gjkPenetration@U?$RelativeConvex@VConvexHullNoScaleV@Gu@physx@@@Gu@physx@@U?$LocalConvex@VConvexHullV@Gu@physx@@@23@@Gu@physx@@YA?AW4GjkStatus@01@AEBU?$RelativeConvex@VConvexHullNoScaleV@Gu@physx@@@01@AEBU?$LocalConvex@VConvexHullV@Gu@physx@@@01@AEBT__m128@@2_NPEIAE4PEIAT5@5AEAEAEAUGjkOutput@01@@Z 000000018012b780 f i GuPCMContactConvexConvex.obj
 0001:0012bd20       ??$gjkPenetration@U?$RelativeConvex@VConvexHullV@Gu@physx@@@Gu@physx@@U?$LocalConvex@VConvexHullNoScaleV@Gu@physx@@@23@@Gu@physx@@YA?AW4GjkStatus@01@AEBU?$RelativeConvex@VConvexHullV@Gu@physx@@@01@AEBU?$LocalConvex@VConvexHullNoScaleV@Gu@physx@@@01@AEBT__m128@@2_NPEIAE4AEAEAEAUGjkOutput@01@@Z 000000018012cd20 f i GuPCMContactConvexConvex.obj
 0001:0012bd90       ??$gjkPenetration@U?$RelativeConvex@VConvexHullV@Gu@physx@@@Gu@physx@@U?$LocalConvex@VConvexHullNoScaleV@Gu@physx@@@23@@Gu@physx@@YA?AW4GjkStatus@01@AEBU?$RelativeConvex@VConvexHullV@Gu@physx@@@01@AEBU?$LocalConvex@VConvexHullNoScaleV@Gu@physx@@@01@AEBT__m128@@2_NPEIAE4PEIAT5@5AEAEAEAUGjkOutput@01@@Z 000000018012cd90 f i GuPCMContactConvexConvex.obj
 0001:0012ddb0       ?pcmContactConvexConvex@Gu@physx@@YA_NAEBVPxGeometry@2@0AEBV?$PxTransformT@M@2@1AEBUNarrowPhaseParams@12@AEAUCache@12@AEAVPxContactBuffer@2@PEAVPxRenderOutput@2@@Z 000000018012edb0 f   GuPCMContactConvexConvex.obj
 0001:0012eed0       ?support@?$RelativeConvex@VConvexHullNoScaleV@Gu@physx@@@Gu@physx@@UEBA?AT__m128@@AEBT4@@Z 000000018012fed0 f i GuPCMContactConvexConvex.obj
 0001:0012ef80       ?support@?$RelativeConvex@VConvexHullNoScaleV@Gu@physx@@@Gu@physx@@UEBA?AT__m128@@AEBT4@AEAH@Z 000000018012ff80 f i GuPCMContactConvexConvex.obj
 0001:0012f040       ?supportPoint@?$RelativeConvex@VConvexHullNoScaleV@Gu@physx@@@Gu@physx@@UEBA?AT__m128@@H@Z 0000000180130040 f i GuPCMContactConvexConvex.obj
 0001:0012f0a0       ?PCMContactConvexHeightfield@Gu@physx@@YA_NAEBUPolygonalData@12@PEAVSupportLocal@12@AEBT__m128@@AEBVPxBounds3@2@AEBVPxHeightFieldGeometry@2@AEBV?$PxTransformT@M@2@5MAEAVPxContactBuffer@2@AEBVFastVertex2ShapeScaling@Cm@2@_NAEAVMultiplePersistentContactManifold@12@PEAVPxRenderOutput@2@@Z 00000001801300a0 f   GuPCMContactConvexHeightField.obj
 0001:0012ff20       ?pcmContactBoxHeightField@Gu@physx@@YA_NAEBVPxGeometry@2@0AEBV?$PxTransformT@M@2@1AEBUNarrowPhaseParams@12@AEAUCache@12@AEAVPxContactBuffer@2@PEAVPxRenderOutput@2@@Z 0000000180130f20 f   GuPCMContactConvexHeightField.obj
 0001:001301c0       ?pcmContactConvexHeightField@Gu@physx@@YA_NAEBVPxGeometry@2@0AEBV?$PxTransformT@M@2@1AEBUNarrowPhaseParams@12@AEAUCache@12@AEAVPxContactBuffer@2@PEAVPxRenderOutput@2@@Z 00000001801311c0 f   GuPCMContactConvexHeightField.obj
 0001:00130880       ?reportTouchedTris@?$PCMHeightfieldContactGenerationCallback@UPCMConvexVsHeightfieldContactGenerationCallback@physx@@@Gu@physx@@UEAA_NIPEBI@Z 0000000180131880 f i GuPCMContactConvexHeightField.obj
 0001:00130e30       ??$processTriangleCache@$0BA@@PCMConvexVsMeshContactGenerationCallback@physx@@QEAAXAEAU?$TriangleCache@$0BA@@Gu@1@@Z 0000000180131e30 f i GuPCMContactConvexMesh.obj
 0001:00130ec0       ??_EPCMConvexVsMeshContactGenerationCallback@physx@@UEAAPEAXI@Z 0000000180131ec0 f i GuPCMContactConvexMesh.obj
 0001:00130ec0       ??_GPCMConvexVsMeshContactGenerationCallback@physx@@UEAAPEAXI@Z 0000000180131ec0 f i GuPCMContactConvexMesh.obj
 0001:00130ef0       ?PCMContactConvexMesh@Gu@physx@@YA_NAEBUPolygonalData@12@PEAVSupportLocal@12@AEBT__m128@@AEBVPxBounds3@2@AEBVPxTriangleMeshGeometry@2@AEBV?$PxTransformT@M@2@5MAEAVPxContactBuffer@2@AEBVFastVertex2ShapeScaling@Cm@2@7_N8AEAVMultiplePersistentContactManifold@12@PEAVPxRenderOutput@2@@Z 0000000180131ef0 f   GuPCMContactConvexMesh.obj
 0001:001319d0       ?pcmContactBoxMesh@Gu@physx@@YA_NAEBVPxGeometry@2@0AEBV?$PxTransformT@M@2@1AEBUNarrowPhaseParams@12@AEAUCache@12@AEAVPxContactBuffer@2@PEAVPxRenderOutput@2@@Z 00000001801329d0 f   GuPCMContactConvexMesh.obj
 0001:00131d10       ?pcmContactConvexMesh@Gu@physx@@YA_NAEBVPxGeometry@2@0AEBV?$PxTransformT@M@2@1AEBUNarrowPhaseParams@12@AEAUCache@12@AEAVPxContactBuffer@2@PEAVPxRenderOutput@2@@Z 0000000180132d10 f   GuPCMContactConvexMesh.obj
 0001:001324e0       ?processHit@?$PCMMeshContactGenerationCallback@UPCMConvexVsMeshContactGenerationCallback@physx@@@Gu@physx@@UEAA_NAEBUPxGeomRaycastHit@3@AEBV?$PxVec3T@M@3@11AEAMPEBI@Z 00000001801334e0 f i GuPCMContactConvexMesh.obj
 0001:001329a0       ?addGJKEPAContacts@Gu@physx@@YA_NPEBUGjkConvex@12@0AEBVPxMatTransformV@aos@2@W4GjkStatus@12@PEAVPersistentContact@12@T__m128@@4AEAUGjkOutput@12@AEAVPersistentContactManifold@12@@Z 00000001801339a0 f   GuPCMContactGenBoxConvex.obj
 0001:00132ba0       ?buildPartialHull@Gu@physx@@YAXAEBUPolygonalData@12@PEAVSupportLocal@12@AEAVSeparatingAxes@12@AEBT__m128@@3@Z 0000000180133ba0 f   GuPCMContactGenBoxConvex.obj
 0001:00132e80       ?computeMTD@Gu@physx@@YA_NAEAUPolygonalData@12@0PEAVSupportLocal@12@1AEAT__m128@@2@Z 0000000180133e80 f   GuPCMContactGenBoxConvex.obj
 0001:001334a0       ?generateFullContactManifold@Gu@physx@@YA_NAEAUPolygonalData@12@0PEAVSupportLocal@12@1PEAVPersistentContact@12@AEAIAEBT__m128@@444MM_NPEAVPxRenderOutput@2@M@Z 00000001801344a0 f   GuPCMContactGenBoxConvex.obj
 0001:00133fb0       ?generatedContacts@Gu@physx@@YAXAEAUPolygonalData@12@0AEBUHullPolygonData@12@1PEAVSupportLocal@12@2AEBVPxMatTransformV@aos@2@PEAVPersistentContact@12@AEAIAEBT__m128@@PEAVPxRenderOutput@2@@Z 0000000180134fb0 f   GuPCMContactGenBoxConvex.obj
 0001:00135410       ?computeMTD@Gu@physx@@YA_NAEBVCapsuleV@12@AEAUPolygonalData@12@PEAVSupportLocal@12@AEAT__m128@@3@Z 0000000180136410 f   GuPCMContactGenSphereCapsule.obj
 0001:00135500       ?generateCapsuleBoxFullContactManifold@Gu@physx@@YA_NAEBVCapsuleV@12@AEAUPolygonalData@12@PEAVSupportLocal@12@AEBVPxMatTransformV@aos@2@PEAVPersistentContact@12@AEAIAEBT__m128@@AEAT9@6M_NMPEAVPxRenderOutput@2@@Z 0000000180136500 f   GuPCMContactGenSphereCapsule.obj
 0001:001356a0       ?generateFullContactManifold@Gu@physx@@YA_NAEBVCapsuleV@12@AEAUPolygonalData@12@PEAVSupportLocal@12@AEBVPxMatTransformV@aos@2@PEAVPersistentContact@12@AEAIAEBT__m128@@AEAT9@6M_NM@Z 00000001801366a0 f   GuPCMContactGenSphereCapsule.obj
 0001:00135890       ?generateSphereFullContactManifold@Gu@physx@@YA_NAEBVCapsuleV@12@AEAUPolygonalData@12@PEAVSupportLocal@12@PEAVPersistentContact@12@AEAIAEBT__m128@@AEAT7@_N@Z 0000000180136890 f   GuPCMContactGenSphereCapsule.obj
 0001:00136d60       ?pcmContactPlaneBox@Gu@physx@@YA_NAEBVPxGeometry@2@0AEBV?$PxTransformT@M@2@1AEBUNarrowPhaseParams@12@AEAUCache@12@AEAVPxContactBuffer@2@PEAVPxRenderOutput@2@@Z 0000000180137d60 f   GuPCMContactPlaneBox.obj
 0001:00137930       ?pcmContactPlaneCapsule@Gu@physx@@YA_NAEBVPxGeometry@2@0AEBV?$PxTransformT@M@2@1AEBUNarrowPhaseParams@12@AEAUCache@12@AEAVPxContactBuffer@2@PEAVPxRenderOutput@2@@Z 0000000180138930 f   GuPCMContactPlaneCapsule.obj
 0001:001380a0       ?pcmContactPlaneConvex@Gu@physx@@YA_NAEBVPxGeometry@2@0AEBV?$PxTransformT@M@2@1AEBUNarrowPhaseParams@12@AEAUCache@12@AEAVPxContactBuffer@2@PEAVPxRenderOutput@2@@Z 00000001801390a0 f   GuPCMContactPlaneConvex.obj
 0001:00138d10       ?pcmContactSphereBox@Gu@physx@@YA_NAEBVPxGeometry@2@0AEBV?$PxTransformT@M@2@1AEBUNarrowPhaseParams@12@AEAUCache@12@AEAVPxContactBuffer@2@PEAVPxRenderOutput@2@@Z 0000000180139d10 f   GuPCMContactSphereBox.obj
 0001:00139170       ?pcmContactSphereCapsule@Gu@physx@@YA_NAEBVPxGeometry@2@0AEBV?$PxTransformT@M@2@1AEBUNarrowPhaseParams@12@AEAUCache@12@AEAVPxContactBuffer@2@PEAVPxRenderOutput@2@@Z 000000018013a170 f   GuPCMContactSphereCapsule.obj
 0001:001395e0       ?pcmContactSphereConvex@Gu@physx@@YA_NAEBVPxGeometry@2@0AEBV?$PxTransformT@M@2@1AEBUNarrowPhaseParams@12@AEAUCache@12@AEAVPxContactBuffer@2@PEAVPxRenderOutput@2@@Z 000000018013a5e0 f   GuPCMContactSphereConvex.obj
 0001:0013a2a0       ??1?$PxArray@USortedTriangle@Gu@physx@@V?$PxInlineAllocator@$0IAA@V?$PxReflectionAllocator@USortedTriangle@Gu@physx@@@physx@@@3@@physx@@QEAA@XZ 000000018013b2a0 f i GuPCMContactSphereHeightField.obj
 0001:0013a310       ??_EPCMSphereVsHeightfieldContactGenerationCallback@physx@@UEAAPEAXI@Z 000000018013b310 f i GuPCMContactSphereHeightField.obj
 0001:0013a310       ??_GPCMSphereVsHeightfieldContactGenerationCallback@physx@@UEAAPEAXI@Z 000000018013b310 f i GuPCMContactSphereHeightField.obj
 0001:0013a360       ?pcmContactSphereHeightField@Gu@physx@@YA_NAEBVPxGeometry@2@0AEBV?$PxTransformT@M@2@1AEBUNarrowPhaseParams@12@AEAUCache@12@AEAVPxContactBuffer@2@PEAVPxRenderOutput@2@@Z 000000018013b360 f   GuPCMContactSphereHeightField.obj
 0001:0013ae10       ?reportTouchedTris@?$PCMHeightfieldContactGenerationCallback@UPCMSphereVsHeightfieldContactGenerationCallback@physx@@@Gu@physx@@UEAA_NIPEBI@Z 000000018013be10 f i GuPCMContactSphereHeightField.obj
 0001:0013b3c0       ??$PxSort@USortedTriangle@Gu@physx@@U?$PxLess@USortedTriangle@Gu@physx@@@3@V?$PxReflectionAllocator@USortedTriangle@Gu@physx@@@3@@physx@@YAXPEAUSortedTriangle@Gu@0@IAEBU?$PxLess@USortedTriangle@Gu@physx@@@0@AEBV?$PxReflectionAllocator@USortedTriangle@Gu@physx@@@0@I@Z 000000018013c3c0 f i GuPCMContactSphereMesh.obj
 0001:0013b8f0       ??$processTriangleCache@$0BA@VPCMSphereVsMeshContactGeneration@Gu@physx@@@PCMMeshContactGeneration@Gu@physx@@QEAA_NAEAU?$TriangleCache@$0BA@@12@@Z 000000018013c8f0 f i GuPCMContactSphereMesh.obj
 0001:0013bdc0       ?addToPatch@PCMSphereVsMeshContactGeneration@Gu@physx@@QEAAXAEBT__m128@@0T4@I@Z 000000018013cdc0 f   GuPCMContactSphereMesh.obj
 0001:0013c480       ?allocate@?$PxArray@IV?$PxInlineAllocator@$0PAA@V?$PxReflectionAllocator@I@physx@@@physx@@@physx@@IEAAPEAII@Z 000000018013d480 f i GuPCMContactSphereMesh.obj
 0001:0013c540       ?allocate@?$PxArray@USortedTriangle@Gu@physx@@V?$PxInlineAllocator@$0IAA@V?$PxReflectionAllocator@USortedTriangle@Gu@physx@@@physx@@@3@@physx@@IEAAPEAUSortedTriangle@Gu@2@I@Z 000000018013d540 f i GuPCMContactSphereMesh.obj
 0001:0013c600       ?generateLastContacts@PCMSphereVsMeshContactGeneration@Gu@physx@@QEAAXXZ 000000018013d600 f   GuPCMContactSphereMesh.obj
 0001:0013cc30       ?growAndPushBack@?$PxArray@USortedTriangle@Gu@physx@@V?$PxInlineAllocator@$0IAA@V?$PxReflectionAllocator@USortedTriangle@Gu@physx@@@physx@@@3@@physx@@IEAAAEAUSortedTriangle@Gu@2@AEBU342@@Z 000000018013dc30 f i GuPCMContactSphereMesh.obj
 0001:0013cd40       ?pcmContactSphereMesh@Gu@physx@@YA_NAEBVPxGeometry@2@0AEBV?$PxTransformT@M@2@1AEBUNarrowPhaseParams@12@AEAUCache@12@AEAVPxContactBuffer@2@PEAVPxRenderOutput@2@@Z 000000018013dd40 f   GuPCMContactSphereMesh.obj
 0001:0013e290       ?processTriangle@PCMSphereVsMeshContactGeneration@Gu@physx@@QEAA_NPEBV?$PxVec3T@M@3@IEPEBI@Z 000000018013f290 f   GuPCMContactSphereMesh.obj
 0001:0013e680       ?recreate@?$PxArray@IV?$PxInlineAllocator@$0PAA@V?$PxReflectionAllocator@I@physx@@@physx@@@physx@@IEAAXI@Z 000000018013f680 f i GuPCMContactSphereMesh.obj
 0001:0013e730       ?pcmContactSpherePlane@Gu@physx@@YA_NAEBVPxGeometry@2@0AEBV?$PxTransformT@M@2@1AEBUNarrowPhaseParams@12@AEAUCache@12@AEAVPxContactBuffer@2@PEAVPxRenderOutput@2@@Z 000000018013f730 f   GuPCMContactSpherePlane.obj
 0001:0013e8b0       ?pcmContactSphereSphere@Gu@physx@@YA_NAEBVPxGeometry@2@0AEBV?$PxTransformT@M@2@1AEBUNarrowPhaseParams@12@AEAUCache@12@AEAVPxContactBuffer@2@PEAVPxRenderOutput@2@@Z 000000018013f8b0 f   GuPCMContactSphereSphere.obj
 0001:0013f180       ?pcmContactGeometryCustomGeometry@Gu@physx@@YA_NAEBVPxGeometry@2@0AEBV?$PxTransformT@M@2@1AEBUNarrowPhaseParams@12@AEAUCache@12@AEAVPxContactBuffer@2@PEAVPxRenderOutput@2@@Z 0000000180140180 f   GuPCMContactCustomGeometry.obj
 0001:0013f230       ?getPCMConvexData@Gu@physx@@YAXAEBVConvexHullV@12@_NAEAUPolygonalData@12@@Z 0000000180140230 f   GuPCMShapeConvex.obj
 0001:0013f270       ?getPCMConvexData@Gu@physx@@YA_NAEBVPxConvexMeshGeometry@2@AEAVFastVertex2ShapeScaling@Cm@2@AEAVPxBounds3@2@AEAUPolygonalData@12@@Z 0000000180140270 f   GuPCMShapeConvex.obj
 0001:0013f7d0       ?getPolygonalData@PCMPolygonalBox@Gu@physx@@QEBAXPEIAUPolygonalData@23@@Z 00000001801407d0 f   GuPCMShapeConvex.obj
 0001:0013f850       ?generatePolyDataContactManifold@PCMConvexVsMeshContactGeneration@Gu@physx@@QEAA_NAEAVTriangleV@23@IIEPEAVMeshPersistentContact@23@AEAIAEBT__m128@@AEAT6@@Z 0000000180140850 f   GuPCMTriangleContactGen.obj
 0001:0013f970       ?generateTriangleFullContactManifold@PCMConvexVsMeshContactGeneration@Gu@physx@@QEAA_NAEAVTriangleV@23@IPEBIEAEBUPolygonalData@23@PEAV?$SupportLocalImpl@VTriangleV@Gu@physx@@@23@PEAVSupportLocal@23@PEAVMeshPersistentContact@23@AEAIAEBT__m128@@AEAT9@@Z 0000000180140970 f   GuPCMTriangleContactGen.obj
 0001:0013fea0       ?generateTriangleFullContactManifold@PCMConvexVsMeshContactGeneration@Gu@physx@@SA_NAEAVTriangleV@23@IEAEBUPolygonalData@23@PEAV?$SupportLocalImpl@VTriangleV@Gu@physx@@@23@PEAVSupportLocal@23@PEAVMeshPersistentContact@23@AEAIAEBT__m128@@AEAT9@PEAVPxRenderOutput@3@@Z 0000000180140ea0 f   GuPCMTriangleContactGen.obj
 0001:00141f20       ?addBatchManifoldContacts2@PersistentContactManifold@Gu@physx@@QEAAXPEBVPersistentContact@23@I@Z 0000000180142f20 f   GuPersistentContactManifold.obj
 0001:00141f90       ?addBatchManifoldContacts@PersistentContactManifold@Gu@physx@@QEAAXPEBVPersistentContact@23@IM@Z 0000000180142f90 f   GuPersistentContactManifold.obj
 0001:00142010       ?addBatchManifoldContactsCluster@PersistentContactManifold@Gu@physx@@QEAAXPEBVPersistentContact@23@I@Z 0000000180143010 f   GuPersistentContactManifold.obj
 0001:00142290       ?addManifoldContactPoints@MultiplePersistentContactManifold@Gu@physx@@QEAAXPEAVMeshPersistentContact@23@IPEAPEAUPCMContactPatch@23@IAEBT__m128@@2E@Z 0000000180143290 f   GuPersistentContactManifold.obj
 0001:00142680       ?addManifoldContactsToContactBuffer@MultiplePersistentContactManifold@Gu@physx@@QEAA_NAEAVPxContactBuffer@3@AEBVPxTransformV@aos@3@1AEBT__m128@@@Z 0000000180143680 f   GuPersistentContactManifold.obj
 0001:00142930       ?addManifoldContactsToContactBuffer@MultiplePersistentContactManifold@Gu@physx@@QEAA_NAEAVPxContactBuffer@3@AEBVPxTransformV@aos@3@@Z 0000000180143930 f   GuPersistentContactManifold.obj
 0001:00142bb0       ?addManifoldContactsToContactBuffer@PersistentContactManifold@Gu@physx@@QEAAXAEAVPxContactBuffer@3@AEBT__m128@@1AEBVPxTransformV@aos@3@11@Z 0000000180143bb0 f   GuPersistentContactManifold.obj
 0001:00142d40       ?addManifoldContactsToContactBuffer@PersistentContactManifold@Gu@physx@@QEAAXAEAVPxContactBuffer@3@AEBT__m128@@AEBVPxMatTransformV@aos@3@@Z 0000000180143d40 f   GuPersistentContactManifold.obj
 0001:00142df0       ?addManifoldContactsToContactBuffer@PersistentContactManifold@Gu@physx@@QEAAXAEAVPxContactBuffer@3@AEBT__m128@@AEBVPxTransformV@aos@3@1@Z 0000000180143df0 f   GuPersistentContactManifold.obj
 0001:00142f50       ?addManifoldPoint2@PersistentContactManifold@Gu@physx@@QEAAIAEBT__m128@@000@Z 0000000180143f50 f   GuPersistentContactManifold.obj
 0001:00143080       ?addManifoldPoint@Gu@physx@@YAXPEAVPersistentContact@12@AEAVPersistentContactManifold@12@AEAUGjkOutput@12@AEBVPxMatTransformV@aos@2@T__m128@@@Z 0000000180144080 f   GuPersistentContactManifold.obj
 0001:00143230       ?addManifoldPoint@PersistentContactManifold@Gu@physx@@QEAAIAEBT__m128@@000@Z 0000000180144230 f   GuPersistentContactManifold.obj
 0001:00143670       ?drawLine@MultiplePersistentContactManifold@Gu@physx@@SAXAEAVPxRenderOutput@3@AEBT__m128@@1I@Z 0000000180144670 f   GuPersistentContactManifold.obj
 0001:00143720       ?drawLine@MultiplePersistentContactManifold@Gu@physx@@SAXAEAVPxRenderOutput@3@V?$PxVec3T@M@3@1I@Z 0000000180144720 f   GuPersistentContactManifold.obj
 0001:00143790       ?drawManifold@MultiplePersistentContactManifold@Gu@physx@@QEAAXAEAVPxRenderOutput@3@AEBVPxTransformV@aos@3@1@Z 0000000180144790 f   GuPersistentContactManifold.obj
 0001:00143810       ?drawManifold@SinglePersistentContactManifold@Gu@physx@@QEAAXAEAVPxRenderOutput@3@AEBVPxTransformV@aos@3@1@Z 0000000180144810 f   GuPersistentContactManifold.obj
 0001:00143e40       ?drawPoint@MultiplePersistentContactManifold@Gu@physx@@SAXAEAVPxRenderOutput@3@AEBT__m128@@MI@Z 0000000180144e40 f   GuPersistentContactManifold.obj
 0001:00144050       ?drawPolygon@MultiplePersistentContactManifold@Gu@physx@@SAXAEAVPxRenderOutput@3@AEBVPxTransformV@aos@3@PEAT__m128@@II@Z 0000000180145050 f   GuPersistentContactManifold.obj
 0001:001442d0       ?findRotationMatrixFromZAxis@Gu@physx@@YA?AUMat33V@aos@2@AEBT__m128@@@Z 00000001801452d0 f   GuPersistentContactManifold.obj
 0001:00144550       ?fromBuffer@MultiplePersistentContactManifold@Gu@physx@@QEAAXPEIAE@Z 0000000180145550 f   GuPersistentContactManifold.obj
 0001:001446a0       ?reduceBatchContacts2@PersistentContactManifold@Gu@physx@@QEAAXPEBVPersistentContact@23@I@Z 00000001801456a0 f   GuPersistentContactManifold.obj
 0001:001448a0       ?reduceBatchContacts@PersistentContactManifold@Gu@physx@@QEAAXPEBVPersistentContact@23@IM@Z 00000001801458a0 f   GuPersistentContactManifold.obj
 0001:00144d60       ?reduceBatchContactsCapsule@SinglePersistentContactManifold@Gu@physx@@QEAA?AT__m128@@PEBVMeshPersistentContact@23@IAEAUPCMContactPatch@23@@Z 0000000180145d60 f   GuPersistentContactManifold.obj
 0001:00144ff0       ?reduceBatchContactsCluster@PersistentContactManifold@Gu@physx@@QEAAXPEBVPersistentContact@23@I@Z 0000000180145ff0 f   GuPersistentContactManifold.obj
 0001:00145480       ?reduceBatchContactsConvex@SinglePersistentContactManifold@Gu@physx@@QEAA?AT__m128@@PEBVMeshPersistentContact@23@IAEAUPCMContactPatch@23@@Z 0000000180146480 f   GuPersistentContactManifold.obj
 0001:00145a70       ?reduceContacts@SinglePersistentContactManifold@Gu@physx@@SAIPEAVMeshPersistentContact@23@I@Z 0000000180146a70 f   GuPersistentContactManifold.obj
 0001:00145ff0       ?reduceContactsForPCM@PersistentContactManifold@Gu@physx@@QEAAIAEBT__m128@@00@Z 0000000180146ff0 f   GuPersistentContactManifold.obj
 0001:00146590       ?refreshContactPoints@SinglePersistentContactManifold@Gu@physx@@QEAA?AT__m128@@AEBVPxMatTransformV@aos@3@AEBT4@1@Z 0000000180147590 f   GuPersistentContactManifold.obj
 0001:001466e0       ?replaceManifoldPoint@PersistentContactManifold@Gu@physx@@QEAA_NAEBT__m128@@000@Z 00000001801476e0 f   GuPersistentContactManifold.obj
 0001:001467a0       ?contains@Gu@physx@@YA_NPEAT__m128@@IAEBT3@11@Z 00000001801477a0 f   GuPCMContactGenUtil.obj
 0001:00146960       ?getPolygonIndex@Gu@physx@@YAHAEBUPolygonalData@12@PEAVSupportLocal@12@AEBT__m128@@AEAH@Z 0000000180147960 f   GuPCMContactGenUtil.obj
 0001:00146bb0       ?getWitnessPolygonIndex@Gu@physx@@YAIAEBUPolygonalData@12@PEAVSupportLocal@12@AEBT__m128@@2M@Z 0000000180147bb0 f   GuPCMContactGenUtil.obj
 0001:00147100       ?sweepBoxBox@Gu@physx@@YA_NAEBVBox@12@0AEBV?$PxVec3T@M@2@MV?$PxFlags@W4Enum@PxHitFlag@physx@@G@2@AEAUPxGeomSweepHit@2@@Z 0000000180148100 f   GuSweepBoxBox.obj
 0001:00148740       ?sweepBoxSphere@Gu@physx@@YA_NAEBVBox@12@MAEBV?$PxVec3T@M@2@1MAEAMAEAV42@V?$PxFlags@W4Enum@PxHitFlag@physx@@G@2@@Z 0000000180149740 f   GuSweepBoxSphere.obj
 0001:00149400       ?sweepBoxTriangle@Gu@physx@@YA_NAEBVPxTriangle@2@AEBVPxBounds3@2@AEBV?$PxVec3T@M@2@2AEAV52@3AEAM_N@Z 000000018014a400 f   GuSweepBoxTriangle_FeatureBased.obj
 0001:0014ab20       ?triBoxSweepTestBoxSpace@Gu@physx@@YAHAEBVPxTriangle@2@AEBV?$PxVec3T@M@2@11MAEAM_N@Z 000000018014bb20 f   GuSweepBoxTriangle_SAT.obj
 0001:0014c420       ?sweepCapsuleBox@Gu@physx@@YA_NAEBVCapsule@12@AEBV?$PxTransformT@M@2@AEBV?$PxVec3T@M@2@2MAEAV52@AEAM3V?$PxFlags@W4Enum@PxHitFlag@physx@@G@2@@Z 000000018014d420 f   GuSweepCapsuleBox.obj
 0001:0014c780       ?distancePointSegmentSquared@Gu@physx@@YAMAEBVSegment@12@AEBV?$PxVec3T@M@2@PEAM@Z 000000018014d780 f i GuSweepCapsuleCapsule.obj
 0001:0014cb00       ?sweepCapsuleCapsule@Gu@physx@@YA_NAEBVCapsule@12@0AEBV?$PxVec3T@M@2@MAEAMAEAV42@3IAEAG@Z 000000018014db00 f   GuSweepCapsuleCapsule.obj
 0001:0014d910       ?sweepCapsuleTriangles_Precise@Gu@physx@@YA_NIPEIBVPxTriangle@2@AEBVCapsule@12@AEBV?$PxVec3T@M@2@MPEIBIAEAUPxGeomSweepHit@2@AEAV52@V?$PxFlags@W4Enum@PxHitFlag@physx@@G@2@_NPEBVBoxPadded@12@@Z 000000018014e910 f   GuSweepCapsuleTriangle.obj
 0001:0014fb20       ?sweepSphereCapsule@Gu@physx@@YA_NAEBVSphere@12@AEBVCapsule@12@AEBV?$PxVec3T@M@2@MAEAMAEAV52@4V?$PxFlags@W4Enum@PxHitFlag@physx@@G@2@@Z 0000000180150b20 f   GuSweepSphereCapsule.obj
 0001:001501c0       ?sweepSphereSphere@Gu@physx@@YA_NAEBV?$PxVec3T@M@2@M0M0AEAMAEAV32@@Z 00000001801511c0 f   GuSweepSphereSphere.obj
 0001:00150430       ?sweepSphereTriangles@Gu@physx@@YA_NIPEIBVPxTriangle@2@AEBV?$PxVec3T@M@2@M1MPEIBIAEAUPxGeomSweepHit@2@AEAV42@_N555@Z 0000000180151430 f   GuSweepSphereTriangle.obj
 0001:00150d00       ?sweepSphereVSQuad@Gu@physx@@YA_NPEIBV?$PxVec3T@M@2@AEBV32@1M1AEAM@Z 0000000180151d00 f   GuSweepSphereTriangle.obj
 0001:00151ce0       ?sweepSphereVSTri@Gu@physx@@YA_NPEIBV?$PxVec3T@M@2@AEBV32@1M1AEAMAEA_N_N@Z 0000000180152ce0 f   GuSweepSphereTriangle.obj
 0001:00152a00       ??$gjk@U?$LocalConvex@VTriangleV@Gu@physx@@@Gu@physx@@U?$LocalConvex@VBoxV@Gu@physx@@@23@@Gu@physx@@YA?AW4GjkStatus@01@AEBU?$LocalConvex@VTriangleV@Gu@physx@@@01@AEBU?$LocalConvex@VBoxV@Gu@physx@@@01@AEBT__m128@@2AEAT5@333@Z 0000000180153a00 f i GuSweepTriangleUtils.obj
 0001:001536e0       ?computeBoxTriImpactData@Gu@physx@@YAXAEAV?$PxVec3T@M@2@0AEBV32@1AEBVPxTriangle@2@M@Z 00000001801546e0 f   GuSweepTriangleUtils.obj
 0001:00153970       ?computeEdgeEdgeNormal@Gu@physx@@YAXAEAV?$PxVec3T@M@2@AEBV32@1111M@Z 0000000180154970 f   GuSweepTriangleUtils.obj
 0001:00153c30       ?computeSphereTriImpactData@Gu@physx@@YAXAEAV?$PxVec3T@M@2@0AEBV32@1MAEBVPxTriangle@2@@Z 0000000180154c30 f   GuSweepTriangleUtils.obj
 0001:00154110       ??0ShapeData@Gu@physx@@QEAA@AEBVPxGeometry@2@AEBV?$PxTransformT@M@2@M@Z 0000000180155110 f   GuBounds.obj
 0001:00154680       ?computeBounds@Gu@physx@@YAXAEAVPxBounds3@2@AEBVPxGeometry@2@AEBV?$PxTransformT@M@2@MM@Z 0000000180155680 f   GuBounds.obj
 0001:00155350       ?computeBoundsAroundVertices@Gu@physx@@YAXAEAVPxBounds3@2@IPEIBV?$PxVec3T@M@2@@Z 0000000180156350 f   GuBounds.obj
 0001:00155400       ?computeGlobalBox@Gu@physx@@YAXAEAVPxBounds3@2@IPEIBV32@PEIBI@Z 0000000180156400 f   GuBounds.obj
 0001:00155490       ?computeLocalBoundsAndGeomEpsilon@Gu@physx@@YAXPEBV?$PxVec3T@M@2@IAEAVPxBounds3@2@AEAM@Z 0000000180156490 f   GuBounds.obj
 0001:001566c0       ??$?_UV?$PxReflectionAllocator@UBVHNode@Gu@physx@@@physx@@@PxUserAllocated@physx@@SAPEAX_KV?$PxReflectionAllocator@UBVHNode@Gu@physx@@@1@PEBDH@Z 00000001801576c0 f i GuAABBTree.obj
 0001:00156760       ??$?_UV?$PxReflectionAllocator@VAABBTreeBuildNode@Gu@physx@@@physx@@@PxUserAllocated@physx@@SAPEAX_KV?$PxReflectionAllocator@VAABBTreeBuildNode@Gu@physx@@@1@PEBDH@Z 0000000180157760 f i GuAABBTree.obj
 0001:00156990       ??0AABBTree@Gu@physx@@QEAA@XZ 0000000180157990 f   GuAABBTree.obj
 0001:001569c0       ??0BVHPartialRefitData@Gu@physx@@QEAA@XZ 00000001801579c0 f   GuAABBTree.obj
 0001:001569f0       ??0NodeAllocator@Gu@physx@@QEAA@XZ 00000001801579f0 f   GuAABBTree.obj
 0001:00156a10       ??1AABBTree@Gu@physx@@QEAA@XZ 0000000180157a10 f   GuAABBTree.obj
 0001:00156a30       ??1BVHPartialRefitData@Gu@physx@@QEAA@XZ 0000000180157a30 f   GuAABBTree.obj
 0001:00156ad0       ??1NodeAllocator@Gu@physx@@QEAA@XZ 0000000180157ad0 f   GuAABBTree.obj
 0001:00156b20       ?_buildHierarchy@AABBTreeBuildNode@Gu@physx@@QEAAXAEBVAABBTreeBuildParams@23@AEAUBuildStats@23@AEAVNodeAllocator@23@QEAI@Z 0000000180157b20 f   GuAABBTree.obj
 0001:00156bb0       ?_buildHierarchySAH@AABBTreeBuildNode@Gu@physx@@QEAAXAEBVAABBTreeBuildParams@23@AEAUSAH_Buffers@23@AEAUBuildStats@23@AEAVNodeAllocator@23@QEAI@Z 0000000180157bb0 f   GuAABBTree.obj
 0001:00156c60       ?addRuntimeChilds@AABBTree@Gu@physx@@AEAAXAEAIAEBVAABBTreeMergeData@23@@Z 0000000180157c60 f   GuAABBTree.obj
 0001:00156d60       ?build@AABBTree@Gu@physx@@QEAA_NAEBVAABBTreeBuildParams@23@AEAVNodeAllocator@23@@Z 0000000180157d60 f   GuAABBTree.obj
 0001:00156f80       ?buildAABBTree@Gu@physx@@YAPEAIAEBVAABBTreeBuildParams@12@AEAVNodeAllocator@12@AEAUBuildStats@12@@Z 0000000180157f80 f   GuAABBTree.obj
 0001:00157020       ?buildAABBTree@Gu@physx@@YAXIAEBVAABBTreeBounds@12@AEAV?$PxArray@UBVHNode@Gu@physx@@V?$PxReflectionAllocator@UBVHNode@Gu@physx@@@3@@2@@Z 0000000180158020 f   GuAABBTree.obj
 0001:001573f0       ?buildEnd@AABBTree@Gu@physx@@AEAAXAEBVAABBTreeBuildParams@23@AEAVNodeAllocator@23@AEBUBuildStats@23@@Z 00000001801583f0 f   GuAABBTree.obj
 0001:001575d0       ?createUpdateMap@BVHPartialRefitData@Gu@physx@@QEAAXI@Z 00000001801585d0 f   GuAABBTree.obj
 0001:001576f0       ?flattenTree@Gu@physx@@YAXAEBVNodeAllocator@12@PEAUBVHNode@12@PEBI@Z 00000001801586f0 f   GuAABBTree.obj
 0001:001578e0       ?fullRefit@BVHCoreData@Gu@physx@@QEAAXPEBVPxBounds3@3@@Z 00000001801588e0 f   GuAABBTree.obj
 0001:00157aa0       ?getBiNode@NodeAllocator@Gu@physx@@QEAAPEAVAABBTreeBuildNode@23@XZ 0000000180158aa0 f   GuAABBTree.obj
 0001:00157bd0       ?getParentIndices@BVHPartialRefitData@Gu@physx@@IEAAPEAIXZ 0000000180158bd0 f   GuAABBTree.obj
 0001:00157c60       ?growAndPushBack@?$PxArray@PEAVAABBTreeBuildNode@Gu@physx@@V?$PxReflectionAllocator@PEAVAABBTreeBuildNode@Gu@physx@@@3@@physx@@IEAAAEAPEAVAABBTreeBuildNode@Gu@2@AEBQEAV342@@Z 0000000180158c60 f i GuAABBTree.obj
 0001:00157d80       ?growAndPushBack@?$PxArray@USlab@NodeAllocator@Gu@physx@@V?$PxReflectionAllocator@USlab@NodeAllocator@Gu@physx@@@4@@physx@@IEAAAEAUSlab@NodeAllocator@Gu@2@AEBU3452@@Z 0000000180158d80 f i GuAABBTree.obj
 0001:00157e40       ?init@AABBTreeBounds@Gu@physx@@QEAAXIPEBVPxBounds3@3@@Z 0000000180158e40 f   GuAABBTree.obj
 0001:00157f00       ?init@NodeAllocator@Gu@physx@@QEAAXII@Z 0000000180158f00 f   GuAABBTree.obj
 0001:001581f0       ?initTree@AABBTree@Gu@physx@@QEAAXAEBVAABBTreeMergeData@23@@Z 00000001801591f0 f   GuAABBTree.obj
 0001:001582e0       ?markNodeForRefit@BVHPartialRefitData@Gu@physx@@QEAAXI@Z 00000001801592e0 f   GuAABBTree.obj
 0001:001583f0       ?mergeRuntimeLeaf@AABBTree@Gu@physx@@AEAAXAEAUBVHNode@23@AEBVAABBTreeMergeData@23@I@Z 00000001801593f0 f   GuAABBTree.obj
 0001:001585f0       ?mergeRuntimeNode@AABBTree@Gu@physx@@AEAAXAEAUBVHNode@23@AEBVAABBTreeMergeData@23@I@Z 00000001801595f0 f   GuAABBTree.obj
 0001:001588d0       ?mergeTree@AABBTree@Gu@physx@@QEAAXAEBVAABBTreeMergeData@23@@Z 00000001801598d0 f   GuAABBTree.obj
 0001:00158bb0       ?progressiveBuild@AABBTree@Gu@physx@@QEAAIAEBVAABBTreeBuildParams@23@AEAVNodeAllocator@23@AEAUBuildStats@23@II@Z 0000000180159bb0 f   GuAABBTree.obj
 0001:00158e60       ?recreate@?$PxArray@UBVHNode@Gu@physx@@V?$PxReflectionAllocator@UBVHNode@Gu@physx@@@3@@physx@@IEAAXI@Z 0000000180159e60 f i GuAABBTree.obj
 0001:001590b0       ?refitMarkedNodes@BVHPartialRefitData@Gu@physx@@QEAAXPEBVPxBounds3@3@@Z 000000018015a0b0 f   GuAABBTree.obj
 0001:00159220       ?release@AABBTree@Gu@physx@@QEAAX_N@Z 000000018015a220 f   GuAABBTree.obj
 0001:00159300       ?release@AABBTreeBounds@Gu@physx@@QEAAXXZ 000000018015a300 f   GuAABBTree.obj
 0001:00159350       ?release@NodeAllocator@Gu@physx@@QEAAXXZ 000000018015a350 f   GuAABBTree.obj
 0001:00159400       ?releasePartialRefitData@BVHPartialRefitData@Gu@physx@@QEAAX_N@Z 000000018015a400 f   GuAABBTree.obj
 0001:00159490       ?reshuffle@Gu@physx@@YAIIQEIAIPEIBV?$PxVec3T@M@2@MI@Z 000000018015a490 f   GuAABBTree.obj
 0001:001595d0       ?resize@?$PxArray@UBVHNode@Gu@physx@@V?$PxReflectionAllocator@UBVHNode@Gu@physx@@@3@@physx@@QEAAXIAEBUBVHNode@Gu@2@@Z 000000018015a5d0 f i GuAABBTree.obj
 0001:00159750       ?resize@?$PxArray@USlab@NodeAllocator@Gu@physx@@V?$PxReflectionAllocator@USlab@NodeAllocator@Gu@physx@@@4@@physx@@QEAAXIAEBUSlab@NodeAllocator@Gu@2@@Z 000000018015a750 f i GuAABBTree.obj
 0001:001597d0       ?resize@AABBTreeBounds@Gu@physx@@QEAAXII@Z 000000018015a7d0 f   GuAABBTree.obj
 0001:00159870       ?shiftIndices@AABBTree@Gu@physx@@QEAAXI@Z 000000018015a870 f   GuAABBTree.obj
 0001:00159890       ?shiftOrigin@AABBTree@Gu@physx@@QEAAXAEBV?$PxVec3T@M@3@@Z 000000018015a890 f   GuAABBTree.obj
 0001:00159c00       ?subdivide@AABBTreeBuildNode@Gu@physx@@QEAAXAEBVAABBTreeBuildParams@23@AEAUBuildStats@23@AEAVNodeAllocator@23@QEAI@Z 000000018015ac00 f   GuAABBTree.obj
 0001:00159e00       ?subdivideSAH@AABBTreeBuildNode@Gu@physx@@QEAAXAEBVAABBTreeBuildParams@23@AEAUSAH_Buffers@23@AEAUBuildStats@23@AEAVNodeAllocator@23@QEAI@Z 000000018015ae00 f   GuAABBTree.obj
 0001:00159ef0       ?traverseRuntimeNode@AABBTree@Gu@physx@@AEAAXAEAUBVHNode@23@AEBVAABBTreeMergeData@23@I@Z 000000018015aef0 f   GuAABBTree.obj
 0001:0015a030       ?initMap@AABBTreeUpdateMap@Gu@physx@@QEAAXIAEBVAABBTree@23@@Z 000000018015b030 f   GuAABBTreeUpdateMap.obj
 0001:0015a1c0       ?invalidate@AABBTreeUpdateMap@Gu@physx@@QEAAXIIAEAVAABBTree@23@@Z 000000018015b1c0 f   GuAABBTreeUpdateMap.obj
 0001:0015a460       ?visualizeTree@@YAXAEAVPxRenderOutput@physx@@IPEBVAABBTree@Gu@2@@Z 000000018015b460 f   GuSqInternal.obj
 0001:0015a4d0       ?visualizeTree@@YAXAEAVPxRenderOutput@physx@@IPEBVBVH@Gu@2@@Z 000000018015b4d0 f   GuSqInternal.obj
 0001:0015a540       ?visualizeTree@@YAXAEAVPxRenderOutput@physx@@IPEBVIncrementalAABBTree@Gu@2@PEAVDebugVizCallback@2@@Z 000000018015b540 f   GuSqInternal.obj
 0001:0015a5c0       ??$PxSort@PEAXU?$PxLess@PEAX@physx@@V?$PxReflectionAllocator@UAABBTreeIndices@Gu@physx@@@2@@physx@@YAXPEAPEAXIAEBU?$PxLess@PEAX@0@AEBV?$PxReflectionAllocator@UAABBTreeIndices@Gu@physx@@@0@I@Z 000000018015b5c0 f i GuIncrementalAABBTree.obj
 0001:0015aa30       ??$PxSort@PEAXU?$PxLess@PEAX@physx@@V?$PxReflectionAllocator@UIncrementalAABBTreeNodePair@Gu@physx@@@2@@physx@@YAXPEAPEAXIAEBU?$PxLess@PEAX@0@AEBV?$PxReflectionAllocator@UIncrementalAABBTreeNodePair@Gu@physx@@@0@I@Z 000000018015ba30 f i GuIncrementalAABBTree.obj
 0001:0015aea0       ??0IncrementalAABBTree@Gu@physx@@QEAA@XZ 000000018015bea0 f   GuIncrementalAABBTree.obj
 0001:0015af20       ??1?$PxPoolBase@UAABBTreeIndices@Gu@physx@@V?$PxReflectionAllocator@UAABBTreeIndices@Gu@physx@@@3@@physx@@QEAA@XZ 000000018015bf20 f i GuIncrementalAABBTree.obj
 0001:0015b080       ??1?$PxPoolBase@UIncrementalAABBTreeNodePair@Gu@physx@@V?$PxReflectionAllocator@UIncrementalAABBTreeNodePair@Gu@physx@@@3@@physx@@QEAA@XZ 000000018015c080 f i GuIncrementalAABBTree.obj
 0001:0015b1e0       ??1IncrementalAABBTree@Gu@physx@@QEAA@XZ 000000018015c1e0 f   GuIncrementalAABBTree.obj
 0001:0015b220       ?allocate@?$PxArray@PEAXV?$PxReflectionAllocator@UAABBTreeIndices@Gu@physx@@@physx@@@physx@@IEAAPEAPEAXI@Z 000000018015c220 f i GuIncrementalAABBTree.obj
 0001:0015b2c0       ?allocate@?$PxArray@PEAXV?$PxReflectionAllocator@UIncrementalAABBTreeNodePair@Gu@physx@@@physx@@@physx@@IEAAPEAPEAXI@Z 000000018015c2c0 f i GuIncrementalAABBTree.obj
 0001:0015b360       ?allocate@?$PxPoolBase@UAABBTreeIndices@Gu@physx@@V?$PxReflectionAllocator@UAABBTreeIndices@Gu@physx@@@3@@physx@@QEAAPEAUAABBTreeIndices@Gu@2@XZ 000000018015c360 f i GuIncrementalAABBTree.obj
 0001:0015b460       ?allocate@?$PxPoolBase@UIncrementalAABBTreeNodePair@Gu@physx@@V?$PxReflectionAllocator@UIncrementalAABBTreeNodePair@Gu@physx@@@3@@physx@@QEAAPEAUIncrementalAABBTreeNodePair@Gu@2@XZ 000000018015c460 f i GuIncrementalAABBTree.obj
 0001:0015b560       ?build@IncrementalAABBTree@Gu@physx@@QEAA_NAEBVAABBTreeBuildParams@23@AEAV?$PxArray@PEAVIncrementalAABBTreeNode@Gu@physx@@V?$PxReflectionAllocator@PEAVIncrementalAABBTreeNode@Gu@physx@@@3@@3@@Z 000000018015c560 f   GuIncrementalAABBTree.obj
 0001:0015b740       ?clone@IncrementalAABBTree@Gu@physx@@AEAAXAEAV?$PxArray@PEAVIncrementalAABBTreeNode@Gu@physx@@V?$PxReflectionAllocator@PEAVIncrementalAABBTreeNode@Gu@physx@@@3@@3@PEBIPEAPEAVIncrementalAABBTreeNode@23@@Z 000000018015c740 f   GuIncrementalAABBTree.obj
 0001:0015bc40       ?copy@IncrementalAABBTree@Gu@physx@@QEAAXAEBVBVH@23@AEAV?$PxArray@PEAVIncrementalAABBTreeNode@Gu@physx@@V?$PxReflectionAllocator@PEAVIncrementalAABBTreeNode@Gu@physx@@@3@@3@@Z 000000018015cc40 f   GuIncrementalAABBTree.obj
 0001:0015bcf0       ?copyNode@IncrementalAABBTree@Gu@physx@@AEAAXAEAVIncrementalAABBTreeNode@23@AEBUBVHNode@23@PEBU523@PEAV423@PEBIAEAV?$PxArray@PEAVIncrementalAABBTreeNode@Gu@physx@@V?$PxReflectionAllocator@PEAVIncrementalAABBTreeNode@Gu@physx@@@3@@3@@Z 000000018015ccf0 f   GuIncrementalAABBTree.obj
 0001:0015beb0       ?fixupTreeIndices@IncrementalAABBTree@Gu@physx@@QEAAXPEAVIncrementalAABBTreeNode@23@II@Z 000000018015ceb0 f   GuIncrementalAABBTree.obj
 0001:0015bee0       ?getTreeLeafDepth@IncrementalAABBTree@Gu@physx@@QEAAIPEAVIncrementalAABBTreeNode@23@@Z 000000018015cee0 f   GuIncrementalAABBTree.obj
 0001:0015bf00       ?growAndPushBack@?$PxArray@PEAVIncrementalAABBTreeNode@Gu@physx@@V?$PxReflectionAllocator@PEAVIncrementalAABBTreeNode@Gu@physx@@@3@@physx@@IEAAAEAPEAVIncrementalAABBTreeNode@Gu@2@AEBQEAV342@@Z 000000018015cf00 f i GuIncrementalAABBTree.obj
 0001:0015c020       ?growAndPushBack@?$PxArray@PEAXV?$PxReflectionAllocator@UAABBTreeIndices@Gu@physx@@@physx@@@physx@@IEAAAEAPEAXAEBQEAX@Z 000000018015d020 f i GuIncrementalAABBTree.obj
 0001:0015c0e0       ?growAndPushBack@?$PxArray@PEAXV?$PxReflectionAllocator@UIncrementalAABBTreeNodePair@Gu@physx@@@physx@@@physx@@IEAAAEAPEAXAEBQEAX@Z 000000018015d0e0 f i GuIncrementalAABBTree.obj
 0001:0015c1a0       ?hierarchyCheck@IncrementalAABBTree@Gu@physx@@QEAAXIPEBVPxBounds3@3@@Z 000000018015d1a0 f   GuIncrementalAABBTree.obj
 0001:0015c2f0       ?hierarchyCheck@IncrementalAABBTree@Gu@physx@@QEAAXPEBVPxBounds3@3@@Z 000000018015d2f0 f   GuIncrementalAABBTree.obj
 0001:0015c460       ?insert@IncrementalAABBTree@Gu@physx@@QEAAPEAVIncrementalAABBTreeNode@23@IPEBVPxBounds3@3@AEAV?$PxArray@PEAVIncrementalAABBTreeNode@Gu@physx@@V?$PxReflectionAllocator@PEAVIncrementalAABBTreeNode@Gu@physx@@@3@@3@@Z 000000018015d460 f   GuIncrementalAABBTree.obj
 0001:0015cb40       ?recreate@?$PxArray@PEAXV?$PxReflectionAllocator@UAABBTreeIndices@Gu@physx@@@physx@@@physx@@IEAAXI@Z 000000018015db40 f i GuIncrementalAABBTree.obj
 0001:0015cbe0       ?recreate@?$PxArray@PEAXV?$PxReflectionAllocator@UIncrementalAABBTreeNodePair@Gu@physx@@@physx@@@physx@@IEAAXI@Z 000000018015dbe0 f i GuIncrementalAABBTree.obj
 0001:0015cc80       ?release@IncrementalAABBTree@Gu@physx@@QEAAXXZ 000000018015dc80 f   GuIncrementalAABBTree.obj
 0001:0015ccb0       ?releaseNode@IncrementalAABBTree@Gu@physx@@AEAAXPEAVIncrementalAABBTreeNode@23@@Z 000000018015dcb0 f   GuIncrementalAABBTree.obj
 0001:0015cd40       ?remove@IncrementalAABBTree@Gu@physx@@QEAAPEAVIncrementalAABBTreeNode@23@PEAV423@IPEBVPxBounds3@3@@Z 000000018015dd40 f   GuIncrementalAABBTree.obj
 0001:0015d060       ?rotateTree@IncrementalAABBTree@Gu@physx@@AEAAXPEAVIncrementalAABBTreeNode@23@AEAV?$PxArray@PEAVIncrementalAABBTreeNode@Gu@physx@@V?$PxReflectionAllocator@PEAVIncrementalAABBTreeNode@Gu@physx@@@3@@3@IPEBVPxBounds3@3@_N@Z 000000018015e060 f   GuIncrementalAABBTree.obj
 0001:0015d9c0       ?shiftOrigin@IncrementalAABBTree@Gu@physx@@QEAAXAEBV?$PxVec3T@M@3@@Z 000000018015e9c0 f   GuIncrementalAABBTree.obj
 0001:0015da20       ?splitLeafNode@IncrementalAABBTree@Gu@physx@@AEAAPEAVIncrementalAABBTreeNode@23@PEAV423@IAEBT__m128@@1PEBVPxBounds3@3@@Z 000000018015ea20 f   GuIncrementalAABBTree.obj
 0001:0015dd10       ?update@IncrementalAABBTree@Gu@physx@@QEAAPEAVIncrementalAABBTreeNode@23@PEAV423@IPEBVPxBounds3@3@AEAV?$PxArray@PEAVIncrementalAABBTreeNode@Gu@physx@@V?$PxReflectionAllocator@PEAVIncrementalAABBTreeNode@Gu@physx@@@3@@3@@Z 000000018015ed10 f   GuIncrementalAABBTree.obj
 0001:0015ddd0       ?updateFast@IncrementalAABBTree@Gu@physx@@QEAAPEAVIncrementalAABBTreeNode@23@PEAV423@IPEBVPxBounds3@3@AEAV?$PxArray@PEAVIncrementalAABBTreeNode@Gu@physx@@V?$PxReflectionAllocator@PEAVIncrementalAABBTreeNode@Gu@physx@@@3@@3@@Z 000000018015edd0 f   GuIncrementalAABBTree.obj
 0001:0015dff0       ??0SAH_Buffers@Gu@physx@@QEAA@I@Z 000000018015eff0 f   GuSAH.obj
 0001:0015e100       ??1SAH_Buffers@Gu@physx@@QEAA@XZ 000000018015f100 f   GuSAH.obj
 0001:0015e1c0       ?split@SAH_Buffers@Gu@physx@@QEAA_NAEAIIPEIBIPEIBVPxBounds3@3@PEIBV?$PxVec3T@M@3@@Z 000000018015f1c0 f   GuSAH.obj
 0001:0015e890       ??0BVH@Gu@physx@@QEAA@AEBUPxBVHInternalData@2@@Z 000000018015f890 f   GuBVH.obj
 0001:0015e950       ??0BVH@Gu@physx@@QEAA@PEAVMeshFactory@12@@Z 000000018015f950 f   GuBVH.obj
 0001:0015e9c0       ??0BVH@Gu@physx@@QEAA@PEAVMeshFactory@12@AEAVBVHData@12@@Z 000000018015f9c0 f   GuBVH.obj
 0001:0015ea70       ??1BVHData@Gu@physx@@QEAA@XZ 000000018015fa70 f i GuBVH.obj
 0001:0016425c       ??_EBVH@Gu@physx@@WBA@EAAPEAXI@Z 000000018016525c f i GuBVH.obj
 0001:00164270       ??_EBVH@Gu@physx@@UEAAPEAXI@Z 0000000180165270 f i GuBVH.obj
 0001:00164270       ??_GBVH@Gu@physx@@UEAAPEAXI@Z 0000000180165270 f i GuBVH.obj
 0001:00164300       ??_ERefCountable@Cm@physx@@UEAAPEAXI@Z 0000000180165300 f i GuBVH.obj
 0001:00164300       ??_GRefCountable@Cm@physx@@UEAAPEAXI@Z 0000000180165300 f i GuBVH.obj
 0001:00164530       ?allocate@?$PxArray@PEBUBVHNode@Gu@physx@@V?$PxInlineAllocator@$0IAA@V?$PxReflectionAllocator@PEBUBVHNode@Gu@physx@@@physx@@@3@@physx@@IEAAPEAPEBUBVHNode@Gu@2@I@Z 0000000180165530 f i GuBVH.obj
 0001:001645f0       ?build@BVHData@Gu@physx@@QEAA_NIPEBXIMIW4BVHBuildStrategy@23@@Z 00000001801655f0 f   GuBVH.obj
 0001:001649e0       ?cull@BVH@Gu@physx@@UEBA_NIPEBVPxPlane@3@AEAUOverlapCallback@PxBVH@3@V?$PxFlags@W4Enum@PxGeometryQueryFlag@physx@@I@3@@Z 00000001801659e0 f   GuBVH.obj
 0001:00165310       ?getConcreteTypeName@PxBVH@physx@@UEBAPEBDXZ 0000000180166310 f i GuBVH.obj
 0001:00165320       ?init@BVH@Gu@physx@@QEAA_NIPEAVAABBTreeBounds@23@PEBXIW4BVHBuildStrategy@23@IM@Z 0000000180166320 f   GuBVH.obj
 0001:00165720       ?isKindOf@PxBVH@physx@@MEBA_NPEBD@Z 0000000180166720 f i GuBVH.obj
 0001:00165770       ?load@BVH@Gu@physx@@QEAA_NAEAVPxInputStream@3@@Z 0000000180166770 f   GuBVH.obj
 0001:00165900       ?onRefCountZero@BVH@Gu@physx@@UEAAXXZ 0000000180166900 f   GuBVH.obj
 0001:001659e0       ?onRefCountZero@RefCountable@Cm@physx@@UEAAXXZ 00000001801669e0 f i GuBVH.obj
 0001:00165a00       ?overlap@BVH@Gu@physx@@QEBA_NAEBVShapeData@23@AEAUOverlapCallback@PxBVH@3@V?$PxFlags@W4Enum@PxGeometryQueryFlag@physx@@I@3@@Z 0000000180166a00 f   GuBVH.obj
 0001:00166230       ?overlap@BVH@Gu@physx@@UEBAIAEBVPxBounds3@3@IPEIAI@Z 0000000180167230 f   GuBVH.obj
 0001:00166350       ?overlap@BVH@Gu@physx@@UEBA_NAEBVPxGeometry@3@AEBV?$PxTransformT@M@3@AEAUOverlapCallback@PxBVH@3@V?$PxFlags@W4Enum@PxGeometryQueryFlag@physx@@I@3@@Z 0000000180167350 f   GuBVH.obj
 0001:001663b0       ?partialRefit@BVH@Gu@physx@@UEAAXXZ 00000001801673b0 f   GuBVH.obj
 0001:001663c0       ?raycast@BVH@Gu@physx@@UEBAIAEBV?$PxVec3T@M@3@0MIPEIAI@Z 00000001801673c0 f   GuBVH.obj
 0001:00166460       ?raycast@BVH@Gu@physx@@UEBA_NAEBV?$PxVec3T@M@3@0MAEAURaycastCallback@PxBVH@3@V?$PxFlags@W4Enum@PxGeometryQueryFlag@physx@@I@3@@Z 0000000180167460 f   GuBVH.obj
 0001:00166590       ?recreate@?$PxArray@PEBUBVHNode@Gu@physx@@V?$PxInlineAllocator@$0IAA@V?$PxReflectionAllocator@PEBUBVHNode@Gu@physx@@@physx@@@3@@physx@@IEAAXI@Z 0000000180167590 f i GuBVH.obj
 0001:00166640       ?refit@BVH@Gu@physx@@UEAAXXZ 0000000180167640 f   GuBVH.obj
 0001:00166650       ?release@BVH@Gu@physx@@UEAAXXZ 0000000180167650 f   GuBVH.obj
 0001:00166680       ?resizeUninitialized@?$PxArray@PEBUBVHNode@Gu@physx@@V?$PxInlineAllocator@$0IAA@V?$PxReflectionAllocator@PEBUBVHNode@Gu@physx@@@physx@@@3@@physx@@QEAAXI@Z 0000000180167680 f i GuBVH.obj
 0001:001666d0       ?save@BVHData@Gu@physx@@QEBA_NAEAVPxOutputStream@3@_N@Z 00000001801676d0 f   GuBVH.obj
 0001:00166840       ?sweep@BVH@Gu@physx@@QEBA_NAEBVShapeData@23@AEBV?$PxVec3T@M@3@MAEAURaycastCallback@PxBVH@3@V?$PxFlags@W4Enum@PxGeometryQueryFlag@physx@@I@3@@Z 0000000180167840 f   GuBVH.obj
 0001:00166a30       ?sweep@BVH@Gu@physx@@UEBAIAEBVPxBounds3@3@AEBV?$PxVec3T@M@3@MIPEIAI@Z 0000000180167a30 f   GuBVH.obj
 0001:00166ba0       ?sweep@BVH@Gu@physx@@UEBA_NAEBVPxGeometry@3@AEBV?$PxTransformT@M@3@AEBV?$PxVec3T@M@3@MAEAURaycastCallback@PxBVH@3@V?$PxFlags@W4Enum@PxGeometryQueryFlag@physx@@I@3@@Z 0000000180167ba0 f   GuBVH.obj
 0001:00166c20       ?traverse@BVH@Gu@physx@@UEBA_NAEAUTraversalCallback@PxBVH@3@@Z 0000000180167c20 f   GuBVH.obj
 0001:00166d90       ?updateBounds@BVH@Gu@physx@@UEAA_NIAEBVPxBounds3@3@@Z 0000000180167d90 f   GuBVH.obj
 0001:00166e40       ?updateBoundsInternal@BVH@Gu@physx@@QEAA_NIAEBVPxBounds3@3@@Z 0000000180167e40 f   GuBVH.obj
 0001:00166ef0       PxFindOverlap              0000000180167ef0 f   GuBVH.obj
 0001:00166fe0       PxGetBVHInternalData       0000000180167fe0 f   GuBVH.obj
 0001:00167020       ??0IncrementalAABBPrunerCore@Gu@physx@@QEAA@PEBVPruningPool@12@@Z 0000000180168020 f   GuIncrementalAABBPrunerCore.obj
 0001:00167130       ??1IncrementalAABBPrunerCore@Gu@physx@@QEAA@XZ 0000000180168130 f   GuIncrementalAABBPrunerCore.obj
 0001:001672a0       ??R?$AABBTreeOverlap@$00U?$OBBAABBTests@$00@Gu@physx@@VIncrementalAABBTree@23@VIncrementalAABBTreeNode@23@UOverlapCallbackAdapter@23@@Gu@physx@@QEAA_NAEBVAABBTreeBounds@12@AEBVIncrementalAABBTree@12@AEBU?$OBBAABBTests@$00@12@AEAUOverlapCallbackAdapter@12@@Z 00000001801682a0 f i GuIncrementalAABBPrunerCore.obj
 0001:00167850       ??R?$AABBTreeOverlap@$00UAABBAABBTest@Gu@physx@@VIncrementalAABBTree@23@VIncrementalAABBTreeNode@23@UOverlapCallbackAdapter@23@@Gu@physx@@QEAA_NAEBVAABBTreeBounds@12@AEBVIncrementalAABBTree@12@AEBUAABBAABBTest@12@AEAUOverlapCallbackAdapter@12@@Z 0000000180168850 f i GuIncrementalAABBPrunerCore.obj
 0001:00167ac0       ??R?$AABBTreeOverlap@$00UCapsuleAABBTest@Gu@physx@@VIncrementalAABBTree@23@VIncrementalAABBTreeNode@23@UOverlapCallbackAdapter@23@@Gu@physx@@QEAA_NAEBVAABBTreeBounds@12@AEBVIncrementalAABBTree@12@AEBUCapsuleAABBTest@12@AEAUOverlapCallbackAdapter@12@@Z 0000000180168ac0 f i GuIncrementalAABBPrunerCore.obj
 0001:00167ee0       ??R?$AABBTreeRaycast@$00$00VIncrementalAABBTree@Gu@physx@@VIncrementalAABBTreeNode@23@URaycastCallbackAdapter@23@@Gu@physx@@QEAA_NAEBVAABBTreeBounds@12@AEBVIncrementalAABBTree@12@AEBV?$PxVec3T@M@2@2AEAM2AEAURaycastCallbackAdapter@12@@Z 0000000180168ee0 f i GuIncrementalAABBPrunerCore.obj
 0001:001685a0       ??R?$AABBTreeRaycast@$0A@$00VIncrementalAABBTree@Gu@physx@@VIncrementalAABBTreeNode@23@URaycastCallbackAdapter@23@@Gu@physx@@QEAA_NAEBVAABBTreeBounds@12@AEBVIncrementalAABBTree@12@AEBV?$PxVec3T@M@2@2AEAM2AEAURaycastCallbackAdapter@12@@Z 00000001801695a0 f i GuIncrementalAABBPrunerCore.obj
 0001:00168bf0       ?addObject@IncrementalAABBPrunerCore@Gu@physx@@QEAA_NII@Z 0000000180169bf0 f   GuIncrementalAABBPrunerCore.obj
 0001:00168d00       ?allocate@?$PxArray@PEBVIncrementalAABBTreeNode@Gu@physx@@V?$PxInlineAllocator@$0IAA@V?$PxReflectionAllocator@PEBVIncrementalAABBTreeNode@Gu@physx@@@physx@@@3@@physx@@IEAAPEAPEBVIncrementalAABBTreeNode@Gu@2@I@Z 0000000180169d00 f i GuIncrementalAABBPrunerCore.obj
 0001:00168dc0       ?clear@?$PxHashMapBase@IPEAVIncrementalAABBTreeNode@Gu@physx@@U?$PxHash@I@3@VPxAllocator@3@@physx@@QEAAXXZ 0000000180169dc0 f i GuIncrementalAABBPrunerCore.obj
 0001:00168dc0       ?clear@?$PxHashMapBase@UPrunerPayload@Gu@physx@@UExtendedBucketPrunerData@23@UExtendedBucketPrunerHash@23@VPxAllocator@3@@physx@@QEAAXXZ 0000000180169dc0 f i GuExtendedBucketPruner.obj
 0001:00168e50       ?create@?$PxHashBase@V?$PxPair@$$CBIPEAVIncrementalAABBTreeNode@Gu@physx@@@physx@@IU?$PxHash@I@2@UGetKey@?$PxHashMapBase@IPEAVIncrementalAABBTreeNode@Gu@physx@@U?$PxHash@I@3@VPxAllocator@3@@2@VPxAllocator@2@$00@physx@@QEAAPEAV?$PxPair@$$CBIPEAVIncrementalAABBTreeNode@Gu@physx@@@2@AEBIAEA_N@Z 0000000180169e50 f i GuIncrementalAABBPrunerCore.obj
 0001:00168fa0       ?erase@?$PxHashBase@V?$PxPair@$$CBIPEAVIncrementalAABBTreeNode@Gu@physx@@@physx@@IU?$PxHash@I@2@UGetKey@?$PxHashMapBase@IPEAVIncrementalAABBTreeNode@Gu@physx@@U?$PxHash@I@3@VPxAllocator@3@@2@VPxAllocator@2@$00@physx@@QEAA_NAEBIAEAV?$PxPair@$$CBIPEAVIncrementalAABBTreeNode@Gu@physx@@@2@@Z 0000000180169fa0 f i GuIncrementalAABBPrunerCore.obj
 0001:00169110       ?getCurrentWorldBoxes@PruningPool@Gu@physx@@QEAAPEAVPxBounds3@3@XZ 000000018016a110 f i GuIncrementalAABBPrunerCore.obj
 0001:00169110       ?getCurrentWorldBoxes@PruningPool@Gu@physx@@QEBAPEBVPxBounds3@3@XZ 000000018016a110 f i GuIncrementalAABBPrunerCore.obj
 0001:00169110       ?getMesh@CollisionTetrahedronMeshData@Gu@physx@@UEAAPEAVPxTetrahedronMeshData@3@XZ 000000018016a110 f i GuCookingTetrahedronMesh.obj
 0001:00169110       ?getMesh@CollisionTetrahedronMeshData@Gu@physx@@UEBAPEBVPxTetrahedronMeshData@3@XZ 000000018016a110 f i GuCookingTetrahedronMesh.obj
 0001:00169110       ?getMesh@SimulationTetrahedronMeshData@Gu@physx@@UEAAPEAVPxTetrahedronMeshData@3@XZ 000000018016a110 f i GuCookingTetrahedronMesh.obj
 0001:00169120       ?getGlobalBounds@IncrementalAABBPrunerCore@Gu@physx@@QEBAXAEAVPxBounds3@3@@Z 000000018016a120 f   GuIncrementalAABBPrunerCore.obj
 0001:00169250       ?getIndex@PruningPool@Gu@physx@@QEBAII@Z 000000018016a250 f i GuIncrementalAABBPrunerCore.obj
 0001:00169260       ?getPayloadData@PruningPool@Gu@physx@@QEBAAEBUPrunerPayload@23@IPEAUPrunerPayloadData@23@@Z 000000018016a260 f i GuIncrementalAABBPrunerCore.obj
 0001:001692b0       ?overlap@IncrementalAABBPrunerCore@Gu@physx@@QEBA_NAEBVShapeData@23@AEAUPrunerOverlapCallback@23@@Z 000000018016a2b0 f   GuIncrementalAABBPrunerCore.obj
 0001:00169db0       ?raycast@IncrementalAABBPrunerCore@Gu@physx@@QEBA_NAEBV?$PxVec3T@M@3@0AEAMAEAUPrunerRaycastCallback@23@@Z 000000018016adb0 f   GuIncrementalAABBPrunerCore.obj
 0001:00169e90       ?recreate@?$PxArray@PEAVIncrementalAABBTreeNode@Gu@physx@@V?$PxReflectionAllocator@PEAVIncrementalAABBTreeNode@Gu@physx@@@3@@physx@@IEAAXI@Z 000000018016ae90 f i GuIncrementalAABBPrunerCore.obj
 0001:00169fa0       ?recreate@?$PxArray@PEBVIncrementalAABBTreeNode@Gu@physx@@V?$PxInlineAllocator@$0IAA@V?$PxReflectionAllocator@PEBVIncrementalAABBTreeNode@Gu@physx@@@physx@@@3@@physx@@IEAAXI@Z 000000018016afa0 f i GuIncrementalAABBPrunerCore.obj
 0001:0016a050       ?release@IncrementalAABBPrunerCore@Gu@physx@@QEAAXXZ 000000018016b050 f   GuIncrementalAABBPrunerCore.obj
 0001:0016a150       ?removeMarkedObjects@IncrementalAABBPrunerCore@Gu@physx@@QEAAII@Z 000000018016b150 f   GuIncrementalAABBPrunerCore.obj
 0001:0016a1b0       ?removeObject@IncrementalAABBPrunerCore@Gu@physx@@QEAA_NIIAEAI@Z 000000018016b1b0 f   GuIncrementalAABBPrunerCore.obj
 0001:0016a3c0       ?reserveInternal@?$PxHashBase@V?$PxPair@$$CBIPEAVIncrementalAABBTreeNode@Gu@physx@@@physx@@IU?$PxHash@I@2@UGetKey@?$PxHashMapBase@IPEAVIncrementalAABBTreeNode@Gu@physx@@U?$PxHash@I@3@VPxAllocator@3@@2@VPxAllocator@2@$00@physx@@AEAAXI@Z 000000018016b3c0 f i GuIncrementalAABBPrunerCore.obj
 0001:0016a580       ?resizeUninitialized@?$PxArray@PEBVIncrementalAABBTreeNode@Gu@physx@@V?$PxInlineAllocator@$0IAA@V?$PxReflectionAllocator@PEBVIncrementalAABBTreeNode@Gu@physx@@@physx@@@3@@physx@@QEAAXI@Z 000000018016b580 f i GuIncrementalAABBPrunerCore.obj
 0001:0016a5d0       ?setTransform@PruningPool@Gu@physx@@QEAA_NIAEBV?$PxTransformT@M@3@@Z 000000018016b5d0 f i GuIncrementalAABBPrunerCore.obj
 0001:0016a630       ?shiftOrigin@IncrementalAABBPrunerCore@Gu@physx@@QEAAXAEBV?$PxVec3T@M@3@@Z 000000018016b630 f   GuIncrementalAABBPrunerCore.obj
 0001:0016a680       ?swapIndex@IncrementalAABBPrunerCore@Gu@physx@@QEAAXII@Z 000000018016b680 f   GuIncrementalAABBPrunerCore.obj
 0001:0016a760       ?sweep@IncrementalAABBPrunerCore@Gu@physx@@QEBA_NAEBVShapeData@23@AEBV?$PxVec3T@M@3@AEAMAEAUPrunerRaycastCallback@23@@Z 000000018016b760 f   GuIncrementalAABBPrunerCore.obj
 0001:0016a8f0       ?updateMapping@IncrementalAABBPrunerCore@Gu@physx@@AEAAXAEAV?$PxHashMap@IPEAVIncrementalAABBTreeNode@Gu@physx@@U?$PxHash@I@3@VPxAllocator@3@@3@IPEAVIncrementalAABBTreeNode@23@@Z 000000018016b8f0 f   GuIncrementalAABBPrunerCore.obj
 0001:0016aa40       ?updateObject@IncrementalAABBPrunerCore@Gu@physx@@QEAA_NI@Z 000000018016ba40 f   GuIncrementalAABBPrunerCore.obj
 0001:0016abe0       ?visualize@IncrementalAABBPrunerCore@Gu@physx@@QEBAXAEAVPxRenderOutput@3@I@Z 000000018016bbe0 f   GuIncrementalAABBPrunerCore.obj
 0001:0016ac40       ??0IncrementalAABBPruner@Gu@physx@@QEAA@I_K@Z 000000018016bc40 f   GuIncrementalAABBPruner.obj
 0001:0016acf0       ??R?$AABBTreeOverlap@$00USphereAABBTest@Gu@physx@@VIncrementalAABBTree@23@VIncrementalAABBTreeNode@23@UOverlapCallbackAdapter@23@@Gu@physx@@QEAA_NAEBVAABBTreeBounds@12@AEBVIncrementalAABBTree@12@AEBUSphereAABBTest@12@AEAUOverlapCallbackAdapter@12@@Z 000000018016bcf0 f i GuIncrementalAABBPruner.obj
 0001:0016afc0       ??_EBasePruner@Gu@physx@@UEAAPEAXI@Z 000000018016bfc0 f i GuIncrementalAABBPruner.obj
 0001:0016afc0       ??_GBasePruner@Gu@physx@@UEAAPEAXI@Z 000000018016bfc0 f i GuIncrementalAABBPruner.obj
 0001:0016b010       ??_EIncrementalAABBPruner@Gu@physx@@UEAAPEAXI@Z 000000018016c010 f i GuIncrementalAABBPruner.obj
 0001:0016b010       ??_GIncrementalAABBPruner@Gu@physx@@UEAAPEAXI@Z 000000018016c010 f i GuIncrementalAABBPruner.obj
 0001:0016b120       ?addObjects@IncrementalAABBPruner@Gu@physx@@UEAA_NPEAIPEBVPxBounds3@3@PEBUPrunerPayload@23@PEBV?$PxTransformT@M@3@I_N@Z 000000018016c120 f   GuIncrementalAABBPruner.obj
 0001:0016b2c0       ?commit@IncrementalAABBPruner@Gu@physx@@UEAAXXZ 000000018016c2c0 f   GuIncrementalAABBPruner.obj
 0001:0016b420       ?getGlobalBounds@IncrementalAABBPruner@Gu@physx@@UEBAXAEAVPxBounds3@3@@Z 000000018016c420 f   GuIncrementalAABBPruner.obj
 0001:0016b490       ?getPayloadData@IncrementalAABBPruner@Gu@physx@@UEBAAEBUPrunerPayload@23@IPEAUPrunerPayloadData@23@@Z 000000018016c490 f i GuIncrementalAABBPruner.obj
 0001:0016b4e0       ?overlap@IncrementalAABBPruner@Gu@physx@@UEBA_NAEBVShapeData@23@AEAUPrunerOverlapCallback@23@@Z 000000018016c4e0 f   GuIncrementalAABBPruner.obj
 0001:0016bbf0       ?preallocate@IncrementalAABBPruner@Gu@physx@@UEAAXI@Z 000000018016cbf0 f i GuIncrementalAABBPruner.obj
 0001:0016bc00       ?purge@IncrementalAABBPruner@Gu@physx@@UEAAXXZ 000000018016cc00 f   GuIncrementalAABBPruner.obj
 0001:0016bc50       ?raycast@IncrementalAABBPruner@Gu@physx@@UEBA_NAEBV?$PxVec3T@M@3@0AEAMAEAUPrunerRaycastCallback@23@@Z 000000018016cc50 f   GuIncrementalAABBPruner.obj
 0001:0016bcd0       ?removeObjects@IncrementalAABBPruner@Gu@physx@@UEAAXPEBIIPEAUPrunerPayloadRemovalCallback@23@@Z 000000018016ccd0 f   GuIncrementalAABBPruner.obj
 0001:0016be10       ?resize@?$PxArray@PEAVIncrementalAABBTreeNode@Gu@physx@@V?$PxReflectionAllocator@PEAVIncrementalAABBTreeNode@Gu@physx@@@3@@physx@@QEAAXIAEBQEAVIncrementalAABBTreeNode@Gu@2@@Z 000000018016ce10 f i GuIncrementalAABBPruner.obj
 0001:0016bed0       ?resizeUninitialized@?$PxArray@PEAVIncrementalAABBTreeNode@Gu@physx@@V?$PxReflectionAllocator@PEAVIncrementalAABBTreeNode@Gu@physx@@@3@@physx@@QEAAXI@Z 000000018016ced0 f i GuIncrementalAABBPruner.obj
 0001:0016bf10       ?setTransform@IncrementalAABBPruner@Gu@physx@@UEAA_NIAEBV?$PxTransformT@M@3@@Z 000000018016cf10 f i GuIncrementalAABBPruner.obj
 0001:0016bf70       ?shiftOrigin@IncrementalAABBPruner@Gu@physx@@UEAAXAEBV?$PxVec3T@M@3@@Z 000000018016cf70 f   GuIncrementalAABBPruner.obj
 0001:0016bfb0       ?sweep@IncrementalAABBPruner@Gu@physx@@UEBA_NAEBVShapeData@23@AEBV?$PxVec3T@M@3@AEAMAEAUPrunerRaycastCallback@23@@Z 000000018016cfb0 f   GuIncrementalAABBPruner.obj
 0001:0016c0d0       ?updateObjects@IncrementalAABBPruner@Gu@physx@@UEAAXPEBIIM0PEBVPxBounds3@3@PEBUPxTransformPadded@3@@Z 000000018016d0d0 f   GuIncrementalAABBPruner.obj
 0001:0016c2a0       ?visualize@IncrementalAABBPruner@Gu@physx@@UEBAXAEAVPxRenderOutput@3@II@Z 000000018016d2a0 f   GuIncrementalAABBPruner.obj
 0001:0016c490       ??0PruningPool@Gu@physx@@QEAA@_KW4TransformCacheMode@12@@Z 000000018016d490 f   GuPruningPool.obj
 0001:0016c4c0       ??1PruningPool@Gu@physx@@QEAA@XZ 000000018016d4c0 f   GuPruningPool.obj
 0001:0016c580       ?addObjects@PruningPool@Gu@physx@@QEAAIPEAIPEBVPxBounds3@3@PEBUPrunerPayload@23@PEBV?$PxTransformT@M@3@I@Z 000000018016d580 f   GuPruningPool.obj
 0001:0016c730       ?preallocate@PruningPool@Gu@physx@@QEAAXI@Z 000000018016d730 f   GuPruningPool.obj
 0001:0016c740       ?removeObject@PruningPool@Gu@physx@@QEAAIIPEAUPrunerPayloadRemovalCallback@23@@Z 000000018016d740 f   GuPruningPool.obj
 0001:0016c880       ?resize@PruningPool@Gu@physx@@QEAA_NI@Z 000000018016d880 f   GuPruningPool.obj
 0001:0016cb40       ?shiftOrigin@PruningPool@Gu@physx@@QEAAXAEBV?$PxVec3T@M@3@@Z 000000018016db40 f   GuPruningPool.obj
 0001:0016cf10       ?updateAndInflateBounds@PruningPool@Gu@physx@@QEAAXPEBI0PEBVPxBounds3@3@PEBUPxTransformPadded@3@IM@Z 000000018016df10 f   GuPruningPool.obj
 0001:0016e930       ??0BucketPruner@Gu@physx@@QEAA@_K@Z 000000018016f930 f   GuBucketPruner.obj
 0001:0016e980       ??0BucketPrunerCore@Gu@physx@@QEAA@_N@Z 000000018016f980 f   GuBucketPruner.obj
 0001:0016ed00       ??1BucketPrunerCore@Gu@physx@@QEAA@XZ 000000018016fd00 f   GuBucketPruner.obj
 0001:0016ee40       ??R?$BucketPrunerOverlapTraversal@UBucketPrunerAABBAABBTest@@$00@@QEBA_NAEBVBucketPrunerCore@Gu@physx@@AEBUBucketPrunerAABBAABBTest@@AEAUPrunerOverlapCallback@23@AEBVPxBounds3@3@@Z 000000018016fe40 f i GuBucketPruner.obj
 0001:0016f400       ??R?$BucketPrunerOverlapTraversal@UOBBAABBTest_SIMD@@$0A@@@QEBA_NAEBVBucketPrunerCore@Gu@physx@@AEBUOBBAABBTest_SIMD@@AEAUPrunerOverlapCallback@23@AEBVPxBounds3@3@@Z 0000000180170400 f i GuBucketPruner.obj
 0001:0016fc80       ??R?$BucketPrunerOverlapTraversal@USphereAABBTest_SIMD@@$00@@QEBA_NAEBVBucketPrunerCore@Gu@physx@@AEBUSphereAABBTest_SIMD@@AEAUPrunerOverlapCallback@23@AEBVPxBounds3@3@@Z 0000000180170c80 f i GuBucketPruner.obj
 0001:00170260       ??_FBucketPrunerCore@Gu@physx@@QEAAXXZ 0000000180171260 f i GuBucketPruner.obj
 0001:00170270       ??_EBucketPruner@Gu@physx@@UEAAPEAXI@Z 0000000180171270 f i GuBucketPruner.obj
 0001:00170270       ??_GBucketPruner@Gu@physx@@UEAAPEAXI@Z 0000000180171270 f i GuBucketPruner.obj
 0001:001702f0       ?addObject@BucketPrunerCore@Gu@physx@@QEAA_NAEBUPrunerPayload@23@AEBVPxBounds3@3@AEBV?$PxTransformT@M@3@I@Z 00000001801712f0 f   GuBucketPruner.obj
 0001:00170610       ?addObjects@BucketPruner@Gu@physx@@UEAA_NPEAIPEBVPxBounds3@3@PEBUPrunerPayload@23@PEBV?$PxTransformT@M@3@I_N@Z 0000000180171610 f   GuBucketPruner.obj
 0001:001706a0       ?addPair@BucketPrunerMap@Gu@physx@@QEAAPEAUBucketPrunerPair@23@AEBUPrunerPayload@23@II@Z 00000001801716a0 f   GuBucketPruner.obj
 0001:001708a0       ?allocateSortedMemory@BucketPrunerCore@Gu@physx@@AEAAXI@Z 00000001801718a0 f   GuBucketPruner.obj
 0001:00170a50       ?classifyBoxes@BucketPrunerCore@Gu@physx@@AEAAXXZ 0000000180171a50 f   GuBucketPruner.obj
 0001:00171230       ?classifyBoxes@BucketPrunerNode@Gu@physx@@QEAAXMMIPEIAUBucketBox@23@PEIBUPrunerPayload@23@PEIBV?$PxTransformT@M@3@0PEIAU523@PEIAV63@_NI@Z 0000000180172230 f   GuBucketPruner.obj
 0001:00171ab0       ?build@CompanionPrunerBucket@@UEAAXXZ 0000000180172ab0 f   GuSecondaryPruner.obj
 0001:00171ab0       ?commit@BucketPruner@Gu@physx@@UEAAXXZ 0000000180172ab0 f   GuBucketPruner.obj
 0001:00171ac0       ?findPair@BucketPrunerMap@Gu@physx@@QEBAPEBUBucketPrunerPair@23@AEBUPrunerPayload@23@@Z 0000000180172ac0 f   GuBucketPruner.obj
 0001:00171eb0       ?getGlobalBounds@BucketPruner@Gu@physx@@UEBAXAEAVPxBounds3@3@@Z 0000000180172eb0 f   GuBucketPruner.obj
 0001:00171f30       ?getGlobalBounds@BucketPrunerCore@Gu@physx@@QEBAXAEAVPxBounds3@3@@Z 0000000180172f30 f   GuBucketPruner.obj
 0001:00171fb0       ?getPayloadData@BucketPruner@Gu@physx@@UEBAAEBUPrunerPayload@23@IPEAUPrunerPayloadData@23@@Z 0000000180172fb0 f i GuBucketPruner.obj
 0001:00172010       ?overlap@BucketPruner@Gu@physx@@UEBA_NAEBVShapeData@23@AEAUPrunerOverlapCallback@23@@Z 0000000180173010 f   GuBucketPruner.obj
 0001:00172030       ?overlap@BucketPrunerCore@Gu@physx@@QEBA_NAEBVShapeData@23@AEAUPrunerOverlapCallback@23@@Z 0000000180173030 f   GuBucketPruner.obj
 0001:00172310       ?preallocate@BucketPruner@Gu@physx@@UEAAXI@Z 0000000180173310 f i GuBucketPruner.obj
 0001:001724f0       ?purge@BucketPrunerMap@Gu@physx@@QEAAXXZ 00000001801734f0 f   GuBucketPruner.obj
 0001:00172580       ?raycast@BucketPruner@Gu@physx@@UEBA_NAEBV?$PxVec3T@M@3@0AEAMAEAUPrunerRaycastCallback@23@@Z 0000000180173580 f   GuBucketPruner.obj
 0001:001725d0       ?raycast@BucketPrunerCore@Gu@physx@@QEBA_NAEBV?$PxVec3T@M@3@0AEAMAEAUPrunerRaycastCallback@23@@Z 00000001801735d0 f   GuBucketPruner.obj
 0001:00172610       ?reallocPairs@BucketPrunerMap@Gu@physx@@QEAAXXZ 0000000180173610 f   GuBucketPruner.obj
 0001:00172840       ?release@BucketPrunerCore@Gu@physx@@QEAAXXZ 0000000180173840 f   GuBucketPruner.obj
 0001:00172970       ?removeMarkedObjects@BucketPrunerCore@Gu@physx@@QEAAII@Z 0000000180173970 f   GuBucketPruner.obj
 0001:00172d40       ?removeObject@BucketPrunerCore@Gu@physx@@QEAA_NAEBUPrunerPayload@23@AEAI@Z 0000000180173d40 f   GuBucketPruner.obj
 0001:00173000       ?removeObjects@BucketPruner@Gu@physx@@UEAAXPEBIIPEAUPrunerPayloadRemovalCallback@23@@Z 0000000180174000 f   GuBucketPruner.obj
 0001:001730b0       ?removePair@BucketPrunerMap@Gu@physx@@QEAA_NAEBUPrunerPayload@23@AEAI1@Z 00000001801740b0 f   GuBucketPruner.obj
 0001:00173230       ?removePairInternal@BucketPrunerMap@Gu@physx@@QEAAXAEBUPrunerPayload@23@II@Z 0000000180174230 f   GuBucketPruner.obj
 0001:001733c0       ?resizeCore@BucketPrunerCore@Gu@physx@@AEAAXXZ 00000001801743c0 f   GuBucketPruner.obj
 0001:00173600       ?setTransform@BucketPruner@Gu@physx@@UEAA_NIAEBV?$PxTransformT@M@3@@Z 0000000180174600 f i GuBucketPruner.obj
 0001:00173660       ?shiftOrigin@BucketPruner@Gu@physx@@UEAAXAEBV?$PxVec3T@M@3@@Z 0000000180174660 f   GuBucketPruner.obj
 0001:00173660       ?shiftOrigin@CompanionPrunerBucket@@UEAAXAEBV?$PxVec3T@M@physx@@@Z 0000000180174660 f   GuSecondaryPruner.obj
 0001:00173670       ?shiftOrigin@BucketPrunerCore@Gu@physx@@QEAAXAEBV?$PxVec3T@M@3@@Z 0000000180174670 f   GuBucketPruner.obj
 0001:001744a0       ?sweep@BucketPruner@Gu@physx@@UEBA_NAEBVShapeData@23@AEBV?$PxVec3T@M@3@AEAMAEAUPrunerRaycastCallback@23@@Z 00000001801754a0 f   GuBucketPruner.obj
 0001:001744c0       ?sweep@BucketPrunerCore@Gu@physx@@QEBA_NAEBVShapeData@23@AEBV?$PxVec3T@M@3@AEAMAEAUPrunerRaycastCallback@23@@Z 00000001801754c0 f   GuBucketPruner.obj
 0001:00174590       ?updateObject@BucketPrunerCore@Gu@physx@@QEAA_NAEBVPxBounds3@3@AEBUPrunerPayload@23@AEBV?$PxTransformT@M@3@@Z 0000000180175590 f   GuBucketPruner.obj
 0001:001745f0       ?updateObjects@BucketPruner@Gu@physx@@UEAAXPEBIIM0PEBVPxBounds3@3@PEBUPxTransformPadded@3@@Z 00000001801755f0 f   GuBucketPruner.obj
 0001:00174700       ?visualize@BucketPruner@Gu@physx@@UEBAXAEAVPxRenderOutput@3@II@Z 0000000180175700 f   GuBucketPruner.obj
 0001:00174700       ?visualize@CompanionPrunerBucket@@UEBAXAEAVPxRenderOutput@physx@@I@Z 0000000180175700 f   GuSecondaryPruner.obj
 0001:00174710       ?visualize@BucketPrunerCore@Gu@physx@@QEBAXAEAVPxRenderOutput@3@I@Z 0000000180175710 f   GuBucketPruner.obj
 0001:00174a00       ?addObject@MaverickNode@Gu@physx@@QEAA_NAEBUPrunerPayload@23@IAEBVPxBounds3@3@AEBV?$PxTransformT@M@3@I@Z 0000000180175a00 f   GuMaverickNode.obj
 0001:00174ae0       ?removeMarkedObjects@MaverickNode@Gu@physx@@QEAAII@Z 0000000180175ae0 f   GuMaverickNode.obj
 0001:00174c70       ?removeObject@MaverickNode@Gu@physx@@QEAA_NIAEAI@Z 0000000180175c70 f   GuMaverickNode.obj
 0001:00174e00       ?shiftOrigin@MaverickNode@Gu@physx@@QEAAXAEBV?$PxVec3T@M@3@@Z 0000000180175e00 f   GuMaverickNode.obj
 0001:00174ef0       ?updateObject@MaverickNode@Gu@physx@@QEAA_NIAEBVPxBounds3@3@AEBV?$PxTransformT@M@3@@Z 0000000180175ef0 f   GuMaverickNode.obj
 0001:00174fd0       ??0ExtendedBucketPruner@Gu@physx@@QEAA@_KW4CompanionPrunerType@12@PEBVPruningPool@12@@Z 0000000180175fd0 f   GuExtendedBucketPruner.obj
 0001:00175220       ??1ExtendedBucketPruner@Gu@physx@@QEAA@XZ 0000000180176220 f   GuExtendedBucketPruner.obj
 0001:00175380       ??R?$AABBTreeOverlap@$00U?$OBBAABBTests@$00@Gu@physx@@VAABBTree@23@UBVHNode@23@U?$MainTreeOverlapPrunerCallback@U?$OBBAABBTests@$00@Gu@physx@@@@@Gu@physx@@QEAA_NAEBVAABBTreeBounds@12@AEBVAABBTree@12@AEBU?$OBBAABBTests@$00@12@AEAU?$MainTreeOverlapPrunerCallback@U?$OBBAABBTests@$00@Gu@physx@@@@@Z 0000000180176380 f i GuExtendedBucketPruner.obj
 0001:00175960       ??R?$AABBTreeOverlap@$00U?$OBBAABBTests@$00@Gu@physx@@VAABBTree@23@UBVHNode@23@UOverlapCallbackAdapter@23@@Gu@physx@@QEAA_NAEBVAABBTreeBounds@12@AEBVAABBTree@12@AEBU?$OBBAABBTests@$00@12@AEAUOverlapCallbackAdapter@12@@Z 0000000180176960 f i GuExtendedBucketPruner.obj
 0001:00175f20       ??R?$AABBTreeOverlap@$00UAABBAABBTest@Gu@physx@@VAABBTree@23@UBVHNode@23@U?$MainTreeOverlapPrunerCallback@UAABBAABBTest@Gu@physx@@@@@Gu@physx@@QEAA_NAEBVAABBTreeBounds@12@AEBVAABBTree@12@AEBUAABBAABBTest@12@AEAU?$MainTreeOverlapPrunerCallback@UAABBAABBTest@Gu@physx@@@@@Z 0000000180176f20 f i GuExtendedBucketPruner.obj
 0001:001761d0       ??R?$AABBTreeOverlap@$00UAABBAABBTest@Gu@physx@@VAABBTree@23@UBVHNode@23@UOverlapCallbackAdapter@23@@Gu@physx@@QEAA_NAEBVAABBTreeBounds@12@AEBVAABBTree@12@AEBUAABBAABBTest@12@AEAUOverlapCallbackAdapter@12@@Z 00000001801771d0 f i GuExtendedBucketPruner.obj
 0001:00176460       ??R?$AABBTreeOverlap@$00UCapsuleAABBTest@Gu@physx@@VAABBTree@23@UBVHNode@23@U?$MainTreeOverlapPrunerCallback@UCapsuleAABBTest@Gu@physx@@@@@Gu@physx@@QEAA_NAEBVAABBTreeBounds@12@AEBVAABBTree@12@AEBUCapsuleAABBTest@12@AEAU?$MainTreeOverlapPrunerCallback@UCapsuleAABBTest@Gu@physx@@@@@Z 0000000180177460 f i GuExtendedBucketPruner.obj
 0001:001768d0       ??R?$AABBTreeOverlap@$00UCapsuleAABBTest@Gu@physx@@VAABBTree@23@UBVHNode@23@UOverlapCallbackAdapter@23@@Gu@physx@@QEAA_NAEBVAABBTreeBounds@12@AEBVAABBTree@12@AEBUCapsuleAABBTest@12@AEAUOverlapCallbackAdapter@12@@Z 00000001801778d0 f i GuExtendedBucketPruner.obj
 0001:00176d10       ??R?$AABBTreeOverlap@$00USphereAABBTest@Gu@physx@@VAABBTree@23@UBVHNode@23@U?$MainTreeOverlapPrunerCallback@USphereAABBTest@Gu@physx@@@@@Gu@physx@@QEAA_NAEBVAABBTreeBounds@12@AEBVAABBTree@12@AEBUSphereAABBTest@12@AEAU?$MainTreeOverlapPrunerCallback@USphereAABBTest@Gu@physx@@@@@Z 0000000180177d10 f i GuExtendedBucketPruner.obj
 0001:00177030       ??R?$AABBTreeOverlap@$00USphereAABBTest@Gu@physx@@VAABBTree@23@UBVHNode@23@UOverlapCallbackAdapter@23@@Gu@physx@@QEAA_NAEBVAABBTreeBounds@12@AEBVAABBTree@12@AEBUSphereAABBTest@12@AEAUOverlapCallbackAdapter@12@@Z 0000000180178030 f i GuExtendedBucketPruner.obj
 0001:00177320       ??R?$AABBTreeRaycast@$00$00VAABBTree@Gu@physx@@UBVHNode@23@U?$MainTreeRaycastPrunerCallback@$00@@@Gu@physx@@QEAA_NAEBVAABBTreeBounds@12@AEBVAABBTree@12@AEBV?$PxVec3T@M@2@2AEAM2AEAU?$MainTreeRaycastPrunerCallback@$00@@@Z 0000000180178320 f i GuExtendedBucketPruner.obj
 0001:00177a40       ??R?$AABBTreeRaycast@$00$00VAABBTree@Gu@physx@@UBVHNode@23@URaycastCallbackAdapter@23@@Gu@physx@@QEAA_NAEBVAABBTreeBounds@12@AEBVAABBTree@12@AEBV?$PxVec3T@M@2@2AEAM2AEAURaycastCallbackAdapter@12@@Z 0000000180178a40 f i GuExtendedBucketPruner.obj
 0001:00178120       ??R?$AABBTreeRaycast@$0A@$00VAABBTree@Gu@physx@@UBVHNode@23@U?$MainTreeRaycastPrunerCallback@$0A@@@@Gu@physx@@QEAA_NAEBVAABBTreeBounds@12@AEBVAABBTree@12@AEBV?$PxVec3T@M@2@2AEAM2AEAU?$MainTreeRaycastPrunerCallback@$0A@@@@Z 0000000180179120 f i GuExtendedBucketPruner.obj
 0001:001787e0       ??R?$AABBTreeRaycast@$0A@$00VAABBTree@Gu@physx@@UBVHNode@23@URaycastCallbackAdapter@23@@Gu@physx@@QEAA_NAEBVAABBTreeBounds@12@AEBVAABBTree@12@AEBV?$PxVec3T@M@2@2AEAM2AEAURaycastCallbackAdapter@12@@Z 00000001801797e0 f i GuExtendedBucketPruner.obj
 0001:00178e60       ?addTree@ExtendedBucketPruner@Gu@physx@@QEAAXAEBVAABBTreeMergeData@23@I@Z 0000000180179e60 f   GuExtendedBucketPruner.obj
 0001:00179140       ?buildMainAABBTree@ExtendedBucketPruner@Gu@physx@@AEAAXXZ 000000018017a140 f   GuExtendedBucketPruner.obj
 0001:001791e0       ?create@?$PxHashBase@V?$PxPair@$$CBUPrunerPayload@Gu@physx@@UExtendedBucketPrunerData@23@@physx@@UPrunerPayload@Gu@2@UExtendedBucketPrunerHash@42@UGetKey@?$PxHashMapBase@UPrunerPayload@Gu@physx@@UExtendedBucketPrunerData@23@UExtendedBucketPrunerHash@23@VPxAllocator@3@@2@VPxAllocator@2@$00@physx@@QEAAPEAV?$PxPair@$$CBUPrunerPayload@Gu@physx@@UExtendedBucketPrunerData@23@@2@AEBUPrunerPayload@Gu@2@AEA_N@Z 000000018017a1e0 f i GuExtendedBucketPruner.obj
 0001:001793b0       ?eraseInternal@?$PxHashBase@V?$PxPair@$$CBUPrunerPayload@Gu@physx@@UExtendedBucketPrunerData@23@@physx@@UPrunerPayload@Gu@2@UExtendedBucketPrunerHash@42@UGetKey@?$PxHashMapBase@UPrunerPayload@Gu@physx@@UExtendedBucketPrunerData@23@UExtendedBucketPrunerHash@23@VPxAllocator@3@@2@VPxAllocator@2@$00@physx@@AEAA_NPEAI@Z 000000018017a3b0 f i GuExtendedBucketPruner.obj
 0001:001794d0       ?find@?$PxHashMapBase@UPrunerPayload@Gu@physx@@UExtendedBucketPrunerData@23@UExtendedBucketPrunerHash@23@VPxAllocator@3@@physx@@QEBAPEBV?$PxPair@$$CBUPrunerPayload@Gu@physx@@UExtendedBucketPrunerData@23@@2@AEBUPrunerPayload@Gu@2@@Z 000000018017a4d0 f i GuExtendedBucketPruner.obj
 0001:001795c0       ?getGlobalBounds@ExtendedBucketPruner@Gu@physx@@QEBAXAEAVPxBounds3@3@@Z 000000018017a5c0 f   GuExtendedBucketPruner.obj
 0001:00179690       ?invalidateObject@ExtendedBucketPruner@Gu@physx@@AEAAXAEBUExtendedBucketPrunerData@23@IAEBUPrunerPayload@23@I@Z 000000018017a690 f   GuExtendedBucketPruner.obj
 0001:001797d0       ?overlap@ExtendedBucketPruner@Gu@physx@@QEBA_NAEBVShapeData@23@AEAUPrunerOverlapCallback@23@@Z 000000018017a7d0 f   GuExtendedBucketPruner.obj
 0001:00179fb0       ?raycast@ExtendedBucketPruner@Gu@physx@@QEBA_NAEBV?$PxVec3T@M@3@0AEAMAEAUPrunerRaycastCallback@23@@Z 000000018017afb0 f   GuExtendedBucketPruner.obj
 0001:0017a090       ?refitMarkedNodes@ExtendedBucketPruner@Gu@physx@@QEAAXPEBVPxBounds3@3@@Z 000000018017b090 f   GuExtendedBucketPruner.obj
 0001:0017a600       ?release@ExtendedBucketPruner@Gu@physx@@QEAAXXZ 000000018017b600 f   GuExtendedBucketPruner.obj
 0001:0017a6d0       ?removeMarkedObjects@ExtendedBucketPruner@Gu@physx@@QEAAII@Z 000000018017b6d0 f   GuExtendedBucketPruner.obj
 0001:0017a9f0       ?removeObject@ExtendedBucketPruner@Gu@physx@@QEAA_NAEBUPrunerPayload@23@II0I@Z 000000018017b9f0 f   GuExtendedBucketPruner.obj
 0001:0017abe0       ?reserveInternal@?$PxHashBase@V?$PxPair@$$CBUPrunerPayload@Gu@physx@@UExtendedBucketPrunerData@23@@physx@@UPrunerPayload@Gu@2@UExtendedBucketPrunerHash@42@UGetKey@?$PxHashMapBase@UPrunerPayload@Gu@physx@@UExtendedBucketPrunerData@23@UExtendedBucketPrunerHash@23@VPxAllocator@3@@2@VPxAllocator@2@$00@physx@@AEAAXI@Z 000000018017bbe0 f i GuExtendedBucketPruner.obj
 0001:0017ade0       ?shiftOrigin@ExtendedBucketPruner@Gu@physx@@QEAAXAEBV?$PxVec3T@M@3@@Z 000000018017bde0 f   GuExtendedBucketPruner.obj
 0001:0017ae60       ?swapIndex@ExtendedBucketPruner@Gu@physx@@QEAAXIAEBUPrunerPayload@23@I_N@Z 000000018017be60 f   GuExtendedBucketPruner.obj
 0001:0017af30       ?sweep@ExtendedBucketPruner@Gu@physx@@QEBA_NAEBVShapeData@23@AEBV?$PxVec3T@M@3@AEAMAEAUPrunerRaycastCallback@23@@Z 000000018017bf30 f   GuExtendedBucketPruner.obj
 0001:0017b0c0       ?updateObject@ExtendedBucketPruner@Gu@physx@@QEAA_NAEBVPxBounds3@3@AEBV?$PxTransformT@M@3@AEBUPrunerPayload@23@II@Z 000000018017c0c0 f   GuExtendedBucketPruner.obj
 0001:0017b190       ?visualize@ExtendedBucketPruner@Gu@physx@@QEBAXAEAVPxRenderOutput@3@I@Z 000000018017c190 f   GuExtendedBucketPruner.obj
 0001:0017b220       ??0?$OBBAABBTests@$00@Gu@physx@@QEAA@AEBV?$PxVec3T@M@2@AEBV?$PxMat33T@M@2@0@Z 000000018017c220 f i GuSecondaryPruner.obj
 0001:0017d160       ??_ECompanionPruner@Gu@physx@@UEAAPEAXI@Z 000000018017e160 f i GuSecondaryPruner.obj
 0001:0017d160       ??_GCompanionPruner@Gu@physx@@UEAAPEAXI@Z 000000018017e160 f i GuSecondaryPruner.obj
 0001:0017d1b0       ??_ECompanionPrunerAABBTree@@UEAAPEAXI@Z 000000018017e1b0 f i GuSecondaryPruner.obj
 0001:0017d1b0       ??_GCompanionPrunerAABBTree@@UEAAPEAXI@Z 000000018017e1b0 f i GuSecondaryPruner.obj
 0001:0017d260       ??_ECompanionPrunerBucket@@UEAAPEAXI@Z 000000018017e260 f i GuSecondaryPruner.obj
 0001:0017d260       ??_GCompanionPrunerBucket@@UEAAPEAXI@Z 000000018017e260 f i GuSecondaryPruner.obj
 0001:0017d2e0       ??_ECompanionPrunerIncremental@@UEAAPEAXI@Z 000000018017e2e0 f i GuSecondaryPruner.obj
 0001:0017d2e0       ??_GCompanionPrunerIncremental@@UEAAPEAXI@Z 000000018017e2e0 f i GuSecondaryPruner.obj
 0001:0017d360       ?addObject@CompanionPrunerAABBTree@@UEAA_NAEBUPrunerPayload@Gu@physx@@IAEBVPxBounds3@4@AEBV?$PxTransformT@M@4@II@Z 000000018017e360 f   GuSecondaryPruner.obj
 0001:0017d5a0       ?addObject@CompanionPrunerBucket@@UEAA_NAEBUPrunerPayload@Gu@physx@@IAEBVPxBounds3@4@AEBV?$PxTransformT@M@4@II@Z 000000018017e5a0 f i GuSecondaryPruner.obj
 0001:0017d5c0       ?addObject@CompanionPrunerIncremental@@UEAA_NAEBUPrunerPayload@Gu@physx@@IAEBVPxBounds3@4@AEBV?$PxTransformT@M@4@II@Z 000000018017e5c0 f i GuSecondaryPruner.obj
 0001:0017d5e0       ?addObjectInternal@CompanionPrunerAABBTree@@QEAA_NII@Z 000000018017e5e0 f   GuSecondaryPruner.obj
 0001:0017d780       ?build@CompanionPrunerAABBTree@@UEAAXXZ 000000018017e780 f   GuSecondaryPruner.obj
 0001:0017dc60       ?createCompanionPruner@Gu@physx@@YAPEAVCompanionPruner@12@_KW4CompanionPrunerType@12@PEBVPruningPool@12@@Z 000000018017ec60 f   GuSecondaryPruner.obj
 0001:0017de70       ?getGlobalBounds@CompanionPrunerAABBTree@@UEBAXAEAVPxBounds3@physx@@@Z 000000018017ee70 f   GuSecondaryPruner.obj
 0001:0017df80       ?getGlobalBounds@CompanionPrunerBucket@@UEBAXAEAVPxBounds3@physx@@@Z 000000018017ef80 f i GuSecondaryPruner.obj
 0001:0017df90       ?getGlobalBounds@CompanionPrunerIncremental@@UEBAXAEAVPxBounds3@physx@@@Z 000000018017ef90 f i GuSecondaryPruner.obj
 0001:0017dfa0       ?getNbObjects@CompanionPrunerAABBTree@@UEBAIXZ 000000018017efa0 f   GuSecondaryPruner.obj
 0001:0017dfb0       ?getNbObjects@CompanionPrunerBucket@@UEBAIXZ 000000018017efb0 f i GuSecondaryPruner.obj
 0001:0017dfc0       ?getNbObjects@CompanionPrunerIncremental@@UEBAIXZ 000000018017efc0 f i GuSecondaryPruner.obj
 0001:0017dfd0       ?growAndPushBack@?$PxArray@ULocalData@CompanionPrunerAABBTree@@V?$PxReflectionAllocator@ULocalData@CompanionPrunerAABBTree@@@physx@@@physx@@IEAAAEAULocalData@CompanionPrunerAABBTree@@AEBU34@@Z 000000018017efd0 f i GuSecondaryPruner.obj
 0001:0017e0f0       ?overlap@CompanionPrunerAABBTree@@UEBA_NAEBVShapeData@Gu@physx@@AEAUPrunerOverlapCallback@34@@Z 000000018017f0f0 f   GuSecondaryPruner.obj
 0001:0017f080       ?overlap@CompanionPrunerBucket@@UEBA_NAEBVShapeData@Gu@physx@@AEAUPrunerOverlapCallback@34@@Z 0000000180180080 f i GuSecondaryPruner.obj
 0001:0017f0a0       ?overlap@CompanionPrunerIncremental@@UEBA_NAEBVShapeData@Gu@physx@@AEAUPrunerOverlapCallback@34@@Z 00000001801800a0 f i GuSecondaryPruner.obj
 0001:0017f0c0       ?raycast@CompanionPrunerAABBTree@@UEBA_NAEBV?$PxVec3T@M@physx@@0AEAMAEAUPrunerRaycastCallback@Gu@3@@Z 00000001801800c0 f   GuSecondaryPruner.obj
 0001:0017f4a0       ?raycast@CompanionPrunerBucket@@UEBA_NAEBV?$PxVec3T@M@physx@@0AEAMAEAUPrunerRaycastCallback@Gu@3@@Z 00000001801804a0 f i GuSecondaryPruner.obj
 0001:0017f4c0       ?raycast@CompanionPrunerIncremental@@UEBA_NAEBV?$PxVec3T@M@physx@@0AEAMAEAUPrunerRaycastCallback@Gu@3@@Z 00000001801804c0 f i GuSecondaryPruner.obj
 0001:0017f4e0       ?release@CompanionPrunerAABBTree@@UEAAXXZ 00000001801804e0 f   GuSecondaryPruner.obj
 0001:0017f4f0       ?release@CompanionPrunerBucket@@UEAAXXZ 00000001801804f0 f i GuSecondaryPruner.obj
 0001:0017f500       ?release@CompanionPrunerIncremental@@UEAAXXZ 0000000180180500 f i GuSecondaryPruner.obj
 0001:0017f510       ?releaseInternal@CompanionPrunerAABBTree@@QEAAXXZ 0000000180180510 f   GuSecondaryPruner.obj
 0001:0017f590       ?removeMarkedObjects@CompanionPrunerAABBTree@@UEAAII@Z 0000000180180590 f   GuSecondaryPruner.obj
 0001:0017f5b0       ?removeMarkedObjects@CompanionPrunerBucket@@UEAAII@Z 00000001801805b0 f i GuSecondaryPruner.obj
 0001:0017f5c0       ?removeMarkedObjects@CompanionPrunerIncremental@@UEAAII@Z 00000001801805c0 f i GuSecondaryPruner.obj
 0001:0017f5d0       ?removeObject@CompanionPrunerAABBTree@@UEAA_NAEBUPrunerPayload@Gu@physx@@III@Z 00000001801805d0 f   GuSecondaryPruner.obj
 0001:0017f670       ?removeObject@CompanionPrunerBucket@@UEAA_NAEBUPrunerPayload@Gu@physx@@III@Z 0000000180180670 f i GuSecondaryPruner.obj
 0001:0017f690       ?removeObject@CompanionPrunerIncremental@@UEAA_NAEBUPrunerPayload@Gu@physx@@III@Z 0000000180180690 f i GuSecondaryPruner.obj
 0001:0017f6b0       ?shiftOrigin@CompanionPrunerAABBTree@@UEAAXAEBV?$PxVec3T@M@physx@@@Z 00000001801806b0 f   GuSecondaryPruner.obj
 0001:0017f7e0       ?shiftOrigin@CompanionPrunerIncremental@@UEAAXAEBV?$PxVec3T@M@physx@@@Z 00000001801807e0 f i GuSecondaryPruner.obj
 0001:0017f7f0       ?swapIndex@CompanionPrunerIncremental@@UEAAXII@Z 00000001801807f0 f i GuSecondaryPruner.obj
 0001:0017f800       ?sweep@CompanionPrunerAABBTree@@UEBA_NAEBVShapeData@Gu@physx@@AEBV?$PxVec3T@M@4@AEAMAEAUPrunerRaycastCallback@34@@Z 0000000180180800 f   GuSecondaryPruner.obj
 0001:0017fd40       ?sweep@CompanionPrunerBucket@@UEBA_NAEBVShapeData@Gu@physx@@AEBV?$PxVec3T@M@4@AEAMAEAUPrunerRaycastCallback@34@@Z 0000000180180d40 f i GuSecondaryPruner.obj
 0001:0017fd60       ?sweep@CompanionPrunerIncremental@@UEBA_NAEBVShapeData@Gu@physx@@AEBV?$PxVec3T@M@4@AEAMAEAUPrunerRaycastCallback@34@@Z 0000000180180d60 f i GuSecondaryPruner.obj
 0001:0017fd80       ?timeStampChange@CompanionPrunerIncremental@@UEAAXXZ 0000000180180d80 f i GuSecondaryPruner.obj
 0001:0017fda0       ?updateObject@CompanionPrunerAABBTree@@UEAA_NAEBUPrunerPayload@Gu@physx@@IAEBVPxBounds3@4@AEBV?$PxTransformT@M@4@I@Z 0000000180180da0 f   GuSecondaryPruner.obj
 0001:0017fe20       ?updateObject@CompanionPrunerBucket@@UEAA_NAEBUPrunerPayload@Gu@physx@@IAEBVPxBounds3@4@AEBV?$PxTransformT@M@4@I@Z 0000000180180e20 f i GuSecondaryPruner.obj
 0001:0017fe40       ?updateObject@CompanionPrunerIncremental@@UEAA_NAEBUPrunerPayload@Gu@physx@@IAEBVPxBounds3@4@AEBV?$PxTransformT@M@4@I@Z 0000000180180e40 f i GuSecondaryPruner.obj
 0001:0017fe50       ?visualize@CompanionPrunerAABBTree@@UEBAXAEAVPxRenderOutput@physx@@I@Z 0000000180180e50 f   GuSecondaryPruner.obj
 0001:0017fe70       ?visualize@CompanionPrunerIncremental@@UEBAXAEAVPxRenderOutput@physx@@I@Z 0000000180180e70 f i GuSecondaryPruner.obj
 0001:0017fe80       ??0AABBPruner@Gu@physx@@QEAA@_N_KW4CompanionPrunerType@12@W4BVHBuildStrategy@12@I@Z 0000000180180e80 f   GuAABBPruner.obj
 0001:0017ffb0       ??1AABBPruner@Gu@physx@@UEAA@XZ 0000000180180fb0 f   GuAABBPruner.obj
 0001:00180100       ??_EAABBPruner@Gu@physx@@UEAAPEAXI@Z 0000000180181100 f i GuAABBPruner.obj
 0001:00180100       ??_GAABBPruner@Gu@physx@@UEAAPEAXI@Z 0000000180181100 f i GuAABBPruner.obj
 0001:00180170       ?addObjects@AABBPruner@Gu@physx@@UEAA_NPEAIPEBVPxBounds3@3@PEBUPrunerPayload@23@PEBV?$PxTransformT@M@3@I_N@Z 0000000180181170 f   GuAABBPruner.obj
 0001:001802d0       ?buildStep@AABBPruner@Gu@physx@@UEAA_N_N@Z 00000001801812d0 f   GuAABBPruner.obj
 0001:00180500       ?commit@AABBPruner@Gu@physx@@UEAAXXZ 0000000180181500 f   GuAABBPruner.obj
 0001:00180880       ?getGlobalBounds@AABBPruner@Gu@physx@@UEBAXAEAVPxBounds3@3@@Z 0000000180181880 f   GuAABBPruner.obj
 0001:001809c0       ?getPayloadData@AABBPruner@Gu@physx@@UEBAAEBUPrunerPayload@23@IPEAUPrunerPayloadData@23@@Z 00000001801819c0 f i GuAABBPruner.obj
 0001:00180a20       ?growAndPushBack@?$PxArray@UNewTreeFixup@AABBPruner@Gu@physx@@V?$PxReflectionAllocator@UNewTreeFixup@AABBPruner@Gu@physx@@@4@@physx@@IEAAAEAUNewTreeFixup@AABBPruner@Gu@2@AEBU3452@@Z 0000000180181a20 f i GuAABBPruner.obj
 0001:00180b40       ?isDynamic@AABBPruner@Gu@physx@@UEBA_NXZ 0000000180181b40 f i GuAABBPruner.obj
 0001:00180b50       ?merge@AABBPruner@Gu@physx@@UEAAXPEBX@Z 0000000180181b50 f   GuAABBPruner.obj
 0001:00180bd0       ?overlap@AABBPruner@Gu@physx@@UEBA_NAEBVShapeData@23@AEAUPrunerOverlapCallback@23@@Z 0000000180181bd0 f   GuAABBPruner.obj
 0001:001811a0       ?preallocate@AABBPruner@Gu@physx@@UEAAXI@Z 00000001801821a0 f i GuAABBPruner.obj
 0001:001811b0       ?prepareBuild@AABBPruner@Gu@physx@@UEAA_NXZ 00000001801821b0 f   GuAABBPruner.obj
 0001:00181340       ?purge@AABBPruner@Gu@physx@@UEAAXXZ 0000000180182340 f   GuAABBPruner.obj
 0001:00181360       ?raycast@AABBPruner@Gu@physx@@UEBA_NAEBV?$PxVec3T@M@3@0AEAMAEAUPrunerRaycastCallback@23@@Z 0000000180182360 f   GuAABBPruner.obj
 0001:00181450       ?release@AABBPruner@Gu@physx@@QEAAXXZ 0000000180182450 f   GuAABBPruner.obj
 0001:00181580       ?removeObjects@AABBPruner@Gu@physx@@UEAAXPEBIIPEAUPrunerPayloadRemovalCallback@23@@Z 0000000180182580 f   GuAABBPruner.obj
 0001:00181770       ?setRebuildRateHint@AABBPruner@Gu@physx@@UEAAXI@Z 0000000180182770 f   GuAABBPruner.obj
 0001:00181790       ?setTransform@AABBPruner@Gu@physx@@UEAA_NIAEBV?$PxTransformT@M@3@@Z 0000000180182790 f i GuAABBPruner.obj
 0001:001817f0       ?shiftOrigin@AABBPruner@Gu@physx@@UEAAXAEBV?$PxVec3T@M@3@@Z 00000001801827f0 f   GuAABBPruner.obj
 0001:00181860       ?sweep@AABBPruner@Gu@physx@@UEBA_NAEBVShapeData@23@AEBV?$PxVec3T@M@3@AEAMAEAUPrunerRaycastCallback@23@@Z 0000000180182860 f   GuAABBPruner.obj
 0001:001819f0       ?updateObjects@AABBPruner@Gu@physx@@UEAAXPEBIIM0PEBVPxBounds3@3@PEBUPxTransformPadded@3@@Z 00000001801829f0 f   GuAABBPruner.obj
 0001:00181b90       ?visualize@AABBPruner@Gu@physx@@UEBAXAEAVPxRenderOutput@3@II@Z 0000000180182b90 f   GuAABBPruner.obj
 0001:00181c40       ??0ActorShapeMap@Gu@physx@@QEAA@XZ 0000000180182c40 f   GuActorShapeMap.obj
 0001:00181ca0       ??1ActorShapeMap@Gu@physx@@QEAA@XZ 0000000180182ca0 f   GuActorShapeMap.obj
 0001:00181d00       ?add@ActorShapeMap@Gu@physx@@QEAA_NIPEBX0_K@Z 0000000180182d00 f   GuActorShapeMap.obj
 0001:00181e90       ?create@?$PxHashBase@V?$PxPair@$$CBUActorShape@ActorShapeMap@Gu@physx@@_K@physx@@UActorShape@ActorShapeMap@Gu@2@U?$PxHash@UActorShape@ActorShapeMap@Gu@physx@@@2@UGetKey@?$PxHashMapBase@UActorShape@ActorShapeMap@Gu@physx@@_KU?$PxHash@UActorShape@ActorShapeMap@Gu@physx@@@4@VPxAllocator@4@@2@VPxAllocator@2@$00@physx@@QEAAPEAV?$PxPair@$$CBUActorShape@ActorShapeMap@Gu@physx@@_K@2@AEBUActorShape@ActorShapeMap@Gu@2@AEA_N@Z 0000000180182e90 f i GuActorShapeMap.obj
 0001:00182080       ?eraseInternal@?$PxHashBase@V?$PxPair@$$CBUActorShape@ActorShapeMap@Gu@physx@@_K@physx@@UActorShape@ActorShapeMap@Gu@2@U?$PxHash@UActorShape@ActorShapeMap@Gu@physx@@@2@UGetKey@?$PxHashMapBase@UActorShape@ActorShapeMap@Gu@physx@@_KU?$PxHash@UActorShape@ActorShapeMap@Gu@physx@@@4@VPxAllocator@4@@2@VPxAllocator@2@$00@physx@@AEAA_NPEAI@Z 0000000180183080 f i GuActorShapeMap.obj
 0001:00182190       ?find@ActorShapeMap@Gu@physx@@QEBA_KIPEBX0@Z 0000000180183190 f   GuActorShapeMap.obj
 0001:00182280       ?remove@ActorShapeMap@Gu@physx@@QEAA_NIPEBX0PEA_K@Z 0000000180183280 f   GuActorShapeMap.obj
 0001:001823d0       ?reserveInternal@?$PxHashBase@V?$PxPair@$$CBUActorShape@ActorShapeMap@Gu@physx@@_K@physx@@UActorShape@ActorShapeMap@Gu@2@U?$PxHash@UActorShape@ActorShapeMap@Gu@physx@@@2@UGetKey@?$PxHashMapBase@UActorShape@ActorShapeMap@Gu@physx@@_KU?$PxHash@UActorShape@ActorShapeMap@Gu@physx@@@4@VPxAllocator@4@@2@VPxAllocator@2@$00@physx@@AEAAXI@Z 00000001801833d0 f i GuActorShapeMap.obj
 0001:001825e0       ??0QuerySystem@Gu@physx@@QEAA@_KMAEBVAdapter@12@_N@Z 00000001801835e0 f   GuQuerySystem.obj
 0001:001826c0       ??1QuerySystem@Gu@physx@@QEAA@XZ 00000001801836c0 f   GuQuerySystem.obj
 0001:00182900       ??_GPrunerExt@QuerySystem@Gu@physx@@QEAAPEAXI@Z 0000000180183900 f i GuQuerySystem.obj
 0001:00182a00       ?addPruner@QuerySystem@Gu@physx@@QEAAIPEAVPruner@23@I@Z 0000000180183a00 f   GuQuerySystem.obj
 0001:00182b30       ?addPrunerShape@QuerySystem@Gu@physx@@QEAA_KAEBUPrunerPayload@23@I_NAEBV?$PxTransformT@M@3@PEBVPxBounds3@3@@Z 0000000180183b30 f   GuQuerySystem.obj
 0001:00182c70       ?addToDirtyList@PrunerExt@QuerySystem@Gu@physx@@QEAAXIIAEBV?$PxTransformT@M@4@PEBVPxBounds3@4@@Z 0000000180183c70 f   GuQuerySystem.obj
 0001:00182eb0       ?commitUpdates@QuerySystem@Gu@physx@@QEAAXXZ 0000000180183eb0 f   GuQuerySystem.obj
 0001:00182f60       ?createTreeOfPruners@QuerySystem@Gu@physx@@QEAAXXZ 0000000180183f60 f   GuQuerySystem.obj
 0001:001830d0       ?flushMemory@QuerySystem@Gu@physx@@QEAAXXZ 00000001801840d0 f   GuQuerySystem.obj
 0001:00183160       ?getPayloadData@QuerySystem@Gu@physx@@QEBAAEBUPrunerPayload@23@_KPEAUPrunerPayloadData@23@@Z 0000000180184160 f   GuQuerySystem.obj
 0001:00183180       ?growAndPushBack@?$PxArray@PEAUPrunerExt@QuerySystem@Gu@physx@@V?$PxReflectionAllocator@PEAUPrunerExt@QuerySystem@Gu@physx@@@4@@physx@@IEAAAEAPEAUPrunerExt@QuerySystem@Gu@2@AEBQEAU3452@@Z 0000000180184180 f i GuQuerySystem.obj
 0001:001832a0       ?overlap@QuerySystem@Gu@physx@@QEBAXAEBVShapeData@23@AEAUPrunerOverlapCallback@23@PEBVPrunerFilter@23@@Z 00000001801842a0 f   GuQuerySystem.obj
 0001:001833a0       ?processDirtyLists@QuerySystem@Gu@physx@@AEAAXXZ 00000001801843a0 f   GuQuerySystem.obj
 0001:00183680       ?raycast@QuerySystem@Gu@physx@@QEBAXAEBV?$PxVec3T@M@3@0AEAMAEAUPrunerRaycastCallback@23@PEBVPrunerFilter@23@@Z 0000000180184680 f   GuQuerySystem.obj
 0001:001837c0       ?recreate@?$PxArray@UData@PrunerExt@QuerySystem@Gu@physx@@V?$PxReflectionAllocator@UData@PrunerExt@QuerySystem@Gu@physx@@@5@@physx@@IEAAXI@Z 00000001801847c0 f i GuQuerySystem.obj
 0001:00183ad0       ?removePruner@QuerySystem@Gu@physx@@QEAAXI@Z 0000000180184ad0 f   GuQuerySystem.obj
 0001:00183bb0       ?removePrunerShape@QuerySystem@Gu@physx@@QEAAX_KPEAUPrunerPayloadRemovalCallback@23@@Z 0000000180184bb0 f   GuQuerySystem.obj
 0001:00183de0       ?sweep@QuerySystem@Gu@physx@@QEBAXAEBVShapeData@23@AEBV?$PxVec3T@M@3@AEAMAEAUPrunerRaycastCallback@23@PEBVPrunerFilter@23@@Z 0000000180184de0 f   GuQuerySystem.obj
 0001:00183f10       ?sync@QuerySystem@Gu@physx@@QEAAXIPEBI0PEBVPxBounds3@3@PEBUPxTransformPadded@3@I@Z 0000000180184f10 f   GuQuerySystem.obj
 0001:00183fc0       ?update@QuerySystem@Gu@physx@@QEAAX_N0@Z 0000000180184fc0 f   GuQuerySystem.obj
 0001:00184090       ?updatePrunerShape@QuerySystem@Gu@physx@@QEAAX_K_NAEBV?$PxTransformT@M@3@PEBVPxBounds3@3@@Z 0000000180185090 f   GuQuerySystem.obj
 0001:00184280       createAABBPruner           0000000180185280 f   GuFactory.obj
 0001:00184340       createBucketPruner         0000000180185340 f   GuFactory.obj
 0001:001843d0       createIncrementalPruner    00000001801853d0 f   GuFactory.obj
 0001:00184460       ??$PxSmallSort@I$$CBUSortBoundsPredicate@physx@@@physx@@YAXPEAIHHAEBUSortBoundsPredicate@0@@Z 0000000180185460 f i GuRTreeCooking.obj
 0001:00184700       ??$PxSort@IU?$PxLess@I@physx@@V?$PxReflectionAllocator@I@2@@physx@@YAXPEAIIAEBU?$PxLess@I@0@AEBV?$PxReflectionAllocator@I@0@I@Z 0000000180185700 f i GuRTreeCooking.obj
 0001:00184b50       ??$PxSort@IUSortBoundsPredicate@physx@@V?$PxReflectionAllocator@I@2@@physx@@YAXPEAIIAEBUSortBoundsPredicate@0@AEBV?$PxReflectionAllocator@I@0@I@Z 0000000180185b50 f i GuRTreeCooking.obj
 0001:00185010       ??$quickSelectFirstK@UBoundsLTE@physx@@@quickSelect@physx@@YAXPEIAIIIIAEBUBoundsLTE@1@@Z 0000000180186010 f i GuRTreeCooking.obj
 0001:001851f0       ?allocate@?$PxArray@UInterval@physx@@V?$PxInlineAllocator@$0CAAA@V?$PxReflectionAllocator@UInterval@physx@@@physx@@@2@@physx@@IEAAPEAUInterval@2@I@Z 00000001801861f0 f i GuRTreeCooking.obj
 0001:001852b0       ?allocate@?$PxArray@UPxBounds3V@physx@@V?$PxReflectionAllocator@UPxBounds3V@physx@@@2@@physx@@IEAAPEAUPxBounds3V@2@I@Z 00000001801862b0 f i GuRTreeCooking.obj
 0001:00185350       ?allocate@?$PxArray@URTreeNodeNQ@physx@@V?$PxReflectionAllocator@URTreeNodeNQ@physx@@@2@@physx@@IEAAPEAURTreeNodeNQ@2@I@Z 0000000180186350 f i GuRTreeCooking.obj
 0001:001853f0       ?allocate@?$PxArray@URTreeNodeQ@Gu@physx@@V?$PxReflectionAllocator@URTreeNodeQ@Gu@physx@@@3@@physx@@IEAAPEAURTreeNodeQ@Gu@2@I@Z 00000001801863f0 f i GuRTreeCooking.obj
 0001:00186100       ?buildFromTriangles@RTreeCooker@physx@@SAXAEAURTree@Gu@2@PEBV?$PxVec3T@M@2@IPEBGPEBIIAEAV?$PxArray@IV?$PxReflectionAllocator@I@physx@@@2@PEAURemapCallback@12@MW4Enum@PxMeshCookingHint@2@@Z 0000000180187100 f   GuRTreeCooking.obj
 0001:001863c0       ?copy@?$PxArray@URTreeNodeNQ@physx@@V?$PxReflectionAllocator@URTreeNodeNQ@physx@@@2@@physx@@KAXPEAURTreeNodeNQ@2@0PEBU32@@Z 00000001801873c0 f i GuRTreeCooking.obj
 0001:00186580       ?growAndPushBack@?$PxArray@UInterval@physx@@V?$PxInlineAllocator@$0CAAA@V?$PxReflectionAllocator@UInterval@physx@@@physx@@@2@@physx@@IEAAAEAUInterval@2@AEBU32@@Z 0000000180187580 f i GuRTreeCooking.obj
 0001:00186660       ?growAndPushBack@?$PxArray@UPxBounds3V@physx@@V?$PxReflectionAllocator@UPxBounds3V@physx@@@2@@physx@@IEAAAEAUPxBounds3V@2@AEBU32@@Z 0000000180187660 f i GuRTreeCooking.obj
 0001:00186730       ?growAndPushBack@?$PxArray@URTreeNodeNQ@physx@@V?$PxReflectionAllocator@URTreeNodeNQ@physx@@@2@@physx@@IEAAAEAURTreeNodeNQ@2@AEBU32@@Z 0000000180187730 f i GuRTreeCooking.obj
 0001:00186810       ?growAndPushBack@?$PxArray@URTreeNodeQ@Gu@physx@@V?$PxReflectionAllocator@URTreeNodeQ@Gu@physx@@@3@@physx@@IEAAAEAURTreeNodeQ@Gu@2@AEBU342@@Z 0000000180187810 f i GuRTreeCooking.obj
 0001:001868f0       ?recreate@?$PxArray@UPxBounds3V@physx@@V?$PxReflectionAllocator@UPxBounds3V@physx@@@2@@physx@@IEAAXI@Z 00000001801878f0 f i GuRTreeCooking.obj
 0001:001869a0       ?recreate@?$PxArray@URTreeNodeNQ@physx@@V?$PxReflectionAllocator@URTreeNodeNQ@physx@@@2@@physx@@IEAAXI@Z 00000001801879a0 f i GuRTreeCooking.obj
 0001:00186a30       ?recreate@?$PxArray@URTreeNodeQ@Gu@physx@@V?$PxReflectionAllocator@URTreeNodeQ@Gu@physx@@@3@@physx@@IEAAXI@Z 0000000180187a30 f i GuRTreeCooking.obj
 0001:00186af0       ?resizeUninitialized@?$PxArray@URTreeNodeNQ@physx@@V?$PxReflectionAllocator@URTreeNodeNQ@physx@@@2@@physx@@QEAAXI@Z 0000000180187af0 f i GuRTreeCooking.obj
 0001:00186b30       ?sort4@SubSortQuick@physx@@QEAAXPEIAIIAEAV?$PxArray@URTreeNodeNQ@physx@@V?$PxReflectionAllocator@URTreeNodeNQ@physx@@@2@@2@AEAIAEAUPxBounds3V@2@I@Z 0000000180187b30 f i GuRTreeCooking.obj
 0001:00186ec0       ?sort4@SubSortSAH@physx@@QEAAXPEAIIAEAV?$PxArray@URTreeNodeNQ@physx@@V?$PxReflectionAllocator@URTreeNodeNQ@physx@@@2@@2@AEAIIPEAURTreeNodeNQ@2@@Z 0000000180187ec0 f i GuRTreeCooking.obj
 0001:00187720       ?split@SubSortSAH@physx@@QEAAIPEAII@Z 0000000180188720 f i GuRTreeCooking.obj
 0001:001881a0       cookBVH                    00000001801891a0 f   GuCookingBVH.obj
 0001:00188300       createBVH                  0000000180189300 f   GuCookingBVH.obj
 0001:00188460       cookHeightField            0000000180189460 f   GuCookingHF.obj
 0001:00188520       createHeightField          0000000180189520 f   GuCookingHF.obj
 0001:00188b00       ?isFinite@?$PxVec3T@M@physx@@QEBA_NXZ 0000000180189b00 f i GuCookingConvexMesh.obj
 0001:00188b60       computeHullPolygons        0000000180189b60 f   GuCookingConvexMesh.obj
 0001:00188d40       cookConvexMesh             0000000180189d40 f   GuCookingConvexMesh.obj
 0001:00188eb0       createConvexMesh           0000000180189eb0 f   GuCookingConvexMesh.obj
 0001:00189050       validateConvexMesh         000000018018a050 f   GuCookingConvexMesh.obj
 0001:00189170       ??1BV4TriangleMeshBuilder@physx@@UEAA@XZ 000000018018a170 f   GuCookingTriangleMesh.obj
 0001:00189200       ??1RTreeTriangleMeshBuilder@physx@@UEAA@XZ 000000018018a200 f   GuCookingTriangleMesh.obj
 0001:00189270       ??_EBV4TriangleMeshBuilder@physx@@UEAAPEAXI@Z 000000018018a270 f i GuCookingTriangleMesh.obj
 0001:00189270       ??_GBV4TriangleMeshBuilder@physx@@UEAAPEAXI@Z 000000018018a270 f i GuCookingTriangleMesh.obj
 0001:001892b0       ??_ERTreeTriangleMeshBuilder@physx@@UEAAPEAXI@Z 000000018018a2b0 f i GuCookingTriangleMesh.obj
 0001:001892b0       ??_GRTreeTriangleMeshBuilder@physx@@UEAAPEAXI@Z 000000018018a2b0 f i GuCookingTriangleMesh.obj
 0001:001892f0       ??_ETriangleMeshBuilder@physx@@UEAAPEAXI@Z 000000018018a2f0 f i GuCookingTriangleMesh.obj
 0001:001892f0       ??_GTriangleMeshBuilder@physx@@UEAAPEAXI@Z 000000018018a2f0 f i GuCookingTriangleMesh.obj
 0001:00189ca0       ?buildInertiaTensor@TriangleMeshBuilder@physx@@IEAAXXZ 000000018018aca0 f   GuCookingTriangleMesh.obj
 0001:00189df0       ?buildInertiaTensorFromSDF@TriangleMeshBuilder@physx@@IEAAXXZ 000000018018adf0 f   GuCookingTriangleMesh.obj
 0001:0018a010       ?cleanMesh@TriangleMeshBuilder@physx@@QEAA_N_NPEAW4Enum@PxTriangleMeshCookingResult@2@@Z 000000018018b010 f   GuCookingTriangleMesh.obj
 0001:0018a4a0       ?createGRBMidPhaseAndData@TriangleMeshBuilder@physx@@QEAAXI@Z 000000018018b4a0 f   GuCookingTriangleMesh.obj
 0001:0018a650       ?createMidPhaseStructure@BV32TriangleMeshBuilder@physx@@SAXAEBUPxCookingParams@2@AEAVTriangleMeshData@Gu@2@AEAVBV32Tree@52@@Z 000000018018b650 f   GuCookingTriangleMesh.obj
 0001:0018a890       ?createMidPhaseStructure@BV4TriangleMeshBuilder@physx@@UEAAXXZ 000000018018b890 f   GuCookingTriangleMesh.obj
 0001:0018ab30       ?createMidPhaseStructure@RTreeTriangleMeshBuilder@physx@@UEAAXXZ 000000018018bb30 f   GuCookingTriangleMesh.obj
 0001:0018ac20       ?createSharedEdgeData@TriangleMeshBuilder@physx@@QEAAX_N0@Z 000000018018bc20 f   GuCookingTriangleMesh.obj
 0001:0018b2c0       ?createVertMapping@TriangleMeshBuilder@physx@@QEAAXXZ 000000018018c2c0 f   GuCookingTriangleMesh.obj
 0001:0018b620       ?importMesh@TriangleMeshBuilder@physx@@IEAA_NAEBVPxTriangleMeshDesc@2@AEBUPxCookingParams@2@PEAW4Enum@PxTriangleMeshCookingResult@2@_N@Z 000000018018c620 f   GuCookingTriangleMesh.obj
 0001:0018baf0       ?isValid@PxTriangleMeshDesc@physx@@QEBA_NXZ 000000018018caf0 f i GuCookingTriangleMesh.obj
 0001:0018bbc0       ?loadFromDescInternal@TriangleMeshBuilder@physx@@IEAA_NAEAVPxTriangleMeshDesc@2@PEAW4Enum@PxTriangleMeshCookingResult@2@_N@Z 000000018018cbc0 f   GuCookingTriangleMesh.obj
 0001:0018bdd0       ?onMeshIndexFormatChange@BV4TriangleMeshBuilder@physx@@UEAAXXZ 000000018018cdd0 f   GuCookingTriangleMesh.obj
 0001:0018be10       ?remap@RTreeCookerRemap@@UEAAXPEAIII@Z 000000018018ce10 f i GuCookingTriangleMesh.obj
 0001:0018be30       ?remapTopology@TriangleMeshBuilder@physx@@QEAAXPEBI@Z 000000018018ce30 f   GuCookingTriangleMesh.obj
 0001:0018c0c0       ?save@TriangleMeshBuilder@physx@@QEBA_NAEAVPxOutputStream@2@_NAEBUPxCookingParams@2@@Z 000000018018d0c0 f   GuCookingTriangleMesh.obj
 0001:0018c870       ?saveMidPhaseStructure@BV32TriangleMeshBuilder@physx@@SAXPEAVBV32Tree@Gu@2@AEAVPxOutputStream@2@_N@Z 000000018018d870 f   GuCookingTriangleMesh.obj
 0001:0018ca70       ?saveMidPhaseStructure@BV4TriangleMeshBuilder@physx@@UEBAXAEAVPxOutputStream@2@_N@Z 000000018018da70 f   GuCookingTriangleMesh.obj
 0001:0018cc20       ?saveMidPhaseStructure@RTreeTriangleMeshBuilder@physx@@UEBAXAEAVPxOutputStream@2@_N@Z 000000018018dc20 f   GuCookingTriangleMesh.obj
 0001:0018ce60       cookTriangleMesh           000000018018de60 f   GuCookingTriangleMesh.obj
 0001:0018d170       createTriangleMesh         000000018018e170 f   GuCookingTriangleMesh.obj
 0001:0018d380       validateTriangleMesh       000000018018e380 f   GuCookingTriangleMesh.obj
 0001:0018d630       ??0SoftBodyCollisionData@Gu@physx@@QEAA@XZ 000000018018e630 f i GuCookingTetrahedronMesh.obj
 0001:0018d690       ??_ECollisionTetrahedronMeshData@Gu@physx@@UEAAPEAXI@Z 000000018018e690 f i GuCookingTetrahedronMesh.obj
 0001:0018d690       ??_GCollisionTetrahedronMeshData@Gu@physx@@UEAAPEAXI@Z 000000018018e690 f i GuCookingTetrahedronMesh.obj
 0001:0018d760       ??_EPxCollisionTetrahedronMeshData@physx@@UEAAPEAXI@Z 000000018018e760 f i GuCookingTetrahedronMesh.obj
 0001:0018d760       ??_GPxCollisionTetrahedronMeshData@physx@@UEAAPEAXI@Z 000000018018e760 f i GuCookingTetrahedronMesh.obj
 0001:0018d7b0       ??_EPxSimulationTetrahedronMeshData@physx@@UEAAPEAXI@Z 000000018018e7b0 f i GuCookingTetrahedronMesh.obj
 0001:0018d7b0       ??_GPxSimulationTetrahedronMeshData@physx@@UEAAPEAXI@Z 000000018018e7b0 f i GuCookingTetrahedronMesh.obj
 0001:0018d800       ??_ESimulationTetrahedronMeshData@Gu@physx@@UEAAPEAXI@Z 000000018018e800 f i GuCookingTetrahedronMesh.obj
 0001:0018d800       ??_GSimulationTetrahedronMeshData@Gu@physx@@UEAAPEAXI@Z 000000018018e800 f i GuCookingTetrahedronMesh.obj
 0001:0018d8d0       ?closestPtPointTetrahedron@Gu@physx@@YA?AV?$PxVec3T@M@2@AEBV32@0000@Z 000000018018e8d0 f i GuCookingTetrahedronMesh.obj
 0001:0018ea10       ?combineGridModelPartitions@@YAXAEBVTetrahedronMeshData@Gu@physx@@AEAVSoftBodySimulationData@23@PEAPEAI@Z 000000018018fa10 f   GuCookingTetrahedronMesh.obj
 0001:0018f250       ?combineGridModelPartitionsHexMesh@@YAXAEBVTetrahedronMeshData@Gu@physx@@AEAVSoftBodySimulationData@23@PEAPEAI@Z 0000000180190250 f   GuCookingTetrahedronMesh.obj
 0001:0018fb80       ?computeBarycentric@physx@@YAXAEBV?$PxVec3T@M@1@0000AEAV?$PxVec4T@M@1@@Z 0000000180190b80 f i GuCookingTetrahedronMesh.obj
 0001:0018fe30       ?computeCollisionData@TetrahedronMeshBuilder@physx@@SA_NAEBVPxTetrahedronMeshDesc@2@AEAVTetrahedronMeshData@Gu@2@AEAVSoftBodyCollisionData@52@AEBUPxCookingParams@2@_N@Z 0000000180190e30 f   GuCookingTetrahedronMesh.obj
 0001:00190060       ?computeGridModelTetrahedronPartitions@@YAPEAIAEBVTetrahedronMeshData@Gu@physx@@AEAVSoftBodySimulationData@23@@Z 0000000180191060 f   GuCookingTetrahedronMesh.obj
 0001:001904f0       ?computeModelsMapping@TetrahedronMeshBuilder@physx@@SAXAEAVTetrahedronMeshData@Gu@2@AEBV342@AEBVSoftBodyCollisionData@42@AEAVCollisionMeshMappingData@42@_NPEBUPxBoundedData@2@@Z 00000001801914f0 f   GuCookingTetrahedronMesh.obj
 0001:001910e0       ?computeRestPoseAndPointMass@@YAXPEAU?$TetrahedronT@I@Gu@physx@@IPEBV?$PxVec3T@M@3@PEAMPEAV?$PxMat33T@M@3@@Z 00000001801920e0 f   GuCookingTetrahedronMesh.obj
 0001:00191520       ?computeSimData@TetrahedronMeshBuilder@physx@@SAXAEBVPxTetrahedronMeshDesc@2@AEAVTetrahedronMeshData@Gu@2@AEAVSoftBodySimulationData@52@AEBUPxCookingParams@2@@Z 0000000180192520 f   GuCookingTetrahedronMesh.obj
 0001:00191bf0       ?computeTetData@TetrahedronMeshBuilder@physx@@SAXAEBVPxTetrahedronMeshDesc@2@AEAVTetrahedronMeshData@Gu@2@@Z 0000000180192bf0 f   GuCookingTetrahedronMesh.obj
 0001:00191cd0       ?computeTetrahedronPartition@@YAIPEBU?$TetrahedronT@I@Gu@physx@@IPEAII@Z 0000000180192cd0 f   GuCookingTetrahedronMesh.obj
 0001:00191dc0       ?createCollisionModelMapping@TetrahedronMeshBuilder@physx@@SAXAEBVTetrahedronMeshData@Gu@2@AEBVSoftBodyCollisionData@42@AEAVCollisionMeshMappingData@42@@Z 0000000180192dc0 f   GuCookingTetrahedronMesh.obj
 0001:00192380       ?createGRBMidPhaseAndData@TetrahedronMeshBuilder@physx@@SAXIAEAVTetrahedronMeshData@Gu@2@AEAVSoftBodyCollisionData@42@AEBUPxCookingParams@2@@Z 0000000180193380 f   GuCookingTetrahedronMesh.obj
 0001:001930c0       ?createMidPhaseStructure@BV32TetrahedronMeshBuilder@physx@@SAXAEBUPxCookingParams@2@AEAVTetrahedronMeshData@Gu@2@AEAVBV32Tree@52@AEAVSoftBodyCollisionData@52@@Z 00000001801940c0 f   GuCookingTetrahedronMesh.obj
 0001:00193390       ?createMidPhaseStructure@TetrahedronMeshBuilder@physx@@SAXAEAVTetrahedronMeshData@Gu@2@AEAVSoftBodyCollisionData@42@AEBUPxCookingParams@2@@Z 0000000180194390 f   GuCookingTetrahedronMesh.obj
 0001:00194050       ?getData@CollisionTetrahedronMeshData@Gu@physx@@UEAAPEAVPxSoftBodyCollisionData@3@XZ 0000000180195050 f i GuCookingTetrahedronMesh.obj
 0001:00194050       ?getData@CollisionTetrahedronMeshData@Gu@physx@@UEBAPEBVPxSoftBodyCollisionData@3@XZ 0000000180195050 f i GuCookingTetrahedronMesh.obj
 0001:00194050       ?getData@SimulationTetrahedronMeshData@Gu@physx@@UEAAPEAVPxSoftBodySimulationData@3@XZ 0000000180195050 f i GuCookingTetrahedronMesh.obj
 0001:00194070       ?importMesh@TetrahedronMeshBuilder@physx@@SA_NAEBVPxTetrahedronMeshDesc@2@AEBUPxCookingParams@2@AEAVTetrahedronMeshData@Gu@2@AEAVSoftBodyCollisionData@62@_N@Z 0000000180195070 f   GuCookingTetrahedronMesh.obj
 0001:00194360       ?isValid@PxTetrahedronMeshDesc@physx@@QEBA_NXZ 0000000180195360 f i GuCookingTetrahedronMesh.obj
 0001:001943d0       ?loadFromDesc@TetrahedronMeshBuilder@physx@@SA_NAEBVPxTetrahedronMeshDesc@2@0VPxSoftBodySimulationDataDesc@2@AEAVTetrahedronMeshData@Gu@2@AEAVSoftBodySimulationData@62@2AEAVSoftBodyCollisionData@62@AEAVCollisionMeshMappingData@62@AEBUPxCookingParams@2@_N@Z 00000001801953d0 f   GuCookingTetrahedronMesh.obj
 0001:00194540       ?release@CollisionTetrahedronMeshData@Gu@physx@@UEAAXXZ 0000000180195540 f i GuCookingTetrahedronMesh.obj
 0001:00194560       ?reserveInternal@?$PxHashBase@V?$PxPair@$$CBVSortedTriangleInds@@I@physx@@VSortedTriangleInds@@USortedTriangleIndsHash@@UGetKey@?$PxHashMapBase@VSortedTriangleInds@@IUSortedTriangleIndsHash@@VPxAllocator@physx@@@2@VPxAllocator@2@$00@physx@@AEAAXI@Z 0000000180195560 f i GuCookingTetrahedronMesh.obj
 0001:001947a0       ?saveSoftBodyMeshData@TetrahedronMeshBuilder@physx@@SA_NAEAVPxOutputStream@2@_NAEBUPxCookingParams@2@AEBVTetrahedronMeshData@Gu@2@AEBVSoftBodySimulationData@62@3AEBVSoftBodyCollisionData@62@AEBVCollisionMeshMappingData@62@@Z 00000001801957a0 f   GuCookingTetrahedronMesh.obj
 0001:00194eb0       ?saveTetrahedronMeshData@TetrahedronMeshBuilder@physx@@SA_NAEAVPxOutputStream@2@_NAEBUPxCookingParams@2@AEBVTetrahedronMeshData@Gu@2@@Z 0000000180195eb0 f   GuCookingTetrahedronMesh.obj
 0001:00195060       ?smoothMassRatiosWhilePreservingTotalMass@@YAXPEAMIPEBIHMM@Z 0000000180196060 f   GuCookingTetrahedronMesh.obj
 0001:00195500       ?support@?$LocalConvex@VTetrahedronV@Gu@physx@@@Gu@physx@@UEBA?AT__m128@@AEBT4@@Z 0000000180196500 f i GuCookingTetrahedronMesh.obj
 0001:001955c0       ?support@?$LocalConvex@VTetrahedronV@Gu@physx@@@Gu@physx@@UEBA?AT__m128@@AEBT4@AEAH@Z 00000001801965c0 f i GuCookingTetrahedronMesh.obj
 0001:00195770       assembleSoftBodyMesh       0000000180196770 f   GuCookingTetrahedronMesh.obj
 0001:001957d0       assembleSoftBodyMesh_Sim   00000001801967d0 f   GuCookingTetrahedronMesh.obj
 0001:00195880       computeCollisionData       0000000180196880 f   GuCookingTetrahedronMesh.obj
 0001:00195a90       computeModelsMapping       0000000180196a90 f   GuCookingTetrahedronMesh.obj
 0001:00195ba0       computeSimulationData      0000000180196ba0 f   GuCookingTetrahedronMesh.obj
 0001:00195da0       cookSoftBodyMesh           0000000180196da0 f   GuCookingTetrahedronMesh.obj
 0001:00196380       cookTetrahedronMesh        0000000180197380 f   GuCookingTetrahedronMesh.obj
 0001:00196470       createSoftBodyMesh         0000000180197470 f   GuCookingTetrahedronMesh.obj
 0001:00196ad0       createTetrahedronMesh      0000000180197ad0 f   GuCookingTetrahedronMesh.obj
 0001:001987c0       ?computeVolumeIntegrals@physx@@YA_NAEBVPxSimpleTriangleMesh@1@MAEAUPxIntegrals@1@@Z 00000001801997c0 f   GuCookingVolumeIntegration.obj
 0001:00198800       ?computeVolumeIntegralsEberly@physx@@YA_NAEBVPxConvexMeshDesc@1@MAEAUPxIntegrals@1@AEBV?$PxVec3T@M@1@_N@Z 0000000180199800 f   GuCookingVolumeIntegration.obj
 0001:00198e60       ??0QuickHull@local@@QEAA@AEBUPxCookingParams@physx@@AEBVPxConvexMeshDesc@3@@Z 0000000180199e60 f   GuCookingQuickHullConvexHullLib.obj
 0001:00198f10       ??0QuickHullConvexHullLib@physx@@QEAA@AEBVPxConvexMeshDesc@1@AEBUPxCookingParams@1@@Z 0000000180199f10 f   GuCookingQuickHullConvexHullLib.obj
 0001:00199000       ??1?$MemBlock@UQuickHullFace@local@@$00@local@@QEAA@XZ 000000018019a000 f i GuCookingQuickHullConvexHullLib.obj
 0001:00199000       ??1?$MemBlock@UQuickHullHalfEdge@local@@$0A@@local@@QEAA@XZ 000000018019a000 f i GuCookingQuickHullConvexHullLib.obj
 0001:001990c0       ??1QuickHull@local@@QEAA@XZ 000000018019a0c0 f   GuCookingQuickHullConvexHullLib.obj
 0001:00199210       ??_GConvexHull@physx@@QEAAPEAXI@Z 000000018019a210 f i GuCookingQuickHullConvexHullLib.obj
 0001:001992f0       ??_EConvexHullLib@physx@@UEAAPEAXI@Z 000000018019a2f0 f i GuCookingQuickHullConvexHullLib.obj
 0001:001992f0       ??_GConvexHullLib@physx@@UEAAPEAXI@Z 000000018019a2f0 f i GuCookingQuickHullConvexHullLib.obj
 0001:00199330       ??_EQuickHullConvexHullLib@physx@@UEAAPEAXI@Z 000000018019a330 f i GuCookingQuickHullConvexHullLib.obj
 0001:00199330       ??_GQuickHullConvexHullLib@physx@@UEAAPEAXI@Z 000000018019a330 f i GuCookingQuickHullConvexHullLib.obj
 0001:00199440       ?addPointToHull@QuickHull@local@@IEAA_NPEBUQuickHullVertex@2@AEAUQuickHullFace@2@AEA_N@Z 000000018019a440 f   GuCookingQuickHullConvexHullLib.obj
 0001:00199710       ?addSimplex@QuickHull@local@@IEAAXPEAUQuickHullVertex@2@_N@Z 000000018019a710 f   GuCookingQuickHullConvexHullLib.obj
 0001:00199be0       ?allocate@?$PxArray@PEAUQuickHullFace@local@@V?$PxReflectionAllocator@PEAUQuickHullFace@local@@@physx@@@physx@@IEAAPEAPEAUQuickHullFace@local@@I@Z 000000018019abe0 f i GuCookingQuickHullConvexHullLib.obj
 0001:00199c80       ?allocate@?$PxArray@PEAUQuickHullHalfEdge@local@@V?$PxReflectionAllocator@PEAUQuickHullHalfEdge@local@@@physx@@@physx@@IEAAPEAPEAUQuickHullHalfEdge@local@@I@Z 000000018019ac80 f i GuCookingQuickHullConvexHullLib.obj
 0001:00199d20       ?allocate@?$PxArray@PEAUQuickHullVertex@local@@V?$PxReflectionAllocator@PEAUQuickHullVertex@local@@@physx@@@physx@@IEAAPEAPEAUQuickHullVertex@local@@I@Z 000000018019ad20 f i GuCookingQuickHullConvexHullLib.obj
 0001:00199dc0       ?allocate@?$PxArray@UExpandPoint@local@@V?$PxReflectionAllocator@UExpandPoint@local@@@physx@@@physx@@IEAAPEAUExpandPoint@local@@I@Z 000000018019adc0 f i GuCookingQuickHullConvexHullLib.obj
 0001:00199e60       ?allocate@?$PxArray@VPxPlane@physx@@V?$PxReflectionAllocator@VPxPlane@physx@@@2@@physx@@IEAAPEAVPxPlane@2@I@Z 000000018019ae60 f i GuCookingQuickHullConvexHullLib.obj
 0001:00199f00       ?buildHull@QuickHull@local@@QEAA?AW4Enum@QuickHullResult@2@XZ 000000018019af00 f   GuCookingQuickHullConvexHullLib.obj
 0001:0019a140       ?calculateHorizon@QuickHull@local@@IEAAXAEBV?$PxVec3T@M@physx@@PEAUQuickHullHalfEdge@2@AEAUQuickHullFace@2@AEAV?$PxArray@PEAUQuickHullHalfEdge@local@@V?$PxReflectionAllocator@PEAUQuickHullHalfEdge@local@@@physx@@@4@AEAV?$PxArray@PEAUQuickHullFace@local@@V?$PxReflectionAllocator@PEAUQuickHullFace@local@@@physx@@@4@@Z 000000018019b140 f   GuCookingQuickHullConvexHullLib.obj
 0001:0019a2f0       ?canMergeFaces@QuickHull@local@@IEAA_NAEBUQuickHullHalfEdge@2@@Z 000000018019b2f0 f   GuCookingQuickHullConvexHullLib.obj
 0001:0019ab20       ?cleanupForSimplex@QuickHullConvexHullLib@physx@@IEAA_NPEAV?$PxVec3T@M@2@IPEAUQuickHullVertex@local@@1AEAM2@Z 000000018019bb20 f   GuCookingQuickHullConvexHullLib.obj
 0001:0019b730       ?computeMinMaxVerts@QuickHull@local@@IEAAXXZ 000000018019c730 f   GuCookingQuickHullConvexHullLib.obj
 0001:0019bb00       ?connectHalfEdges@QuickHullFace@local@@AEAAPEAU12@PEAUQuickHullHalfEdge@2@0@Z 000000018019cb00 f   GuCookingQuickHullConvexHullLib.obj
 0001:0019be70       ?copy@?$PxArray@UExpandPoint@local@@V?$PxReflectionAllocator@UExpandPoint@local@@@physx@@@physx@@KAXPEAUExpandPoint@local@@0PEBU34@@Z 000000018019ce70 f i GuCookingQuickHullConvexHullLib.obj
 0001:0019bf20       ?copy@?$PxArray@VPxPlane@physx@@V?$PxReflectionAllocator@VPxPlane@physx@@@2@@physx@@KAXPEAVPxPlane@2@0PEBV32@@Z 000000018019cf20 f i GuCookingQuickHullConvexHullLib.obj
 0001:0019c020       ?createConvexHull@QuickHullConvexHullLib@physx@@UEAA?AW4Enum@PxConvexMeshCookingResult@2@XZ 000000018019d020 f   GuCookingQuickHullConvexHullLib.obj
 0001:0019c410       ?createEdgeList@QuickHullConvexHullLib@physx@@UEAA_NIPEBEPEAPEAEPEAPEAG2@Z 000000018019d410 f   GuCookingQuickHullConvexHullLib.obj
 0001:0019c630       ?createTriangle@QuickHull@local@@IEAAPEAUQuickHullFace@2@AEBUQuickHullVertex@2@00@Z 000000018019d630 f   GuCookingQuickHullConvexHullLib.obj
 0001:0019ca10       ?doAdjacentMerge@QuickHull@local@@IEAA_NAEAUQuickHullFace@2@_NAEA_N@Z 000000018019da10 f   GuCookingQuickHullConvexHullLib.obj
 0001:0019cd60       ?expandHull@QuickHullConvexHullLib@physx@@IEAA?AW4Enum@PxConvexMeshCookingResult@2@XZ 000000018019dd60 f   GuCookingQuickHullConvexHullLib.obj
 0001:0019d690       ?expandHullOBB@QuickHullConvexHullLib@physx@@IEAA?AW4Enum@PxConvexMeshCookingResult@2@XZ 000000018019e690 f   GuCookingQuickHullConvexHullLib.obj
 0001:0019dac0       ?fillConvexMeshDesc@QuickHullConvexHullLib@physx@@UEAAXAEAVPxConvexMeshDesc@2@@Z 000000018019eac0 f   GuCookingQuickHullConvexHullLib.obj
 0001:0019db10       ?fillConvexMeshDescFromCroppedHull@QuickHullConvexHullLib@physx@@IEAAXAEAVPxConvexMeshDesc@2@@Z 000000018019eb10 f   GuCookingQuickHullConvexHullLib.obj
 0001:0019dd00       ?fillConvexMeshDescFromQuickHull@QuickHullConvexHullLib@physx@@IEAAXAEAVPxConvexMeshDesc@2@@Z 000000018019ed00 f   GuCookingQuickHullConvexHullLib.obj
 0001:0019e070       ?findSimplex@QuickHull@local@@IEAA_NXZ 000000018019f070 f   GuCookingQuickHullConvexHullLib.obj
 0001:0019ecf0       ?getFreeItem@?$MemBlock@UQuickHullFace@local@@$00@local@@QEAAPEAUQuickHullFace@2@XZ 000000018019fcf0 f i GuCookingQuickHullConvexHullLib.obj
 0001:0019ee20       ?getFreeItem@?$MemBlock@UQuickHullHalfEdge@local@@$0A@@local@@QEAAPEAUQuickHullHalfEdge@2@XZ 000000018019fe20 f i GuCookingQuickHullConvexHullLib.obj
 0001:0019eef0       ?growAndPushBack@?$PxArray@PEAUQuickHullFace@local@@V?$PxReflectionAllocator@PEAUQuickHullFace@local@@@physx@@@physx@@IEAAAEAPEAUQuickHullFace@local@@AEBQEAU34@@Z 000000018019fef0 f i GuCookingQuickHullConvexHullLib.obj
 0001:0019efb0       ?growAndPushBack@?$PxArray@PEAUQuickHullHalfEdge@local@@V?$PxReflectionAllocator@PEAUQuickHullHalfEdge@local@@@physx@@@physx@@IEAAAEAPEAUQuickHullHalfEdge@local@@AEBQEAU34@@Z 000000018019ffb0 f i GuCookingQuickHullConvexHullLib.obj
 0001:0019f070       ?growAndPushBack@?$PxArray@PEAUQuickHullVertex@local@@V?$PxReflectionAllocator@PEAUQuickHullVertex@local@@@physx@@@physx@@IEAAAEAPEAUQuickHullVertex@local@@AEBQEAU34@@Z 00000001801a0070 f i GuCookingQuickHullConvexHullLib.obj
 0001:0019f130       ?growAndPushBack@?$PxArray@UExpandPoint@local@@V?$PxReflectionAllocator@UExpandPoint@local@@@physx@@@physx@@IEAAAEAUExpandPoint@local@@AEBU34@@Z 00000001801a0130 f i GuCookingQuickHullConvexHullLib.obj
 0001:0019f230       ?growAndPushBack@?$PxArray@VPxPlane@physx@@V?$PxReflectionAllocator@VPxPlane@physx@@@2@@physx@@IEAAAEAVPxPlane@2@AEBV32@@Z 00000001801a0230 f i GuCookingQuickHullConvexHullLib.obj
 0001:0019f2f0       ?init@?$MemBlock@UQuickHullFace@local@@$00@local@@QEAAXI@Z 00000001801a02f0 f i GuCookingQuickHullConvexHullLib.obj
 0001:0019f3f0       ?init@?$MemBlock@UQuickHullHalfEdge@local@@$0A@@local@@QEAAXI@Z 00000001801a03f0 f i GuCookingQuickHullConvexHullLib.obj
 0001:0019f480       ?mergeAdjacentFace@QuickHullFace@local@@QEAA_NPEAUQuickHullHalfEdge@2@AEAV?$PxArray@PEAUQuickHullFace@local@@V?$PxReflectionAllocator@PEAUQuickHullFace@local@@@physx@@@physx@@@Z 00000001801a0480 f   GuCookingQuickHullConvexHullLib.obj
 0001:0019f8d0       ?nextPointToAdd@QuickHull@local@@IEAAPEAUQuickHullVertex@2@AEAPEAUQuickHullFace@2@@Z 00000001801a08d0 f   GuCookingQuickHullConvexHullLib.obj
 0001:0019fa50       ?parseInputVertices@QuickHull@local@@QEAAXPEBV?$PxVec3T@M@physx@@I@Z 00000001801a0a50 f   GuCookingQuickHullConvexHullLib.obj
 0001:0019fbd0       ?postMergeHull@QuickHull@local@@IEAAXXZ 00000001801a0bd0 f   GuCookingQuickHullConvexHullLib.obj
 0001:0019fe30       ?preallocate@QuickHull@local@@QEAAXI@Z 00000001801a0e30 f   GuCookingQuickHullConvexHullLib.obj
 0001:0019ff70       ?recreate@?$PxArray@PEAUQuickHullFace@local@@V?$PxReflectionAllocator@PEAUQuickHullFace@local@@@physx@@@physx@@IEAAXI@Z 00000001801a0f70 f i GuCookingQuickHullConvexHullLib.obj
 0001:001a0010       ?recreate@?$PxArray@PEAUQuickHullHalfEdge@local@@V?$PxReflectionAllocator@PEAUQuickHullHalfEdge@local@@@physx@@@physx@@IEAAXI@Z 00000001801a1010 f i GuCookingQuickHullConvexHullLib.obj
 0001:001a00b0       ?recreate@?$PxArray@PEAUQuickHullVertex@local@@V?$PxReflectionAllocator@PEAUQuickHullVertex@local@@@physx@@@physx@@IEAAXI@Z 00000001801a10b0 f i GuCookingQuickHullConvexHullLib.obj
 0001:001a0150       ?recreate@?$PxArray@UExpandPoint@local@@V?$PxReflectionAllocator@UExpandPoint@local@@@physx@@@physx@@IEAAXI@Z 00000001801a1150 f i GuCookingQuickHullConvexHullLib.obj
 0001:001a01e0       ?recreate@?$PxArray@VPxPlane@physx@@V?$PxReflectionAllocator@VPxPlane@physx@@@2@@physx@@IEAAXI@Z 00000001801a11e0 f i GuCookingQuickHullConvexHullLib.obj
 0001:001a0270       ?resolveUnclaimedPoints@QuickHull@local@@IEAAXAEBV?$PxArray@PEAUQuickHullFace@local@@V?$PxReflectionAllocator@PEAUQuickHullFace@local@@@physx@@@physx@@@Z 00000001801a1270 f   GuCookingQuickHullConvexHullLib.obj
 0001:001a04f0       ??$copy@V?$PxReflectionAllocator@VPair@@@physx@@@?$PxArray@VPair@@V?$PxReflectionAllocator@VPair@@@physx@@@physx@@IEAAXAEBV01@@Z 00000001801a14f0 f i GuCookingConvexPolygonsBuilder.obj
 0001:001a0570       ??0ConvexPolygonsBuilder@physx@@QEAA@PEAUConvexHullData@Gu@1@_N@Z 00000001801a1570 f   GuCookingConvexPolygonsBuilder.obj
 0001:001a0590       ??1ConvexPolygonsBuilder@physx@@QEAA@XZ 00000001801a1590 f   GuCookingConvexPolygonsBuilder.obj
 0001:001a0de0       ?allocate@?$PxArray@VPair@@V?$PxReflectionAllocator@VPair@@@physx@@@physx@@IEAAPEAVPair@@I@Z 00000001801a1de0 f i GuCookingConvexPolygonsBuilder.obj
 0001:001a18c0       ?computeHullPolygons@ConvexPolygonsBuilder@physx@@QEAA_NAEBIPEBV?$PxVec3T@M@2@0PEBI@Z 00000001801a28c0 f   GuCookingConvexPolygonsBuilder.obj
 0001:001a2b80       ?createPolygonData@ConvexPolygonsBuilder@physx@@AEAA_NXZ 00000001801a3b80 f   GuCookingConvexPolygonsBuilder.obj
 0001:001a35b0       ?createTrianglesFromPolygons@ConvexPolygonsBuilder@physx@@AEAA_NXZ 00000001801a45b0 f   GuCookingConvexPolygonsBuilder.obj
 0001:001a4c20       ?growAndPushBack@?$PxArray@VPair@@V?$PxReflectionAllocator@VPair@@@physx@@@physx@@IEAAAEAVPair@@AEBV3@@Z 00000001801a5c20 f i GuCookingConvexPolygonsBuilder.obj
 0001:001a4db0       ??0ConvexMeshBuilder@physx@@QEAA@_N@Z 00000001801a5db0 f   GuCookingConvexMeshBuilder.obj
 0001:001a4e20       ??1ConvexMeshBuilder@physx@@QEAA@XZ 00000001801a5e20 f   GuCookingConvexMeshBuilder.obj
 0001:001a52b0       ?build@ConvexMeshBuilder@physx@@QEAA_NAEBVPxConvexMeshDesc@2@I_NPEAVConvexHullLib@2@@Z 00000001801a62b0 f   GuCookingConvexMeshBuilder.obj
 0001:001a5640       ?computeHullPolygons@ConvexMeshBuilder@physx@@QEAA_NAEBIPEBV?$PxVec3T@M@2@0PEBIAEAVPxAllocatorCallback@2@AEAIAEAPEAV32@4AEAPEAI4AEAPEAUPxHullPolygon@2@@Z 00000001801a6640 f   GuCookingConvexMeshBuilder.obj
 0001:001a5850       ?computeMassInfo@ConvexMeshBuilder@physx@@QEAAX_N@Z 00000001801a6850 f   GuCookingConvexMeshBuilder.obj
 0001:001a5be0       ?computeSDF@ConvexMeshBuilder@physx@@QEAAXAEBVPxConvexMeshDesc@2@@Z 00000001801a6be0 f   GuCookingConvexMeshBuilder.obj
 0001:001a5fe0       ?copy@ConvexMeshBuilder@physx@@QEAA_NAEAUConvexHullInitData@Gu@2@@Z 00000001801a6fe0 f   GuCookingConvexMeshBuilder.obj
 0001:001a6140       ?loadConvexHull@ConvexMeshBuilder@physx@@QEAA_NAEBVPxConvexMeshDesc@2@PEAVConvexHullLib@2@@Z 00000001801a7140 f   GuCookingConvexMeshBuilder.obj
 0001:001a6390       ?save@ConvexMeshBuilder@physx@@QEBA_NAEAVPxOutputStream@2@_N@Z 00000001801a7390 f   GuCookingConvexMeshBuilder.obj
 0001:001a67b0       ??0ConvexHull@physx@@QEAA@AEBV?$PxVec3T@M@1@AEBV?$PxTransformT@M@1@AEBV?$PxArray@VPxPlane@physx@@V?$PxReflectionAllocator@VPxPlane@physx@@@2@@1@@Z 00000001801a77b0 f   GuCookingConvexHullUtils.obj
 0001:001a78d0       ?allocate@?$PxArray@VHalfEdge@ConvexHull@physx@@V?$PxReflectionAllocator@VHalfEdge@ConvexHull@physx@@@3@@physx@@IEAAPEAVHalfEdge@ConvexHull@2@I@Z 00000001801a88d0 f i GuCookingConvexHullUtils.obj
 0001:001a7970       ?assertIntact@ConvexHull@physx@@QEBA_NM@Z 00000001801a8970 f   GuCookingConvexHullUtils.obj
 0001:001a7c90       ?computeOBBFromConvex@physx@@YA_NAEBVPxConvexMeshDesc@1@AEAV?$PxVec3T@M@1@AEAV?$PxTransformT@M@1@@Z 00000001801a8c90 f   GuCookingConvexHullUtils.obj
 0001:001a82e0       ?computeOBBSIMD@local@@YAXIPEBT__m128@@AEAT2@AEBT2@1@Z 00000001801a92e0 f   GuCookingConvexHullUtils.obj
 0001:001a8690       ?convexHullCrop@physx@@YAPEAVConvexHull@1@AEBV21@AEBVPxPlane@1@M@Z 00000001801a9690 f   GuCookingConvexHullUtils.obj
 0001:001a9490       ?findCandidatePlane@ConvexHull@physx@@QEBAHMM@Z 00000001801aa490 f   GuCookingConvexHullUtils.obj
 0001:001a98e0       ?growAndPushBack@?$PxArray@VHalfEdge@ConvexHull@physx@@V?$PxReflectionAllocator@VHalfEdge@ConvexHull@physx@@@3@@physx@@IEAAAEAVHalfEdge@ConvexHull@2@AEBV342@@Z 00000001801aa8e0 f i GuCookingConvexHullUtils.obj
 0001:001a99a0       ?maxNumVertsPerFace@ConvexHull@physx@@QEBAIXZ 00000001801aa9a0 f   GuCookingConvexHullUtils.obj
 0001:001a9a10       ?recreate@?$PxArray@VHalfEdge@ConvexHull@physx@@V?$PxReflectionAllocator@VHalfEdge@ConvexHull@physx@@@3@@physx@@IEAAXI@Z 00000001801aaa10 f i GuCookingConvexHullUtils.obj
 0001:001a9ab0       ?resize@?$PxArray@VHalfEdge@ConvexHull@physx@@V?$PxReflectionAllocator@VHalfEdge@ConvexHull@physx@@@3@@physx@@QEAAXIAEBVHalfEdge@ConvexHull@2@@Z 00000001801aaab0 f i GuCookingConvexHullUtils.obj
 0001:001a9b70       ?resize@?$PxArray@VPxPlane@physx@@V?$PxReflectionAllocator@VPxPlane@physx@@@2@@physx@@QEAAXIAEBVPxPlane@2@@Z 00000001801aab70 f i GuCookingConvexHullUtils.obj
 0001:001a9c90       ??1ConvexHullLib@physx@@UEAA@XZ 00000001801aac90 f   GuCookingConvexHullLib.obj
 0001:001aa280       ?cleanupVertices@ConvexHullLib@physx@@IEAA_NIPEBV?$PxVec3T@M@2@IAEAIPEAV32@@Z 00000001801ab280 f   GuCookingConvexHullLib.obj
 0001:001aa3c0       ?shiftAndcleanupVertices@ConvexHullLib@physx@@IEAA_NIPEBV?$PxVec3T@M@2@IAEAIPEAV32@@Z 00000001801ab3c0 f   GuCookingConvexHullLib.obj
 0001:001aa9a0       ?shiftConvexMeshDesc@ConvexHullLib@physx@@IEAAXAEAVPxConvexMeshDesc@2@@Z 00000001801ab9a0 f   GuCookingConvexHullLib.obj
 0001:001aaa60       ?swapLargestFace@ConvexHullLib@physx@@IEAAXAEAVPxConvexMeshDesc@2@@Z 00000001801aba60 f   GuCookingConvexHullLib.obj
 0001:001aac90       ??0ConvexHullBuilder@physx@@QEAA@PEAUConvexHullData@Gu@1@_N@Z 00000001801abc90 f   GuCookingConvexHullBuilder.obj
 0001:001aacc0       ??1ConvexHullBuilder@physx@@QEAA@XZ 00000001801abcc0 f   GuCookingConvexHullBuilder.obj
 0001:001aadd0       ?calculateVertexMapTable@ConvexHullBuilder@physx@@QEAA_NI_N@Z 00000001801abdd0 f   GuCookingConvexHullBuilder.obj
 0001:001aaf90       ?checkHullPolygons@ConvexHullBuilder@physx@@QEBA_NXZ 00000001801abf90 f   GuCookingConvexHullBuilder.obj
 0001:001ab550       ?copy@ConvexHullBuilder@physx@@QEAA_NAEAUConvexHullData@Gu@2@AEAI@Z 00000001801ac550 f   GuCookingConvexHullBuilder.obj
 0001:001ab7c0       ?createEdgeList@ConvexHullBuilder@physx@@QEAA_N_NI@Z 00000001801ac7c0 f   GuCookingConvexHullBuilder.obj
 0001:001abf00       ?init@ConvexHullBuilder@physx@@QEAA_NIPEBV?$PxVec3T@M@2@PEBIIIPEBUPxHullPolygon@2@_NPEAVConvexHullLib@2@@Z 00000001801acf00 f   GuCookingConvexHullBuilder.obj
 0001:001ac830       ?save@ConvexHullBuilder@physx@@QEBA_NAEAVPxOutputStream@2@_N@Z 00000001801ad830 f   GuCookingConvexHullBuilder.obj
 0001:001acb50       ??0BigConvexDataBuilder@physx@@QEAA@PEBUConvexHullData@Gu@1@PEAVBigConvexData@1@PEBV?$PxVec3T@M@1@@Z 00000001801adb50 f   GuCookingBigConvexDataBuilder.obj
 0001:001acb60       ?computeValencies@BigConvexDataBuilder@physx@@QEAA_NAEBVConvexHullBuilder@2@@Z 00000001801adb60 f   GuCookingBigConvexDataBuilder.obj
 0001:001acf50       ?precompute@BigConvexDataBuilder@physx@@QEAA_NI@Z 00000001801adf50 f   GuCookingBigConvexDataBuilder.obj
 0001:001adb40       ?save@BigConvexDataBuilder@physx@@QEBA_NAEAVPxOutputStream@2@_N@Z 00000001801aeb40 f   GuCookingBigConvexDataBuilder.obj
 0001:001add2c       __imp_load_PxGetFoundation 00000001801aed2c f   PhysXFoundation_64:PhysXFoundation_64.dll
 0001:001add38       __tailMerge_physxfoundation_64_dll 00000001801aed38     PhysXFoundation_64:PhysXFoundation_64.dll
 0001:001addb1       __imp_load_PxGetBroadcastAllocator 00000001801aedb1 f   PhysXFoundation_64:PhysXFoundation_64.dll
 0001:001addbd       __imp_load_?PxAtomicIncrement@physx@@YAHPECH@Z 00000001801aedbd f   PhysXFoundation_64:PhysXFoundation_64.dll
 0001:001addc9       __imp_load_??0PxMutexImpl@physx@@QEAA@XZ 00000001801aedc9 f   PhysXFoundation_64:PhysXFoundation_64.dll
 0001:001addd5       __imp_load_??1PxMutexImpl@physx@@QEAA@XZ 00000001801aedd5 f   PhysXFoundation_64:PhysXFoundation_64.dll
 0001:001adde1       __imp_load_?lock@PxMutexImpl@physx@@QEAAXXZ 00000001801aede1 f   PhysXFoundation_64:PhysXFoundation_64.dll
 0001:001added       __imp_load_?unlock@PxMutexImpl@physx@@QEAAXXZ 00000001801aeded f   PhysXFoundation_64:PhysXFoundation_64.dll
 0001:001addf9       __imp_load_?getSize@PxMutexImpl@physx@@SAIXZ 00000001801aedf9 f   PhysXFoundation_64:PhysXFoundation_64.dll
 0001:001ade05       __imp_load_?PxAtomicDecrement@physx@@YAHPECH@Z 00000001801aee05 f   PhysXFoundation_64:PhysXFoundation_64.dll
 0001:001ade11       __imp_load_?PxTransformFromSegment@physx@@YA?AV?$PxTransformT@M@1@AEBV?$PxVec3T@M@1@0PEAM@Z 00000001801aee11 f   PhysXFoundation_64:PhysXFoundation_64.dll
 0001:001ade1d       __imp_load_?PxAtomicAdd@physx@@YAHPECHH@Z 00000001801aee1d f   PhysXFoundation_64:PhysXFoundation_64.dll
 0001:001ade29       __imp_load_?getDefaultStackSize@PxThreadImpl@physx@@SAIXZ 00000001801aee29 f   PhysXFoundation_64:PhysXFoundation_64.dll
 0001:001ade35       __imp_load_??0PxThreadImpl@physx@@QEAA@P6APEAXPEAX@Z0PEBD@Z 00000001801aee35 f   PhysXFoundation_64:PhysXFoundation_64.dll
 0001:001ade41       __imp_load_??1PxThreadImpl@physx@@QEAA@XZ 00000001801aee41 f   PhysXFoundation_64:PhysXFoundation_64.dll
 0001:001ade4d       __imp_load_?start@PxThreadImpl@physx@@QEAAXIPEAVPxRunnable@2@@Z 00000001801aee4d f   PhysXFoundation_64:PhysXFoundation_64.dll
 0001:001ade59       __imp_load_?waitForQuit@PxThreadImpl@physx@@QEAA_NXZ 00000001801aee59 f   PhysXFoundation_64:PhysXFoundation_64.dll
 0001:001ade65       __imp_load_?getSize@PxThreadImpl@physx@@SAIXZ 00000001801aee65 f   PhysXFoundation_64:PhysXFoundation_64.dll
 0001:001ade71       __imp_load_?PxOptimizeBoundingBox@physx@@YA?AV?$PxVec3T@M@1@AEAV?$PxMat33T@M@1@@Z 00000001801aee71 f   PhysXFoundation_64:PhysXFoundation_64.dll
 0001:001ade7d       __imp_load_?allocate@PxTempAllocator@physx@@QEAAPEAX_KPEBDH@Z 00000001801aee7d f   PhysXFoundation_64:PhysXFoundation_64.dll
 0001:001ade89       __imp_load_?deallocate@PxTempAllocator@physx@@QEAAXPEAX@Z 00000001801aee89 f   PhysXFoundation_64:PhysXFoundation_64.dll
 0001:001ade95       __imp_load_??0PxFPUGuard@physx@@QEAA@XZ 00000001801aee95 f   PhysXFoundation_64:PhysXFoundation_64.dll
 0001:001adea1       __imp_load_??1PxFPUGuard@physx@@QEAA@XZ 00000001801aeea1 f   PhysXFoundation_64:PhysXFoundation_64.dll
 0001:001adead       __imp_load_?PxDiagonalize@physx@@YA?AV?$PxVec3T@M@1@AEBV?$PxMat33T@M@1@AEAV?$PxQuatT@M@1@@Z 00000001801aeead f   PhysXFoundation_64:PhysXFoundation_64.dll
 0001:001adebc       ?DloadAcquireSectionWriteAccess@@YAXXZ 00000001801aeebc f i Delayimp:delayhlp.obj
 0001:001adf68       ?DloadGetSRWLockFunctionPointers@@YAEXZ 00000001801aef68 f i Delayimp:delayhlp.obj
 0001:001ae008       ?DloadMakePermanentImageCommit@@YAXPEAX_K@Z 00000001801af008 f i Delayimp:delayhlp.obj
 0001:001ae0a0       ?DloadObtainSection@@YAPEAXPEAK0@Z 00000001801af0a0 f i Delayimp:delayhlp.obj
 0001:001ae13c       ?DloadProtectSection@@YAXKPEAK@Z 00000001801af13c f i Delayimp:delayhlp.obj
 0001:001ae1cc       ?DloadReleaseSectionWriteAccess@@YAXXZ 00000001801af1cc f i Delayimp:delayhlp.obj
 0001:001ae260       __delayLoadHelper2         00000001801af260 f   Delayimp:delayhlp.obj
 0001:001ae538       ??3@YAXPEAX_K@Z            00000001801af538 f   LIBCMT:delete_scalar_size.obj
 0001:001ae538       ??_V@YAXPEAX@Z             00000001801af538 f   LIBCMT:delete_array.obj
 0001:001ae540       ??_Etype_info@@UEAAPEAXI@Z 00000001801af540 f i LIBCMT:std_type_info_static.obj
 0001:001ae540       ??_Gtype_info@@UEAAPEAXI@Z 00000001801af540 f i LIBCMT:std_type_info_static.obj
 0001:001ae56c       ?__scrt_initialize_type_info@@YAXXZ 00000001801af56c f   LIBCMT:tncleanup.obj
 0001:001ae57c       ?__scrt_uninitialize_type_info@@YAXXZ 00000001801af57c f   LIBCMT:tncleanup.obj
 0001:001ae5a0       __chkstk                   00000001801af5a0 f   LIBCMT:chkstk.obj
 0001:001ae5a0       _alloca_probe              00000001801af5a0 f   LIBCMT:chkstk.obj
 0001:001ae5f0       __vdecl_sinf4              00000001801af5f0 f   LIBCMT:svml_ssinf4_dispatch.obj
 0001:001ae610       __libm_sse2_sincosf_       00000001801af610 f   LIBCMT:svml_ssinf4_dispatch.obj
 0001:001ae653       __libm_sse2_sincosf4_      00000001801af653 f   LIBCMT:svml_ssinf4_dispatch.obj
 0001:001ae660       ??3@YAXPEAX@Z              00000001801af660 f   LIBCMT:delete_scalar.obj
 0001:001ae668       __scrt_acquire_startup_lock 00000001801af668 f   LIBCMT:utility.obj
 0001:001ae6a4       __scrt_dllmain_after_initialize_c 00000001801af6a4 f   LIBCMT:utility.obj
 0001:001ae6d8       __scrt_dllmain_before_initialize_c 00000001801af6d8 f   LIBCMT:utility.obj
 0001:001ae6f0       __scrt_dllmain_crt_thread_attach 00000001801af6f0 f   LIBCMT:utility.obj
 0001:001ae718       __scrt_dllmain_crt_thread_detach 00000001801af718 f   LIBCMT:utility.obj
 0001:001ae730       __scrt_dllmain_exception_filter 00000001801af730 f   LIBCMT:utility.obj
 0001:001ae790       __scrt_dllmain_uninitialize_c 00000001801af790 f   LIBCMT:utility.obj
 0001:001ae7c0       __scrt_dllmain_uninitialize_critical 00000001801af7c0 f   LIBCMT:utility.obj
 0001:001ae7d4       __scrt_initialize_crt      00000001801af7d4 f   LIBCMT:utility.obj
 0001:001ae820       __scrt_initialize_onexit_tables 00000001801af820 f   LIBCMT:utility.obj
 0001:001ae8ac       __scrt_is_nonwritable_in_current_image 00000001801af8ac f   LIBCMT:utility.obj
 0001:001ae944       __scrt_release_startup_lock 00000001801af944 f   LIBCMT:utility.obj
 0001:001ae968       __scrt_uninitialize_crt    00000001801af968 f   LIBCMT:utility.obj
 0001:001ae994       _onexit                    00000001801af994 f   LIBCMT:utility.obj
 0001:001ae9d0       atexit                     00000001801af9d0 f   LIBCMT:utility.obj
 0001:001aed08       _DllMainCRTStartup         00000001801afd08 f   LIBCMT:dll_dllmain.obj
 0001:001aed48       __isa_available_init       00000001801afd48 f   LIBCMT:cpu_disp.obj
 0001:001aef00       __sse2_sinf4@@16           00000001801aff00 f   LIBCMT:svml_ssinf4_sse2.obj
 0001:001af840       __sse4_sinf4@@16           00000001801b0840 f   LIBCMT:svml_ssinf4_sse4.obj
 0001:001affb4       __scrt_is_ucrt_dll_in_use  00000001801b0fb4 f   LIBCMT:ucrt_detection.obj
 0001:001affc0       __crt_debugger_hook        00000001801b0fc0 f   LIBCMT:utility_desktop.obj
 0001:001affc8       __scrt_fastfail            00000001801b0fc8 f   LIBCMT:utility_desktop.obj
 0001:001b0114       __security_init_cookie     00000001801b1114 f   LIBCMT:gs_support.obj
 0001:001b01c0       __local_stdio_scanf_options 00000001801b11c0 f i LIBCMT:default_local_stdio_options.obj
 0001:001b01c8       __scrt_initialize_default_local_stdio_options 00000001801b11c8 f   LIBCMT:default_local_stdio_options.obj
 0001:001b01e4       __scrt_get_dyn_tls_init_callback 00000001801b11e4 f   LIBCMT:dyn_tls_init.obj
 0001:001b01ec       _RTC_Initialize            00000001801b11ec f   LIBCMT:initsect.obj
 0001:001b0228       _RTC_Terminate             00000001801b1228 f   LIBCMT:initsect.obj
 0001:001b0270       __common_ssin_cout_rare    00000001801b1270 f   LIBCMT:svml_s_sin_cout.obj
 0001:001b02f0       memcpy_repmovs             00000001801b12f0 f   libvcruntime:memcpy.obj
 0001:001b0310       memcpy                     00000001801b1310 f   libvcruntime:memcpy.obj
 0001:001b0310       memmove                    00000001801b1310 f   libvcruntime:memcpy.obj
 0001:001b0988       _get_purecall_handler      00000001801b1988 f   libvcruntime:purevirt.obj
 0001:001b0994       _purecall                  00000001801b1994 f   libvcruntime:purevirt.obj
 0001:001b09b8       __std_type_info_compare    00000001801b19b8 f   libvcruntime:std_type_info.obj
 0001:001b09e0       __std_type_info_destroy_list 00000001801b19e0 f   libvcruntime:std_type_info.obj
 0001:001b0a0c       __std_type_info_name       00000001801b1a0c f   libvcruntime:std_type_info.obj
 0001:001b0b40       memset_repstos             00000001801b1b40 f   libvcruntime:memset.obj
 0001:001b0b60       memset                     00000001801b1b60 f   libvcruntime:memset.obj
 0001:001b0ee8       strstr                     00000001801b1ee8 f   libvcruntime:strstr.obj
 0001:001b10e0       __vcrt_initialize          00000001801b20e0 f   libvcruntime:initialization.obj
 0001:001b1108       __vcrt_thread_attach       00000001801b2108 f   libvcruntime:initialization.obj
 0001:001b111c       __vcrt_thread_detach       00000001801b211c f   libvcruntime:initialization.obj
 0001:001b1130       __vcrt_uninitialize        00000001801b2130 f   libvcruntime:initialization.obj
 0001:001b114c       __vcrt_uninitialize_critical 00000001801b214c f   libvcruntime:initialization.obj
 0001:001b115c       __C_specific_handler       00000001801b215c f   libvcruntime:riscchandler.obj
 0001:001b1354       __DestructExceptionObject  00000001801b2354 f   libvcruntime:ehhelpers.obj
 0001:001b13c4       ?_CallMemberFunction0@@YAXQEAX0@Z 00000001801b23c4 f i libvcruntime:ehhelpers.obj
 0001:001b13c8       _IsExceptionObjectToBeDestroyed 00000001801b23c8 f   libvcruntime:ehhelpers.obj
 0001:001b13f8       __AdjustPointer            00000001801b23f8 f   libvcruntime:ehhelpers.obj
 0001:001b141c       __FrameUnwindFilter        00000001801b241c f   libvcruntime:ehhelpers.obj
 0001:001b1484       __std_terminate            00000001801b2484 f   libvcruntime:ehhelpers.obj
 0001:001b1490       ??$?0$00@DName@@QEAA@PEBDU?$StringLifeSelector@$00@@@Z 00000001801b2490 f i libvcruntime:undname.obj
 0001:001b14d0       ??$?0$01@DName@@QEAA@PEBDU?$StringLifeSelector@$01@@@Z 00000001801b24d0 f i libvcruntime:undname.obj
 0001:001b14d0       ??$?0$0A@@DName@@QEAA@PEBDU?$StringLifeSelector@$0A@@@@Z 00000001801b24d0 f i libvcruntime:undname.obj
 0001:001b1510       ??$?0$01@pcharNode@@QEAA@PEBDHU?$StringLifeSelector@$01@@@Z 00000001801b2510 f i libvcruntime:undname.obj
 0001:001b1510       ??$?0$0A@@pcharNode@@QEAA@PEBDHU?$StringLifeSelector@$0A@@@@Z 00000001801b2510 f i libvcruntime:undname.obj
 0001:001b1584       ??$append@VDNameNode@@@DName@@AEAAXPEBVDNameNode@@@Z 00000001801b2584 f i libvcruntime:undname.obj
 0001:001b1584       ??$append@VDNameStatusNode@@@DName@@AEAAXPEBVDNameStatusNode@@@Z 00000001801b2584 f i libvcruntime:undname.obj
 0001:001b1584       ??$append@VcharNode@@@DName@@AEAAXPEBVcharNode@@@Z 00000001801b2584 f i libvcruntime:undname.obj
 0001:001b1584       ??$append@VpcharNode@@@DName@@AEAAXPEBVpcharNode@@@Z 00000001801b2584 f i libvcruntime:undname.obj
 0001:001b15e8       ??$doPchar@$00@DName@@AEAAXPEBDH@Z 00000001801b25e8 f i libvcruntime:undname.obj
 0001:001b168c       ??$doPchar@$01@DName@@AEAAXPEBDH@Z 00000001801b268c f i libvcruntime:undname.obj
 0001:001b168c       ??$doPchar@$0A@@DName@@AEAAXPEBDH@Z 00000001801b268c f i libvcruntime:undname.obj
 0001:001b1724       ??0DName@@QEAA@AEAPEBDD@Z  00000001801b2724 f   libvcruntime:undname.obj
 0001:001b17d4       ??0DName@@QEAA@AEBUStringLiteral@@@Z 00000001801b27d4 f   libvcruntime:undname.obj
 0001:001b1800       ??0DName@@QEAA@PEAV0@@Z    00000001801b2800 f   libvcruntime:undname.obj
 0001:001b1884       ??0DName@@QEAA@_J@Z        00000001801b2884 f   libvcruntime:undname.obj
 0001:001b192c       ??0DName@@QEAA@_K@Z        00000001801b292c f   libvcruntime:undname.obj
 0001:001b19bc       ??2@YAPEAX_KAEAV_HeapManager@@H@Z 00000001801b29bc f   libvcruntime:undname.obj
 0001:001b19e8       ??4DName@@QEAAAEAV0@W4DNameStatus@@@Z 00000001801b29e8 f   libvcruntime:undname.obj
 0001:001b1a18       ??AReplicator@@QEBA?AVDName@@H@Z 00000001801b2a18 f   libvcruntime:undname.obj
 0001:001b1a58       ??HDName@@QEBA?AV0@AEBUStringLiteral@@@Z 00000001801b2a58 f   libvcruntime:undname.obj
 0001:001b1a84       ??HDName@@QEBA?AV0@AEBV0@@Z 00000001801b2a84 f   libvcruntime:undname.obj
 0001:001b1ab0       ??HDName@@QEBA?AV0@D@Z     00000001801b2ab0 f   libvcruntime:undname.obj
 0001:001b1adc       ??HDName@@QEBA?AV0@W4DNameStatus@@@Z 00000001801b2adc f   libvcruntime:undname.obj
 0001:001b1b08       ??YDName@@QEAAAEAV0@AEBUStringLiteral@@@Z 00000001801b2b08 f   libvcruntime:undname.obj
 0001:001b1b88       ??YDName@@QEAAAEAV0@AEBV0@@Z 00000001801b2b88 f   libvcruntime:undname.obj
 0001:001b1be0       ??YDName@@QEAAAEAV0@D@Z    00000001801b2be0 f   libvcruntime:undname.obj
 0001:001b1c4c       ??YDName@@QEAAAEAV0@W4DNameStatus@@@Z 00000001801b2c4c f   libvcruntime:undname.obj
 0001:001b1ca4       ??YReplicator@@QEAAAEAV0@AEBVDName@@@Z 00000001801b2ca4 f   libvcruntime:undname.obj
 0001:001b1cfc       ?UScore@UnDecorator@@SA?AUStringLiteral@@W4Tokens@@@Z 00000001801b2cfc f   libvcruntime:undname.obj
 0001:001b1d48       ?composeDeclaration@UnDecorator@@CA?AVDName@@AEBV2@@Z 00000001801b2d48 f i libvcruntime:undname.obj
 0001:001b2c3c       ?doPchar@DName@@AEAAXD@Z   00000001801b3c3c f   libvcruntime:undname.obj
 0001:001b2c8c       ?getAddressOf@UnDecorator@@CA?AVDName@@XZ 00000001801b3c8c f   libvcruntime:undname.obj
 0001:001b2d1c       ?getArgumentList@UnDecorator@@CA?AVDName@@XZ 00000001801b3d1c f   libvcruntime:undname.obj
 0001:001b2ed0       ?getArgumentTypes@UnDecorator@@CA?AVDName@@XZ 00000001801b3ed0 f   libvcruntime:undname.obj
 0001:001b301c       ?getArrayAccess@UnDecorator@@CA?AVDName@@XZ 00000001801b401c f   libvcruntime:undname.obj
 0001:001b30b8       ?getArrayObject@UnDecorator@@CA?AVDName@@XZ 00000001801b40b8 f   libvcruntime:undname.obj
 0001:001b3174       ?getArrayType@UnDecorator@@CA?AVDName@@AEBV2@@Z 00000001801b4174 f i libvcruntime:undname.obj
 0001:001b33bc       ?getBasedType@UnDecorator@@CA?AVDName@@XZ 00000001801b43bc f   libvcruntime:undname.obj
 0001:001b34b4       ?getBasicDataType@UnDecorator@@CA?AVDName@@AEBV2@@Z 00000001801b44b4 f   libvcruntime:undname.obj
 0001:001b3ab8       ?getCallingConvention@UnDecorator@@CA?AVDName@@XZ 00000001801b4ab8 f   libvcruntime:undname.obj
 0001:001b3bf0       ?getDataIndirectType@UnDecorator@@CA?AVDName@@AEBV2@W4IndirectionKind@@0H@Z 00000001801b4bf0 f   libvcruntime:undname.obj
 0001:001b4514       ?getDataType@UnDecorator@@CA?AVDName@@PEAV2@@Z 00000001801b5514 f   libvcruntime:undname.obj
 0001:001b4628       ?getDecoratedName@UnDecorator@@CA?AVDName@@XZ 00000001801b5628 f   libvcruntime:undname.obj
 0001:001b4910       ?getDimension@UnDecorator@@CA?AVDName@@_N@Z 00000001801b5910 f   libvcruntime:undname.obj
 0001:001b4a58       ?getDispatchTarget@UnDecorator@@CA?AVDName@@XZ 00000001801b5a58 f   libvcruntime:undname.obj
 0001:001b4ab8       ?getECSUDataType@UnDecorator@@CA?AVDName@@XZ 00000001801b5ab8 f   libvcruntime:undname.obj
 0001:001b4cb4       ?getEnumType@UnDecorator@@CA?AVDName@@XZ 00000001801b5cb4 f i libvcruntime:undname.obj
 0001:001b4de4       ?getExtendedDataIndirectType@UnDecorator@@CA?AVDName@@AEAW4IndirectionKind@@AEA_NH@Z 00000001801b5de4 f   libvcruntime:undname.obj
 0001:001b4fe8       ?getExternalDataType@UnDecorator@@CA?AVDName@@AEBV2@@Z 00000001801b5fe8 f i libvcruntime:undname.obj
 0001:001b50a8       ?getFloatingPoint@UnDecorator@@CA?AVDName@@H@Z 00000001801b60a8 f   libvcruntime:undname.obj
 0001:001b5210       ?getFunctionIndirectType@UnDecorator@@CA?AVDName@@AEBV2@@Z 00000001801b6210 f   libvcruntime:undname.obj
 0001:001b5744       ?getLastChar@DNameStatusNode@@UEBADXZ 00000001801b6744 f i libvcruntime:undname.obj
 0001:001b5750       ?getLastChar@charNode@@UEBADXZ 00000001801b6750 f i libvcruntime:undname.obj
 0001:001b5754       ?getLastChar@pDNameNode@@UEBADXZ 00000001801b6754 f i libvcruntime:undname.obj
 0001:001b5780       ?getLastChar@pairNode@@UEBADXZ 00000001801b6780 f i libvcruntime:undname.obj
 0001:001b57b8       ?getLastChar@pcharNode@@UEBADXZ 00000001801b67b8 f i libvcruntime:undname.obj
 0001:001b57cc       ?getLexicalFrame@UnDecorator@@CA?AVDName@@XZ 00000001801b67cc f i libvcruntime:undname.obj
 0001:001b5830       ?getMemberAccess@UnDecorator@@CA?AVDName@@XZ 00000001801b6830 f   libvcruntime:undname.obj
 0001:001b58c4       ?getMemoryWithBuffer@_HeapManager@@QEAAPEAX_K@Z 00000001801b68c4 f   libvcruntime:undname.obj
 0001:001b5954       ?getNoexcept@UnDecorator@@CA?AVDName@@XZ 00000001801b6954 f   libvcruntime:undname.obj
 0001:001b59b8       ?getNumberOfDimensions@UnDecorator@@CAHXZ 00000001801b69b8 f   libvcruntime:undname.obj
 0001:001b5a20       ?getOperatorName@UnDecorator@@CA?AVDName@@_NPEA_N@Z 00000001801b6a20 f i libvcruntime:undname.obj
 0001:001b63d0       ?getPointerToMember@UnDecorator@@CA?AVDName@@XZ 00000001801b73d0 f   libvcruntime:undname.obj
 0001:001b64c8       ?getPrimaryDataType@UnDecorator@@CA?AVDName@@AEBV2@@Z 00000001801b74c8 f   libvcruntime:undname.obj
 0001:001b6780       ?getPtrRefDataType@UnDecorator@@CA?AVDName@@AEBV2@H@Z 00000001801b7780 f   libvcruntime:undname.obj
 0001:001b694c       ?getPtrRefType@UnDecorator@@CA?AVDName@@AEBV2@0W4IndirectionKind@@@Z 00000001801b794c f   libvcruntime:undname.obj
 0001:001b6b24       ?getRestrictionSpec@UnDecorator@@CA?AVDName@@XZ 00000001801b7b24 f   libvcruntime:undname.obj
 0001:001b6d00       ?getReturnType@UnDecorator@@CA?AVDName@@PEAV2@@Z 00000001801b7d00 f   libvcruntime:undname.obj
 0001:001b6d34       ?getScope@UnDecorator@@CA?AVDName@@XZ 00000001801b7d34 f   libvcruntime:undname.obj
 0001:001b71f0       ?getScopedName@UnDecorator@@CA?AVDName@@XZ 00000001801b81f0 f   libvcruntime:undname.obj
 0001:001b7330       ?getSignedDimension@UnDecorator@@CA?AVDName@@XZ 00000001801b8330 f   libvcruntime:undname.obj
 0001:001b73b8       ?getString@DNameStatusNode@@UEBAPEADPEAD0@Z 00000001801b83b8 f i libvcruntime:undname.obj
 0001:001b7400       ?getString@charNode@@UEBAPEADPEAD0@Z 00000001801b8400 f i libvcruntime:undname.obj
 0001:001b7414       ?getString@pDNameNode@@UEBAPEADPEAD0@Z 00000001801b8414 f i libvcruntime:undname.obj
 0001:001b7444       ?getString@pairNode@@UEBAPEADPEAD0@Z 00000001801b8444 f i libvcruntime:undname.obj
 0001:001b7490       ?getString@pcharNode@@UEBAPEADPEAD0@Z 00000001801b8490 f i libvcruntime:undname.obj
 0001:001b74c8       ?getStringEncoding@UnDecorator@@CA?AVDName@@W4PrefixKind@@H@Z 00000001801b84c8 f   libvcruntime:undname.obj
 0001:001b75d8       ?getStringObject@UnDecorator@@CA?AVDName@@XZ 00000001801b85d8 f   libvcruntime:undname.obj
 0001:001b7640       ?getSymbolName@UnDecorator@@CA?AVDName@@XZ 00000001801b8640 f i libvcruntime:undname.obj
 0001:001b768c       ?getTemplateArgumentList@UnDecorator@@CA?AVDName@@XZ 00000001801b868c f   libvcruntime:undname.obj
 0001:001b78a8       ?getTemplateName@UnDecorator@@CA?AVDName@@_N@Z 00000001801b88a8 f   libvcruntime:undname.obj
 0001:001b7b3c       ?getTemplateNonTypeArgument@UnDecorator@@CA?AVDName@@XZ 00000001801b8b3c f   libvcruntime:undname.obj
 0001:001b808c       ?getTemplateTypeArgument@UnDecorator@@CA?AVDName@@XZ 00000001801b908c f   libvcruntime:undname.obj
 0001:001b81f4       ?getThrowTypes@UnDecorator@@CA?AVDName@@XZ 00000001801b91f4 f   libvcruntime:undname.obj
 0001:001b8218       ?getTypeEncoding@UnDecorator@@CAHXZ 00000001801b9218 f i libvcruntime:undname.obj
 0001:001b85d4       ?getUndecoratedName@UnDecorator@@QEAAPEADPEADH@Z 00000001801b95d4 f i libvcruntime:undname.obj
 0001:001b8728       ?getUnionObject@UnDecorator@@CA?AVDName@@XZ 00000001801b9728 f   libvcruntime:undname.obj
 0001:001b8800       ?getVCallThunkType@UnDecorator@@CA?AVDName@@XZ 00000001801b9800 f i libvcruntime:undname.obj
 0001:001b8878       ?getValue@UnDecorator@@CA?AV?$optional@_K@std@@XZ 00000001801b9878 f   libvcruntime:undname.obj
 0001:001b88ec       ?getValueObject@UnDecorator@@CA?AVDName@@XZ 00000001801b98ec f   libvcruntime:undname.obj
 0001:001b8a2c       ?getVdispMapType@UnDecorator@@CA?AVDName@@AEBV2@@Z 00000001801b9a2c f i libvcruntime:undname.obj
 0001:001b8aa8       ?getVfTableType@UnDecorator@@CA?AVDName@@AEBV2@@Z 00000001801b9aa8 f i libvcruntime:undname.obj
 0001:001b8cb4       ?getZName@UnDecorator@@CA?AVDName@@_N0@Z 00000001801b9cb4 f   libvcruntime:undname.obj
 0001:001b8f88       ?length@pDNameNode@@UEBAHXZ 00000001801b9f88 f i libvcruntime:undname.obj
 0001:001b8fb0       ?length@pairNode@@UEBAHXZ  00000001801b9fb0 f i libvcruntime:undname.obj
 0001:001b8ff8       ?parseDecoratedName@UnDecorator@@CA?AVDName@@XZ 00000001801b9ff8 f   libvcruntime:undname.obj
 0001:001b9110       ?raw_length@pDNameNode@@UEBAHXZ 00000001801ba110 f i libvcruntime:undname.obj
 0001:001b9114       ?raw_length@pairNode@@UEBAHXZ 00000001801ba114 f i libvcruntime:undname.obj
 0001:001b9118       __unDName                  00000001801ba118 f   libvcruntime:undname.obj
 0001:001b9140       __unDNameEx                00000001801ba140 f   libvcruntime:undname.obj
 0001:001b9274       snprintf                   00000001801ba274 f i libvcruntime:undname.obj
 0001:001b92cc       sprintf_s                  00000001801ba2cc f i libvcruntime:undname.obj
 0001:001b9320       __vcrt_freefls             00000001801ba320 f   libvcruntime:per_thread_data.obj
 0001:001b9340       __vcrt_freeptd             00000001801ba340 f   libvcruntime:per_thread_data.obj
 0001:001b9390       __vcrt_getptd              00000001801ba390 f   libvcruntime:per_thread_data.obj
 0001:001b93ac       __vcrt_getptd_noexit       00000001801ba3ac f   libvcruntime:per_thread_data.obj
 0001:001b946c       __vcrt_initialize_ptd      00000001801ba46c f   libvcruntime:per_thread_data.obj
 0001:001b94b4       __vcrt_uninitialize_ptd    00000001801ba4b4 f   libvcruntime:per_thread_data.obj
 0001:001b94d8       __vcrt_initialize_locks    00000001801ba4d8 f   libvcruntime:locks.obj
 0001:001b9520       __vcrt_lock                00000001801ba520 f   libvcruntime:locks.obj
 0001:001b953c       __vcrt_uninitialize_locks  00000001801ba53c f   libvcruntime:locks.obj
 0001:001b9574       __vcrt_unlock              00000001801ba574 f   libvcruntime:locks.obj
 0001:001b95a0       _NLG_Notify                00000001801ba5a0 f   libvcruntime:notify.obj
 0001:001b95c0       __NLG_Dispatch2            00000001801ba5c0 f   libvcruntime:notify.obj
 0001:001b95d0       __NLG_Return2              00000001801ba5d0 f   libvcruntime:notify.obj
 0001:001b95d4       __except_validate_context_record 00000001801ba5d4 f   libvcruntime:jbcxrval.obj
 0001:001b960c       ??$_CallSETranslator@V__FrameHandler3@@@@YAHPEAUEHExceptionRecord@@PEA_KPEAU_CONTEXT@@PEAU_xDISPATCHER_CONTEXT@@PEBU_s_FuncInfo@@K1H@Z 00000001801ba60c f i libvcruntime:risctrnsctrl.obj
 0001:001b9660       ??$_CallSETranslator@V__FrameHandler4@@@@YAHPEAUEHExceptionRecord@@PEA_KPEAU_CONTEXT@@PEAU_xDISPATCHER_CONTEXT@@PEAUFuncInfo4@FH4@@K1H@Z 00000001801ba660 f i libvcruntime:risctrnsctrl.obj
 0001:001b96b4       ?CatchTryBlock@__FrameHandler3@@SAPEBU_s_TryBlockMapEntry@@PEBU_s_FuncInfo@@H@Z 00000001801ba6b4 f   libvcruntime:risctrnsctrl.obj
 0001:001b9718       ?DecompFuncInfo@FH4@@YA_JPEAEAEAUFuncInfo4@1@_KH_N@Z 00000001801ba718 f i libvcruntime:risctrnsctrl.obj
 0001:001b983c       ?ExecutionInCatch@__FrameHandler3@@SA_NPEAU_xDISPATCHER_CONTEXT@@PEBU_s_FuncInfo@@@Z 00000001801ba83c f   libvcruntime:risctrnsctrl.obj
 0001:001b9868       ?ExecutionInCatch@__FrameHandler4@@SA_NPEAU_xDISPATCHER_CONTEXT@@PEAUFuncInfo4@FH4@@@Z 00000001801ba868 f   libvcruntime:risctrnsctrl.obj
 0001:001b9870       ?FrameUnwindToEmptyState@__FrameHandler3@@SAXPEA_KPEAU_xDISPATCHER_CONTEXT@@PEBU_s_FuncInfo@@@Z 00000001801ba870 f   libvcruntime:risctrnsctrl.obj
 0001:001b98d4       ?FrameUnwindToEmptyState@__FrameHandler4@@SAXPEA_KPEAU_xDISPATCHER_CONTEXT@@PEAUFuncInfo4@FH4@@@Z 00000001801ba8d4 f   libvcruntime:risctrnsctrl.obj
 0001:001b9908       ?GetEstablisherFrame@__FrameHandler3@@SAPEA_KPEA_KPEAU_xDISPATCHER_CONTEXT@@PEBU_s_FuncInfo@@0@Z 00000001801ba908 f   libvcruntime:risctrnsctrl.obj
 0001:001b99d4       ?GetEstablisherFrame@__FrameHandler4@@SAPEA_KPEA_KPEAU_xDISPATCHER_CONTEXT@@PEAUFuncInfo4@FH4@@0@Z 00000001801ba9d4 f   libvcruntime:risctrnsctrl.obj
 0001:001b99f8       ?GetRangeOfTrysToCheck@__FrameHandler3@@SA?AU?$pair@Viterator@TryBlockMap@__FrameHandler3@@V123@@std@@AEAVTryBlockMap@1@HPEAU_xDISPATCHER_CONTEXT@@PEBU_s_FuncInfo@@H@Z 00000001801ba9f8 f   libvcruntime:risctrnsctrl.obj
 0001:001b9b38       ?GetRangeOfTrysToCheck@__FrameHandler4@@SA?AU?$pair@Viterator@TryBlockMap4@FH4@@V123@@std@@AEAVTryBlockMap4@FH4@@HPEAU_xDISPATCHER_CONTEXT@@PEAUFuncInfo4@5@H@Z 00000001801bab38 f   libvcruntime:risctrnsctrl.obj
 0001:001b9ca4       ?UnwindNestedFrames@__FrameHandler3@@SAXPEA_KPEAUEHExceptionRecord@@PEAU_CONTEXT@@0PEAXPEBU_s_FuncInfo@@HHPEBU_s_HandlerType@@PEAU_xDISPATCHER_CONTEXT@@E@Z 00000001801baca4 f   libvcruntime:risctrnsctrl.obj
 0001:001b9da8       ?UnwindNestedFrames@__FrameHandler4@@SAXPEA_KPEAUEHExceptionRecord@@PEAU_CONTEXT@@0PEAXPEAUFuncInfo4@FH4@@HHPEAUHandlerType4@5@PEAU_xDISPATCHER_CONTEXT@@E@Z 00000001801bada8 f   libvcruntime:risctrnsctrl.obj
 0001:001b9ec8       ?setBuffer@TryBlockMap4@FH4@@QEAAXViterator@12@@Z 00000001801baec8 f i libvcruntime:risctrnsctrl.obj
 0001:001ba08c       _CreateFrameInfo           00000001801bb08c f   libvcruntime:risctrnsctrl.obj
 0001:001ba0c8       _FindAndUnlinkFrame        00000001801bb0c8 f   libvcruntime:risctrnsctrl.obj
 0001:001ba11c       _GetImageBase              00000001801bb11c f   libvcruntime:risctrnsctrl.obj
 0001:001ba130       _GetThrowImageBase         00000001801bb130 f   libvcruntime:risctrnsctrl.obj
 0001:001ba144       _SetImageBase              00000001801bb144 f   libvcruntime:risctrnsctrl.obj
 0001:001ba15c       _SetThrowImageBase         00000001801bb15c f   libvcruntime:risctrnsctrl.obj
 0001:001ba174       __CxxFrameHandler3         00000001801bb174 f   libvcruntime:risctrnsctrl.obj
 0001:001ba1fc       __CxxFrameHandler4         00000001801bb1fc f   libvcruntime:risctrnsctrl.obj
 0001:001ba40c       __vcrt_FlsAlloc            00000001801bb40c f   libvcruntime:winapi_downlevel.obj
 0001:001ba454       __vcrt_FlsFree             00000001801bb454 f   libvcruntime:winapi_downlevel.obj
 0001:001ba49c       __vcrt_FlsGetValue         00000001801bb49c f   libvcruntime:winapi_downlevel.obj
 0001:001ba4e4       __vcrt_FlsSetValue         00000001801bb4e4 f   libvcruntime:winapi_downlevel.obj
 0001:001ba538       __vcrt_InitializeCriticalSectionEx 00000001801bb538 f   libvcruntime:winapi_downlevel.obj
 0001:001ba59c       ?GetCurrentState@__FrameHandler3@@SAHPEA_KPEAU_xDISPATCHER_CONTEXT@@PEBU_s_FuncInfo@@@Z 00000001801bb59c f   libvcruntime:ehstate.obj
 0001:001ba5c4       ?GetUnwindTryBlock@__FrameHandler3@@SAHPEA_KPEAU_xDISPATCHER_CONTEXT@@PEBU_s_FuncInfo@@@Z 00000001801bb5c4 f   libvcruntime:ehstate.obj
 0001:001ba5f0       ?SetState@__FrameHandler3@@SAXPEA_KPEBU_s_FuncInfo@@H@Z 00000001801bb5f0 f   libvcruntime:ehstate.obj
 0001:001ba5fc       ?SetUnwindTryBlock@__FrameHandler3@@SAXPEA_KPEAU_xDISPATCHER_CONTEXT@@PEBU_s_FuncInfo@@H@Z 00000001801bb5fc f   libvcruntime:ehstate.obj
 0001:001ba638       ?StateFromControlPc@__FrameHandler3@@SAHPEBU_s_FuncInfo@@PEAU_xDISPATCHER_CONTEXT@@@Z 00000001801bb638 f   libvcruntime:ehstate.obj
 0001:001ba640       ?StateFromControlPc@__FrameHandler4@@SAHPEAUFuncInfo4@FH4@@PEAU_xDISPATCHER_CONTEXT@@@Z 00000001801bb640 f   libvcruntime:ehstate.obj
 0001:001ba648       ?StateFromIp@__FrameHandler3@@SAHPEBU_s_FuncInfo@@PEAU_xDISPATCHER_CONTEXT@@_K@Z 00000001801bb648 f   libvcruntime:ehstate.obj
 0001:001ba6b0       ?StateFromIp@__FrameHandler4@@SAHPEAUFuncInfo4@FH4@@PEAU_xDISPATCHER_CONTEXT@@_K@Z 00000001801bb6b0 f   libvcruntime:ehstate.obj
 0001:001bbdb0       ??$TypeMatchHelper@V__FrameHandler3@@@@YAHPEBU_s_HandlerType@@PEBU_s_CatchableType@@PEBU_s_ThrowInfo@@@Z 00000001801bcdb0 f i libvcruntime:frame.obj
 0001:001bbef0       ??$TypeMatchHelper@V__FrameHandler4@@@@YAHPEAUHandlerType4@FH4@@PEBU_s_CatchableType@@PEBU_s_ThrowInfo@@@Z 00000001801bcef0 f i libvcruntime:frame.obj
 0001:001bc034       ??$__InternalCxxFrameHandler@V__FrameHandler3@@@@YA?AW4_EXCEPTION_DISPOSITION@@PEAUEHExceptionRecord@@PEA_KPEAU_CONTEXT@@PEAU_xDISPATCHER_CONTEXT@@PEBU_s_FuncInfo@@H1E@Z 00000001801bd034 f i libvcruntime:frame.obj
 0001:001bc26c       ??$__InternalCxxFrameHandler@V__FrameHandler4@@@@YA?AW4_EXCEPTION_DISPOSITION@@PEAUEHExceptionRecord@@PEA_KPEAU_CONTEXT@@PEAU_xDISPATCHER_CONTEXT@@PEAUFuncInfo4@FH4@@H1E@Z 00000001801bd26c f i libvcruntime:frame.obj
 0001:001bc500       ??$__InternalCxxFrameHandlerWrapper@V__FrameHandler3@@@@YA?AW4_EXCEPTION_DISPOSITION@@PEAUEHExceptionRecord@@PEA_KPEAU_CONTEXT@@PEAU_xDISPATCHER_CONTEXT@@PEBU_s_FuncInfo@@H1E@Z 00000001801bd500 f i libvcruntime:frame.obj
 0001:001bc508       ??$__InternalCxxFrameHandlerWrapper@V__FrameHandler4@@@@YA?AW4_EXCEPTION_DISPOSITION@@PEAUEHExceptionRecord@@PEA_KPEAU_CONTEXT@@PEAU_xDISPATCHER_CONTEXT@@PEAUFuncInfo4@FH4@@H1E@Z 00000001801bd508 f i libvcruntime:frame.obj
 0001:001bc564       ??0HandlerMap4@FH4@@QEAA@PEBUTryBlockMapEntry4@1@_KH@Z 00000001801bd564 f i libvcruntime:frame.obj
 0001:001bc5e0       ??0TryBlockMap4@FH4@@QEAA@PEBUFuncInfo4@1@_K@Z 00000001801bd5e0 f i libvcruntime:frame.obj
 0001:001bc6b8       ??0bad_exception@std@@QEAA@AEBV01@@Z 00000001801bd6b8 f i libvcruntime:frame.obj
 0001:001bc6f4       ??0bad_exception@std@@QEAA@XZ 00000001801bd6f4 f i libvcruntime:frame.obj
 0001:001bc714       ??0exception@std@@QEAA@AEBV01@@Z 00000001801bd714 f i libvcruntime:frame.obj
 0001:001bc748       ??1bad_exception@std@@UEAA@XZ 00000001801bd748 f i libvcruntime:frame.obj
 0001:001bc75c       ??_Ebad_exception@std@@UEAAPEAXI@Z 00000001801bd75c f i libvcruntime:frame.obj
 0001:001bc75c       ??_Eexception@std@@UEAAPEAXI@Z 00000001801bd75c f i libvcruntime:frame.obj
 0001:001bc75c       ??_Gbad_exception@std@@UEAAPEAXI@Z 00000001801bd75c f i libvcruntime:frame.obj
 0001:001bc75c       ??_Gexception@std@@UEAAPEAXI@Z 00000001801bd75c f i libvcruntime:frame.obj
 0001:001bc7a0       ?CxxCallCatchBlock@__FrameHandler3@@SAPEAXPEAU_EXCEPTION_RECORD@@@Z 00000001801bd7a0 f   libvcruntime:frame.obj
 0001:001bc98c       ?CxxCallCatchBlock@__FrameHandler4@@SAPEAXPEAU_EXCEPTION_RECORD@@@Z 00000001801bd98c f   libvcruntime:frame.obj
 0001:001bcbdc       ?DecompHandler@HandlerMap4@FH4@@AEAAXXZ 00000001801bdbdc f i libvcruntime:frame.obj
 0001:001bce28       ?FrameUnwindToState@__FrameHandler3@@SAXPEA_KPEAU_xDISPATCHER_CONTEXT@@PEBU_s_FuncInfo@@H@Z 00000001801bde28 f   libvcruntime:frame.obj
 0001:001bcfb4       ?FrameUnwindToState@__FrameHandler4@@SAXPEA_KPEAU_xDISPATCHER_CONTEXT@@PEAUFuncInfo4@FH4@@H@Z 00000001801bdfb4 f   libvcruntime:frame.obj
 0001:001bd2b0       ?GetHandlerSearchState@__FrameHandler3@@SAHPEA_KPEAU_xDISPATCHER_CONTEXT@@PEBU_s_FuncInfo@@@Z 00000001801be2b0 f i libvcruntime:frame.obj
 0001:001bd4c0       ?ReadEntry@UWMap4@FH4@@AEAAXPEAPEAE@Z 00000001801be4c0 f i libvcruntime:frame.obj
 0001:001bd55c       ?_CallMemberFunction1@@YAXQEAX00@Z 00000001801be55c f i libvcruntime:frame.obj
 0001:001bd568       ?_CallMemberFunction2@@YAXQEAX00H@Z 00000001801be568 f i libvcruntime:frame.obj
 0001:001bd578       ?getStartStop@UWMap4@FH4@@QEAAXHHAEAViterator@12@0@Z 00000001801be578 f i libvcruntime:frame.obj
 0001:001bd648       ?getStateFromIterators@UWMap4@FH4@@SAHAEBViterator@12@H0H0@Z 00000001801be648 f i libvcruntime:frame.obj
 0001:001bd6f8       ?what@exception@std@@UEBAPEBDXZ 00000001801be6f8 f i libvcruntime:frame.obj
 0001:001bd720       _CallSettingFrame          00000001801be720 f   libvcruntime:handlers.obj
 0001:001bd770       _CallSettingFrame_LookupContinuationIndex 00000001801be770 f   libvcruntime:handlers.obj
 0001:001bd7a0       _CallSettingFrame_NotifyContinuationAddr 00000001801be7a0 f   libvcruntime:handlers.obj
 0001:001bd7d0       _CallSettingFrameEncoded   00000001801be7d0 f   libvcruntime:handlers.obj
 0001:001bd818       __std_exception_copy       00000001801be818 f   libvcruntime:std_exception.obj
 0001:001bd8a8       __std_exception_destroy    00000001801be8a8 f   libvcruntime:std_exception.obj
 0001:001bd8d0       _CxxThrowException         00000001801be8d0 f   libvcruntime:throw.obj
 0001:001bd970       _local_unwind              00000001801be970 f   libvcruntime:jmpuwind.obj
 0001:001bd9a0       cosf                       00000001801be9a0 f   libucrt:cosf.obj
 0001:001bdea0       sinf                       00000001801beea0 f   libucrt:sinf.obj
 0001:001be5a0       tanf                       00000001801bf5a0 f   libucrt:tanf.obj
 0001:001bec14       __acrt_initialize_stdio    00000001801bfc14 f   libucrt:_file.obj
 0001:001bed34       __acrt_iob_func            00000001801bfd34 f   libucrt:_file.obj
 0001:001bed48       __acrt_uninitialize_stdio  00000001801bfd48 f   libucrt:_file.obj
 0001:001beda4       _lock_file                 00000001801bfda4 f   libucrt:_file.obj
 0001:001bedb0       _unlock_file               00000001801bfdb0 f   libucrt:_file.obj
 0001:001befac       ??$ensure_buffer_is_big_enough@D@formatting_buffer@__crt_stdio_output@@QEAA_N_KAEAV__crt_cached_ptd_host@@@Z 00000001801bffac f i libucrt:output.obj
 0001:001bf054       ??$parse_integer@KV?$c_string_character_source@D@__crt_strtox@@$0A@@__crt_strtox@@YAKAEAV__crt_cached_ptd_host@@V?$c_string_character_source@D@0@H_N@Z 00000001801c0054 f i libucrt:output.obj
 0001:001bf304       ??$type_case_integer@$07@?$output_processor@DV?$stream_output_adapter@D@__crt_stdio_output@@V?$standard_base@DV?$stream_output_adapter@D@__crt_stdio_output@@@2@@__crt_stdio_output@@AEAA_N_N@Z 00000001801c0304 f i libucrt:output.obj
 0001:001bf304       ??$type_case_integer@$07@?$output_processor@DV?$string_output_adapter@D@__crt_stdio_output@@V?$format_validation_base@DV?$string_output_adapter@D@__crt_stdio_output@@@2@@__crt_stdio_output@@AEAA_N_N@Z 00000001801c0304 f i libucrt:output.obj
 0001:001bf304       ??$type_case_integer@$07@?$output_processor@DV?$string_output_adapter@D@__crt_stdio_output@@V?$standard_base@DV?$string_output_adapter@D@__crt_stdio_output@@@2@@__crt_stdio_output@@AEAA_N_N@Z 00000001801c0304 f i libucrt:output.obj
 0001:001bf4ec       ??$type_case_integer@$09@?$output_processor@DV?$stream_output_adapter@D@__crt_stdio_output@@V?$standard_base@DV?$stream_output_adapter@D@__crt_stdio_output@@@2@@__crt_stdio_output@@AEAA_N_N@Z 00000001801c04ec f i libucrt:output.obj
 0001:001bf4ec       ??$type_case_integer@$09@?$output_processor@DV?$string_output_adapter@D@__crt_stdio_output@@V?$format_validation_base@DV?$string_output_adapter@D@__crt_stdio_output@@@2@@__crt_stdio_output@@AEAA_N_N@Z 00000001801c04ec f i libucrt:output.obj
 0001:001bf4ec       ??$type_case_integer@$09@?$output_processor@DV?$string_output_adapter@D@__crt_stdio_output@@V?$standard_base@DV?$string_output_adapter@D@__crt_stdio_output@@@2@@__crt_stdio_output@@AEAA_N_N@Z 00000001801c04ec f i libucrt:output.obj
 0001:001bf6d4       ??$type_case_integer@$0BA@@?$output_processor@DV?$stream_output_adapter@D@__crt_stdio_output@@V?$standard_base@DV?$stream_output_adapter@D@__crt_stdio_output@@@2@@__crt_stdio_output@@AEAA_N_N@Z 00000001801c06d4 f i libucrt:output.obj
 0001:001bf6d4       ??$type_case_integer@$0BA@@?$output_processor@DV?$string_output_adapter@D@__crt_stdio_output@@V?$format_validation_base@DV?$string_output_adapter@D@__crt_stdio_output@@@2@@__crt_stdio_output@@AEAA_N_N@Z 00000001801c06d4 f i libucrt:output.obj
 0001:001bf6d4       ??$type_case_integer@$0BA@@?$output_processor@DV?$string_output_adapter@D@__crt_stdio_output@@V?$standard_base@DV?$string_output_adapter@D@__crt_stdio_output@@@2@@__crt_stdio_output@@AEAA_N_N@Z 00000001801c06d4 f i libucrt:output.obj
 0001:001bf8bc       ??$type_case_integer_parse_into_buffer@I$07@?$output_processor@DV?$stream_output_adapter@D@__crt_stdio_output@@V?$standard_base@DV?$stream_output_adapter@D@__crt_stdio_output@@@2@@__crt_stdio_output@@AEAAXI_N@Z 00000001801c08bc f i libucrt:output.obj
 0001:001bf8bc       ??$type_case_integer_parse_into_buffer@I$07@?$output_processor@DV?$string_output_adapter@D@__crt_stdio_output@@V?$format_validation_base@DV?$string_output_adapter@D@__crt_stdio_output@@@2@@__crt_stdio_output@@AEAAXI_N@Z 00000001801c08bc f i libucrt:output.obj
 0001:001bf8bc       ??$type_case_integer_parse_into_buffer@I$07@?$output_processor@DV?$string_output_adapter@D@__crt_stdio_output@@V?$standard_base@DV?$string_output_adapter@D@__crt_stdio_output@@@2@@__crt_stdio_output@@AEAAXI_N@Z 00000001801c08bc f i libucrt:output.obj
 0001:001bf938       ??$type_case_integer_parse_into_buffer@I$09@?$output_processor@DV?$stream_output_adapter@D@__crt_stdio_output@@V?$standard_base@DV?$stream_output_adapter@D@__crt_stdio_output@@@2@@__crt_stdio_output@@AEAAXI_N@Z 00000001801c0938 f i libucrt:output.obj
 0001:001bf938       ??$type_case_integer_parse_into_buffer@I$09@?$output_processor@DV?$string_output_adapter@D@__crt_stdio_output@@V?$format_validation_base@DV?$string_output_adapter@D@__crt_stdio_output@@@2@@__crt_stdio_output@@AEAAXI_N@Z 00000001801c0938 f i libucrt:output.obj
 0001:001bf938       ??$type_case_integer_parse_into_buffer@I$09@?$output_processor@DV?$string_output_adapter@D@__crt_stdio_output@@V?$standard_base@DV?$string_output_adapter@D@__crt_stdio_output@@@2@@__crt_stdio_output@@AEAAXI_N@Z 00000001801c0938 f i libucrt:output.obj
 0001:001bf9e0       ??$type_case_integer_parse_into_buffer@I$0BA@@?$output_processor@DV?$stream_output_adapter@D@__crt_stdio_output@@V?$standard_base@DV?$stream_output_adapter@D@__crt_stdio_output@@@2@@__crt_stdio_output@@AEAAXI_N@Z 00000001801c09e0 f i libucrt:output.obj
 0001:001bf9e0       ??$type_case_integer_parse_into_buffer@I$0BA@@?$output_processor@DV?$string_output_adapter@D@__crt_stdio_output@@V?$format_validation_base@DV?$string_output_adapter@D@__crt_stdio_output@@@2@@__crt_stdio_output@@AEAAXI_N@Z 00000001801c09e0 f i libucrt:output.obj
 0001:001bf9e0       ??$type_case_integer_parse_into_buffer@I$0BA@@?$output_processor@DV?$string_output_adapter@D@__crt_stdio_output@@V?$standard_base@DV?$string_output_adapter@D@__crt_stdio_output@@@2@@__crt_stdio_output@@AEAAXI_N@Z 00000001801c09e0 f i libucrt:output.obj
 0001:001bfa6c       ??$type_case_integer_parse_into_buffer@_K$07@?$output_processor@DV?$stream_output_adapter@D@__crt_stdio_output@@V?$standard_base@DV?$stream_output_adapter@D@__crt_stdio_output@@@2@@__crt_stdio_output@@AEAAX_K_N@Z 00000001801c0a6c f i libucrt:output.obj
 0001:001bfa6c       ??$type_case_integer_parse_into_buffer@_K$07@?$output_processor@DV?$string_output_adapter@D@__crt_stdio_output@@V?$format_validation_base@DV?$string_output_adapter@D@__crt_stdio_output@@@2@@__crt_stdio_output@@AEAAX_K_N@Z 00000001801c0a6c f i libucrt:output.obj
 0001:001bfa6c       ??$type_case_integer_parse_into_buffer@_K$07@?$output_processor@DV?$string_output_adapter@D@__crt_stdio_output@@V?$standard_base@DV?$string_output_adapter@D@__crt_stdio_output@@@2@@__crt_stdio_output@@AEAAX_K_N@Z 00000001801c0a6c f i libucrt:output.obj
 0001:001bfae8       ??$type_case_integer_parse_into_buffer@_K$09@?$output_processor@DV?$stream_output_adapter@D@__crt_stdio_output@@V?$standard_base@DV?$stream_output_adapter@D@__crt_stdio_output@@@2@@__crt_stdio_output@@AEAAX_K_N@Z 00000001801c0ae8 f i libucrt:output.obj
 0001:001bfae8       ??$type_case_integer_parse_into_buffer@_K$09@?$output_processor@DV?$string_output_adapter@D@__crt_stdio_output@@V?$format_validation_base@DV?$string_output_adapter@D@__crt_stdio_output@@@2@@__crt_stdio_output@@AEAAX_K_N@Z 00000001801c0ae8 f i libucrt:output.obj
 0001:001bfae8       ??$type_case_integer_parse_into_buffer@_K$09@?$output_processor@DV?$string_output_adapter@D@__crt_stdio_output@@V?$standard_base@DV?$string_output_adapter@D@__crt_stdio_output@@@2@@__crt_stdio_output@@AEAAX_K_N@Z 00000001801c0ae8 f i libucrt:output.obj
 0001:001bfb94       ??$type_case_integer_parse_into_buffer@_K$0BA@@?$output_processor@DV?$stream_output_adapter@D@__crt_stdio_output@@V?$standard_base@DV?$stream_output_adapter@D@__crt_stdio_output@@@2@@__crt_stdio_output@@AEAAX_K_N@Z 00000001801c0b94 f i libucrt:output.obj
 0001:001bfb94       ??$type_case_integer_parse_into_buffer@_K$0BA@@?$output_processor@DV?$string_output_adapter@D@__crt_stdio_output@@V?$format_validation_base@DV?$string_output_adapter@D@__crt_stdio_output@@@2@@__crt_stdio_output@@AEAAX_K_N@Z 00000001801c0b94 f i libucrt:output.obj
 0001:001bfb94       ??$type_case_integer_parse_into_buffer@_K$0BA@@?$output_processor@DV?$string_output_adapter@D@__crt_stdio_output@@V?$standard_base@DV?$string_output_adapter@D@__crt_stdio_output@@@2@@__crt_stdio_output@@AEAAX_K_N@Z 00000001801c0b94 f i libucrt:output.obj
 0001:001bfd3c       ?crop_zeroes@__crt_stdio_output@@YAXPEADQEAU__crt_locale_pointers@@@Z 00000001801c0d3c f i libucrt:output.obj
 0001:001bfdb0       ?get_raw_ptd@__crt_cached_ptd_host@@QEAAPEAU__acrt_ptd@@XZ 00000001801c0db0 f i libucrt:output.obj
 0001:001bfe18       ?parse_int_from_format_string@?$output_processor@DV?$stream_output_adapter@D@__crt_stdio_output@@V?$standard_base@DV?$stream_output_adapter@D@__crt_stdio_output@@@2@@__crt_stdio_output@@AEAA_NQEAH@Z 00000001801c0e18 f i libucrt:output.obj
 0001:001bfe18       ?parse_int_from_format_string@?$output_processor@DV?$string_output_adapter@D@__crt_stdio_output@@V?$format_validation_base@DV?$string_output_adapter@D@__crt_stdio_output@@@2@@__crt_stdio_output@@AEAA_NQEAH@Z 00000001801c0e18 f i libucrt:output.obj
 0001:001bfe18       ?parse_int_from_format_string@?$output_processor@DV?$string_output_adapter@D@__crt_stdio_output@@V?$standard_base@DV?$string_output_adapter@D@__crt_stdio_output@@@2@@__crt_stdio_output@@AEAA_NQEAH@Z 00000001801c0e18 f i libucrt:output.obj
 0001:001bfea8       ?process@?$output_processor@DV?$stream_output_adapter@D@__crt_stdio_output@@V?$standard_base@DV?$stream_output_adapter@D@__crt_stdio_output@@@2@@__crt_stdio_output@@QEAAHXZ 00000001801c0ea8 f i libucrt:output.obj
 0001:001c0234       ?process@?$output_processor@DV?$string_output_adapter@D@__crt_stdio_output@@V?$format_validation_base@DV?$string_output_adapter@D@__crt_stdio_output@@@2@@__crt_stdio_output@@QEAAHXZ 00000001801c1234 f i libucrt:output.obj
 0001:001c05c4       ?process@?$output_processor@DV?$string_output_adapter@D@__crt_stdio_output@@V?$standard_base@DV?$string_output_adapter@D@__crt_stdio_output@@@2@@__crt_stdio_output@@QEAAHXZ 00000001801c15c4 f i libucrt:output.obj
 0001:001c0948       ?state_case_size@?$output_processor@DV?$stream_output_adapter@D@__crt_stdio_output@@V?$standard_base@DV?$stream_output_adapter@D@__crt_stdio_output@@@2@@__crt_stdio_output@@AEAA_NXZ 00000001801c1948 f i libucrt:output.obj
 0001:001c0acc       ?state_case_size@?$output_processor@DV?$string_output_adapter@D@__crt_stdio_output@@V?$format_validation_base@DV?$string_output_adapter@D@__crt_stdio_output@@@2@@__crt_stdio_output@@AEAA_NXZ 00000001801c1acc f i libucrt:output.obj
 0001:001c0acc       ?state_case_size@?$output_processor@DV?$string_output_adapter@D@__crt_stdio_output@@V?$standard_base@DV?$string_output_adapter@D@__crt_stdio_output@@@2@@__crt_stdio_output@@AEAA_NXZ 00000001801c1acc f i libucrt:output.obj
 0001:001c0c50       ?state_case_type@?$output_processor@DV?$stream_output_adapter@D@__crt_stdio_output@@V?$standard_base@DV?$stream_output_adapter@D@__crt_stdio_output@@@2@@__crt_stdio_output@@AEAA_NXZ 00000001801c1c50 f i libucrt:output.obj
 0001:001c1084       ?state_case_type@?$output_processor@DV?$string_output_adapter@D@__crt_stdio_output@@V?$format_validation_base@DV?$string_output_adapter@D@__crt_stdio_output@@@2@@__crt_stdio_output@@AEAA_NXZ 00000001801c2084 f i libucrt:output.obj
 0001:001c1084       ?state_case_type@?$output_processor@DV?$string_output_adapter@D@__crt_stdio_output@@V?$standard_base@DV?$string_output_adapter@D@__crt_stdio_output@@@2@@__crt_stdio_output@@AEAA_NXZ 00000001801c2084 f i libucrt:output.obj
 0001:001c1450       ?type_case_Z@?$output_processor@DV?$stream_output_adapter@D@__crt_stdio_output@@V?$standard_base@DV?$stream_output_adapter@D@__crt_stdio_output@@@2@@__crt_stdio_output@@AEAA_NXZ 00000001801c2450 f i libucrt:output.obj
 0001:001c1450       ?type_case_Z@?$output_processor@DV?$string_output_adapter@D@__crt_stdio_output@@V?$format_validation_base@DV?$string_output_adapter@D@__crt_stdio_output@@@2@@__crt_stdio_output@@AEAA_NXZ 00000001801c2450 f i libucrt:output.obj
 0001:001c1450       ?type_case_Z@?$output_processor@DV?$string_output_adapter@D@__crt_stdio_output@@V?$standard_base@DV?$string_output_adapter@D@__crt_stdio_output@@@2@@__crt_stdio_output@@AEAA_NXZ 00000001801c2450 f i libucrt:output.obj
 0001:001c14c8       ?type_case_a@?$output_processor@DV?$stream_output_adapter@D@__crt_stdio_output@@V?$standard_base@DV?$stream_output_adapter@D@__crt_stdio_output@@@2@@__crt_stdio_output@@AEAA_NXZ 00000001801c24c8 f i libucrt:output.obj
 0001:001c14c8       ?type_case_a@?$output_processor@DV?$string_output_adapter@D@__crt_stdio_output@@V?$format_validation_base@DV?$string_output_adapter@D@__crt_stdio_output@@@2@@__crt_stdio_output@@AEAA_NXZ 00000001801c24c8 f i libucrt:output.obj
 0001:001c14c8       ?type_case_a@?$output_processor@DV?$string_output_adapter@D@__crt_stdio_output@@V?$standard_base@DV?$string_output_adapter@D@__crt_stdio_output@@@2@@__crt_stdio_output@@AEAA_NXZ 00000001801c24c8 f i libucrt:output.obj
 0001:001c1714       ?type_case_c_tchar@?$output_processor@DV?$stream_output_adapter@D@__crt_stdio_output@@V?$standard_base@DV?$stream_output_adapter@D@__crt_stdio_output@@@2@@__crt_stdio_output@@AEAA_ND@Z 00000001801c2714 f i libucrt:output.obj
 0001:001c1714       ?type_case_c_tchar@?$output_processor@DV?$string_output_adapter@D@__crt_stdio_output@@V?$format_validation_base@DV?$string_output_adapter@D@__crt_stdio_output@@@2@@__crt_stdio_output@@AEAA_ND@Z 00000001801c2714 f i libucrt:output.obj
 0001:001c1714       ?type_case_c_tchar@?$output_processor@DV?$string_output_adapter@D@__crt_stdio_output@@V?$standard_base@DV?$string_output_adapter@D@__crt_stdio_output@@@2@@__crt_stdio_output@@AEAA_ND@Z 00000001801c2714 f i libucrt:output.obj
 0001:001c17d8       ?type_case_n@?$output_processor@DV?$stream_output_adapter@D@__crt_stdio_output@@V?$standard_base@DV?$stream_output_adapter@D@__crt_stdio_output@@@2@@__crt_stdio_output@@AEAA_NXZ 00000001801c27d8 f i libucrt:output.obj
 0001:001c17d8       ?type_case_n@?$output_processor@DV?$string_output_adapter@D@__crt_stdio_output@@V?$format_validation_base@DV?$string_output_adapter@D@__crt_stdio_output@@@2@@__crt_stdio_output@@AEAA_NXZ 00000001801c27d8 f i libucrt:output.obj
 0001:001c17d8       ?type_case_n@?$output_processor@DV?$string_output_adapter@D@__crt_stdio_output@@V?$standard_base@DV?$string_output_adapter@D@__crt_stdio_output@@@2@@__crt_stdio_output@@AEAA_NXZ 00000001801c27d8 f i libucrt:output.obj
 0001:001c188c       ?type_case_s@?$output_processor@DV?$stream_output_adapter@D@__crt_stdio_output@@V?$standard_base@DV?$stream_output_adapter@D@__crt_stdio_output@@@2@@__crt_stdio_output@@AEAA_NXZ 00000001801c288c f i libucrt:output.obj
 0001:001c188c       ?type_case_s@?$output_processor@DV?$string_output_adapter@D@__crt_stdio_output@@V?$format_validation_base@DV?$string_output_adapter@D@__crt_stdio_output@@@2@@__crt_stdio_output@@AEAA_NXZ 00000001801c288c f i libucrt:output.obj
 0001:001c188c       ?type_case_s@?$output_processor@DV?$string_output_adapter@D@__crt_stdio_output@@V?$standard_base@DV?$string_output_adapter@D@__crt_stdio_output@@@2@@__crt_stdio_output@@AEAA_NXZ 00000001801c288c f i libucrt:output.obj
 0001:001c1930       ?update_locale_slow@__crt_cached_ptd_host@@AEAAXXZ 00000001801c2930 f i libucrt:output.obj
 0001:001c19a8       ?validate_stream_is_ansi_if_required@?$__acrt_stdio_char_traits@D@@SA_NQEAU_iobuf@@@Z 00000001801c29a8 f i libucrt:output.obj
 0001:001c1a44       ?write_string@?$string_output_adapter@D@__crt_stdio_output@@QEBAXQEBDHQEAHAEAV__crt_cached_ptd_host@@@Z 00000001801c2a44 f i libucrt:output.obj
 0001:001c1ae8       ?write_string_impl@?$output_adapter_common@DV?$stream_output_adapter@D@__crt_stdio_output@@@__crt_stdio_output@@IEBAXQEBDHQEAHAEAV__crt_cached_ptd_host@@@Z 00000001801c2ae8 f i libucrt:output.obj
 0001:001c1bb4       __stdio_common_vfprintf    00000001801c2bb4 f   libucrt:output.obj
 0001:001c1cd8       __stdio_common_vsprintf    00000001801c2cd8 f   libucrt:output.obj
 0001:001c1f2c       __stdio_common_vsprintf_s  00000001801c2f2c f   libucrt:output.obj
 0001:001c2040       _fpclass                   00000001801c3040 f   libucrt:ieeemisc.obj
 0001:001c20d0       powf                       00000001801c30d0 f   libucrt:powf.obj
 0001:001c2f98       atan2f                     00000001801c3f98 f   libucrt:atan2f.obj
 0001:001c33a0       strcmp                     00000001801c43a0 f   libucrt:strcmp.obj
 0001:001c3408       acosf                      00000001801c4408 f   libucrt:acosf.obj
 0001:001c3634       free                       00000001801c4634 f   libucrt:free.obj
 0001:001c3648       _seh_filter_dll            00000001801c4648 f   libucrt:exception_filter.obj
 0001:001c365c       _seh_filter_exe            00000001801c465c f   libucrt:exception_filter.obj
 0001:001c3a80       __acrt_initialize_thread_local_exit_callback 00000001801c4a80 f   libucrt:exit.obj
 0001:001c3a88       _cexit                     00000001801c4a88 f   libucrt:exit.obj
 0001:001c3a98       _exit                      00000001801c4a98 f   libucrt:exit.obj
 0001:001c3aa4       _is_c_termination_complete 00000001801c4aa4 f   libucrt:exit.obj
 0001:001c3c6c       __acrt_allocate_buffer_for_argv 00000001801c4c6c f   libucrt:argv_parsing.obj
 0001:001c3ccc       _configure_narrow_argv     00000001801c4ccc f   libucrt:argv_parsing.obj
 0001:001c4054       __dcrt_uninitialize_environments_nolock 00000001801c5054 f   libucrt:environment_initialization.obj
 0001:001c4098       _initialize_narrow_environment 00000001801c5098 f   libucrt:environment_initialization.obj
 0001:001c43e8       _crt_atexit                00000001801c53e8 f   libucrt:onexit.obj
 0001:001c43f8       _execute_onexit_table      00000001801c53f8 f   libucrt:onexit.obj
 0001:001c443c       _initialize_onexit_table   00000001801c543c f   libucrt:onexit.obj
 0001:001c4464       _register_onexit_function  00000001801c5464 f   libucrt:onexit.obj
 0001:001c44e4       __acrt_uninitialize_command_line 00000001801c54e4 f   libucrt:argv_data.obj
 0001:001c45dc       __acrt_initialize          00000001801c55dc f   libucrt:initialization.obj
 0001:001c45f0       __acrt_thread_attach       00000001801c55f0 f   libucrt:initialization.obj
 0001:001c4604       __acrt_thread_detach       00000001801c5604 f   libucrt:initialization.obj
 0001:001c4614       __acrt_uninitialize        00000001801c5614 f   libucrt:initialization.obj
 0001:001c464c       __acrt_uninitialize_critical 00000001801c564c f   libucrt:initialization.obj
 0001:001c465c       _initterm                  00000001801c565c f   libucrt:initterm.obj
 0001:001c46a0       _initterm_e                00000001801c56a0 f   libucrt:initterm.obj
 0001:001c46e8       terminate                  00000001801c56e8 f   libucrt:terminate.obj
 0001:001c4714       abort                      00000001801c5714 f   libucrt:abort.obj
 0001:001c476c       malloc                     00000001801c576c f   libucrt:malloc.obj
 0001:001c4774       strcpy_s                   00000001801c5774 f   libucrt:strcpy_s.obj
 0001:001c47d4       ??$parse_integer@KV?$c_string_character_source@D@__crt_strtox@@$00@__crt_strtox@@YAKAEAV__crt_cached_ptd_host@@V?$c_string_character_source@D@0@H_N@Z 00000001801c57d4 f i libucrt:atox.obj
 0001:001c4ab4       _ischartype_l              00000001801c5ab4 f i libucrt:atox.obj
 0001:001c4b2c       atol                       00000001801c5b2c f   libucrt:atox.obj
 0001:001c4bf0       strncmp                    00000001801c5bf0 f   libucrt:strncmp.obj
 0001:001c4c70       calloc                     00000001801c5c70 f   libucrt:calloc.obj
 0001:001c4c78       wcsncmp                    00000001801c5c78 f   libucrt:wcsncmp.obj
 0001:001c4cb0       __remainder_piby2d2f_forAsm 00000001801c5cb0 f   libucrt:remainder_piby2f_forasm.obj
 0001:001c4e00       __remainder_piby2_fma3     00000001801c5e00 f   libucrt:remainder_piby2_forfma3.obj
 0001:001c4ff0       __remainder_piby2_fma3_bdl 00000001801c5ff0 f   libucrt:remainder_piby2_forfma3.obj
 0001:001c5068       _cosf_special              00000001801c6068 f   libucrt:sincos_special.obj
 0001:001c5108       _sinf_special              00000001801c6108 f   libucrt:sincos_special.obj
 0001:001c511c       _tanf_special              00000001801c611c f   libucrt:sincos_special.obj
 0001:001c5130       _clrfp                     00000001801c6130 f   libucrt:fpctrl.obj
 0001:001c5150       _ctrlfp                    00000001801c6150 f   libucrt:fpctrl.obj
 0001:001c51cc       _set_statfp                00000001801c61cc f   libucrt:fpctrl.obj
 0001:001c51ec       _statfp                    00000001801c61ec f   libucrt:fpctrl.obj
 0001:001c5200       __acrt_initialize_fma3     00000001801c6200 f   libucrt:fma3_available.obj
 0001:001c5270       __remainder_piby2d2f_forC  00000001801c6270 f   libucrt:remainder_piby2f_forc.obj
 0001:001c53fc       ?get_raw_ptd_noexit@__crt_cached_ptd_host@@QEAAPEAU__acrt_ptd@@XZ 00000001801c63fc f i libucrt:invalid_parameter.obj
 0001:001c5468       ?value@?$dual_state_global@P6AXPEB_W00I_K@Z@__crt_state_management@@QEAAAEAP6AXPEB_W00I_K@ZAEAV__crt_cached_ptd_host@@@Z 00000001801c6468 f i libucrt:invalid_parameter.obj
 0001:001c54b4       __acrt_call_reportfault    00000001801c64b4 f   libucrt:invalid_parameter.obj
 0001:001c5610       __acrt_initialize_invalid_parameter_handler 00000001801c6610 f   libucrt:invalid_parameter.obj
 0001:001c5618       _invalid_parameter         00000001801c6618 f   libucrt:invalid_parameter.obj
 0001:001c56b4       _invalid_parameter_internal 00000001801c66b4 f   libucrt:invalid_parameter.obj
 0001:001c5784       _invalid_parameter_noinfo  00000001801c6784 f   libucrt:invalid_parameter.obj
 0001:001c57a4       _invoke_watson             00000001801c67a4 f   libucrt:invalid_parameter.obj
 0001:001c57ec       __acrt_errno_from_os_error 00000001801c67ec f   libucrt:errno.obj
 0001:001c5834       __acrt_errno_map_os_error  00000001801c6834 f   libucrt:errno.obj
 0001:001c587c       __acrt_errno_map_os_error_ptd 00000001801c687c f   libucrt:errno.obj
 0001:001c58a0       __doserrno                 00000001801c68a0 f   libucrt:errno.obj
 0001:001c58c0       _errno                     00000001801c68c0 f   libucrt:errno.obj
 0001:001c58e0       _calloc_base               00000001801c68e0 f   libucrt:calloc_base.obj
 0001:001c5958       _free_base                 00000001801c6958 f   libucrt:free_base.obj
 0001:001c5b54       __acrt_AppPolicyGetProcessTerminationMethodInternal 00000001801c6b54 f   libucrt:winapi_thunks.obj
 0001:001c5bac       __acrt_AreFileApisANSI     00000001801c6bac f   libucrt:winapi_thunks.obj
 0001:001c5bf0       __acrt_FlsAlloc            00000001801c6bf0 f   libucrt:winapi_thunks.obj
 0001:001c5bf8       __acrt_FlsFree             00000001801c6bf8 f   libucrt:winapi_thunks.obj
 0001:001c5c00       __acrt_FlsGetValue         00000001801c6c00 f   libucrt:winapi_thunks.obj
 0001:001c5c08       __acrt_FlsSetValue         00000001801c6c08 f   libucrt:winapi_thunks.obj
 0001:001c5c10       __acrt_InitializeCriticalSectionEx 00000001801c6c10 f   libucrt:winapi_thunks.obj
 0001:001c5c80       __acrt_LCMapStringEx       00000001801c6c80 f   libucrt:winapi_thunks.obj
 0001:001c5d6c       __acrt_LocaleNameToLCID    00000001801c6d6c f   libucrt:winapi_thunks.obj
 0001:001c5dcc       __acrt_initialize_winapi_thunks 00000001801c6dcc f   libucrt:winapi_thunks.obj
 0001:001c5df0       __acrt_uninitialize_winapi_thunks 00000001801c6df0 f   libucrt:winapi_thunks.obj
 0001:001c5e34       _fcloseall                 00000001801c6e34 f   libucrt:closeall.obj
 0001:001c60c4       __acrt_stdio_flush_nolock  00000001801c70c4 f   libucrt:fflush.obj
 0001:001c6150       _fflush_nolock             00000001801c7150 f   libucrt:fflush.obj
 0001:001c6224       _flushall                  00000001801c7224 f   libucrt:fflush.obj
 0001:001c622c       __acrt_stdio_free_buffer_nolock 00000001801c722c f   libucrt:_freebuf.obj
 0001:001c6464       __acrt_initialize_lowio    00000001801c7464 f   libucrt:ioinit.obj
 0001:001c64a0       __acrt_uninitialize_lowio  00000001801c74a0 f   libucrt:ioinit.obj
 0001:001c64e0       _malloc_base               00000001801c74e0 f   libucrt:malloc_base.obj
 0001:001c6540       strnlen                    00000001801c7540 f   libucrt:strnlen.obj
 0001:001c6690       wcsnlen                    00000001801c7690 f   libucrt:strnlen.obj
 0001:001c6868       __acrt_update_locale_info  00000001801c7868 f   libucrt:locale_update.obj
 0001:001c689c       __acrt_update_locale_info_explicit 00000001801c789c f   libucrt:locale_update.obj
 0001:001c68d4       __acrt_update_multibyte_info 00000001801c78d4 f   libucrt:locale_update.obj
 0001:001c6908       __acrt_update_multibyte_info_explicit 00000001801c7908 f   libucrt:locale_update.obj
 0001:001c7470       __acrt_fp_format           00000001801c8470 f   libucrt:cvt.obj
 0001:001c7758       _wctomb_internal           00000001801c8758 f   libucrt:wctomb.obj
 0001:001c7908       _mbtowc_internal           00000001801c8908 f   libucrt:mbtowc.obj
 0001:001c7a80       _fileno                    00000001801c8a80 f   libucrt:fileno.obj
 0001:001c7aa8       _get_printf_count_output   00000001801c8aa8 f   libucrt:printf_count_output.obj
 0001:001c7ac0       _fputc_nolock_internal     00000001801c8ac0 f   libucrt:fputc.obj
 0001:001c7ad8       __acrt_should_use_temporary_buffer 00000001801c8ad8 f   libucrt:_sftbuf.obj
 0001:001c7b20       __acrt_stdio_begin_temporary_buffering_nolock 00000001801c8b20 f   libucrt:_sftbuf.obj
 0001:001c7be8       __acrt_stdio_end_temporary_buffering_nolock 00000001801c8be8 f   libucrt:_sftbuf.obj
 0001:001c7f9c       __acrt_freeptd             00000001801c8f9c f   libucrt:per_thread_data.obj
 0001:001c7fe0       __acrt_getptd              00000001801c8fe0 f   libucrt:per_thread_data.obj
 0001:001c80b4       __acrt_getptd_head         00000001801c90b4 f   libucrt:per_thread_data.obj
 0001:001c8158       __acrt_getptd_noexit       00000001801c9158 f   libucrt:per_thread_data.obj
 0001:001c8220       __acrt_getptd_noexit_explicit 00000001801c9220 f   libucrt:per_thread_data.obj
 0001:001c82e0       __acrt_initialize_ptd      00000001801c92e0 f   libucrt:per_thread_data.obj
 0001:001c831c       __acrt_uninitialize_ptd    00000001801c931c f   libucrt:per_thread_data.obj
 0001:001c83b0       __acrt_set_locale_changed  00000001801c93b0 f   libucrt:wsetlocale.obj
 0001:001c83bc       __acrt_uninitialize_locale 00000001801c93bc f   libucrt:wsetlocale.obj
 0001:001c8510       _handle_error              00000001801c9510 f   libucrt:libm_error.obj
 0001:001c8638       _handle_errorf             00000001801c9638 f   libucrt:libm_error.obj
 0001:001c876c       _handle_nan                00000001801c976c f   libucrt:libm_error.obj
 0001:001c8788       _handle_nanf               00000001801c9788 f   libucrt:libm_error.obj
 0001:001c87a0       _powf_special              00000001801c97a0 f   libucrt:pow_special.obj
 0001:001c88f0       __acrt_initialize_locks    00000001801c98f0 f   libucrt:locks.obj
 0001:001c8938       __acrt_lock                00000001801c9938 f   libucrt:locks.obj
 0001:001c8954       __acrt_uninitialize_locks  00000001801c9954 f   libucrt:locks.obj
 0001:001c898c       __acrt_unlock              00000001801c998c f   libucrt:locks.obj
 0001:001c89a8       __acrt_get_process_end_policy 00000001801c99a8 f   libucrt:win_policies.obj
 0001:001c89f8       ??$__acrt_convert_wcs_mbs_cp@D_WV<lambda_7c9dea7b4ca7285d2cdb541a38da6275>@@U__crt_win32_buffer_internal_dynamic_resizing@@@@YAHQEBDAEAV?$__crt_win32_buffer@_WU__crt_win32_buffer_internal_dynamic_resizing@@@@AEBV<lambda_7c9dea7b4ca7285d2cdb541a38da6275>@@I@Z 00000001801c99f8 f i libucrt:argv_wildcards.obj
 0001:001c8b74       ??$__acrt_convert_wcs_mbs_cp@_WDV<lambda_d8593a27d1aa8c02be35c86a17d324c4>@@U__crt_win32_buffer_internal_dynamic_resizing@@@@YAHQEB_WAEAV?$__crt_win32_buffer@DU__crt_win32_buffer_internal_dynamic_resizing@@@@AEBV<lambda_d8593a27d1aa8c02be35c86a17d324c4>@@I@Z 00000001801c9b74 f i libucrt:argv_wildcards.obj
 0001:001c941c       ??0_LocaleUpdate@@QEAA@QEAU__crt_locale_pointers@@@Z 00000001801ca41c f i libucrt:argv_wildcards.obj
 0001:001c94b8       __acrt_expand_narrow_argv_wildcards 00000001801ca4b8 f   libucrt:argv_wildcards.obj
 0001:001c94c0       ??$__acrt_convert_wcs_mbs_cp@_WDV<lambda_f788ae46380686e8b737efdd8c720d07>@@U__crt_win32_buffer_no_resizing@@@@YAHQEB_WAEAV?$__crt_win32_buffer@DU__crt_win32_buffer_no_resizing@@@@AEBV<lambda_f788ae46380686e8b737efdd8c720d07>@@I@Z 00000001801ca4c0 f i libucrt:getmodulefilenamea.obj
 0001:001c95dc       __acrt_GetModuleFileNameA  00000001801ca5dc f   libucrt:getmodulefilenamea.obj
 0001:001c9ef8       __acrt_initialize_multibyte 00000001801caef8 f   libucrt:mbctype.obj
 0001:001c9f58       __acrt_update_thread_multibyte_data 00000001801caf58 f   libucrt:mbctype.obj
 0001:001c9f74       _setmbcp_nolock            00000001801caf74 f   libucrt:mbctype.obj
 0001:001ca2a8       _ismbblead                 00000001801cb2a8 f   libucrt:ismbbyte.obj
 0001:001ca2bc       __acrt_initialize_command_line 00000001801cb2bc f   libucrt:argv_data.obj
 0001:001ca2e4       __acrt_MultiByteToWideChar 00000001801cb2e4 f   libucrt:multibytetowidechar.obj
 0001:001ca340       __acrt_WideCharToMultiByte 00000001801cb340 f   libucrt:widechartomultibyte.obj
 0001:001ca3f0       __dcrt_get_narrow_environment_from_os 00000001801cb3f0 f   libucrt:get_environment_from_os.obj
 0001:001ca500       _recalloc_base             00000001801cb500 f   libucrt:recalloc.obj
 0001:001ca598       __acrt_initialize_heap     00000001801cb598 f   libucrt:heap_handle.obj
 0001:001ca5b4       __acrt_uninitialize_heap   00000001801cb5b4 f   libucrt:heap_handle.obj
 0001:001ca5c0       __acrt_execute_initializers 00000001801cb5c0 f   libucrt:shared_initialization.obj
 0001:001ca654       __acrt_execute_uninitializers 00000001801cb654 f   libucrt:shared_initialization.obj
 0001:001ca69c       __acrt_initialize_new_handler 00000001801cb69c f   libucrt:new_handler.obj
 0001:001ca6a4       _callnewh                  00000001801cb6a4 f   libucrt:new_handler.obj
 0001:001ca6e0       _query_new_handler         00000001801cb6e0 f   libucrt:new_handler.obj
 0001:001ca75c       __acrt_get_sigabrt_handler 00000001801cb75c f   libucrt:signal.obj
 0001:001ca78c       __acrt_initialize_signal_handlers 00000001801cb78c f   libucrt:signal.obj
 0001:001ca7ac       raise                      00000001801cb7ac f   libucrt:signal.obj
 0001:001caa2c       __acrt_has_user_matherr    00000001801cba2c f   libucrt:matherr.obj
 0001:001caa4c       __acrt_initialize_user_matherr 00000001801cba4c f   libucrt:matherr.obj
 0001:001caa54       __acrt_invoke_user_matherr 00000001801cba54 f   libucrt:matherr.obj
 0001:001caa8c       __pctype_func              00000001801cba8c f   libucrt:ctype.obj
 0001:001caabc       _isctype_l                 00000001801cbabc f   libucrt:isctype.obj
 0001:001cabe0       _get_fpsr                  00000001801cbbe0 f   libucrt:fpsr.obj
 0001:001cabf0       _set_fpsr                  00000001801cbbf0 f   libucrt:fpsr.obj
 0001:001cabfa       _fclrf                     00000001801cbbfa f   libucrt:fpsr.obj
 0001:001cac0e       _frnd                      00000001801cbc0e f   libucrt:fpsr.obj
 0001:001cac30       _query_new_mode            00000001801cbc30 f   libucrt:new_mode.obj
 0001:001cac38       __acrt_DownlevelLocaleNameToLCID 00000001801cbc38 f   libucrt:lcidtoname_downlevel.obj
 0001:001cae00       fclose                     00000001801cbe00 f   libucrt:fclose.obj
 0001:001caf24       _commit                    00000001801cbf24 f   libucrt:commit.obj
 0001:001cb7d4       _write_internal            00000001801cc7d4 f   libucrt:write.obj
 0001:001cb8fc       _write_nolock              00000001801cc8fc f   libucrt:write.obj
 0001:001cbc0c       __acrt_lowio_create_handle_array 00000001801ccc0c f   libucrt:osfinfo.obj
 0001:001cbcb4       __acrt_lowio_destroy_handle_array 00000001801cccb4 f   libucrt:osfinfo.obj
 0001:001cbd04       __acrt_lowio_ensure_fh_exists 00000001801ccd04 f   libucrt:osfinfo.obj
 0001:001cbdac       __acrt_lowio_lock_fh       00000001801ccdac f   libucrt:osfinfo.obj
 0001:001cbdd4       __acrt_lowio_unlock_fh     00000001801ccdd4 f   libucrt:osfinfo.obj
 0001:001cbdfc       _free_osfhnd               00000001801ccdfc f   libucrt:osfinfo.obj
 0001:001cbeb8       _get_osfhandle             00000001801cceb8 f   libucrt:osfinfo.obj
 0001:001cbf30       __acrt_add_locale_ref      00000001801ccf30 f   libucrt:locale_refcounting.obj
 0001:001cbfbc       __acrt_free_locale         00000001801ccfbc f   libucrt:locale_refcounting.obj
 0001:001cc134       __acrt_locale_add_lc_time_reference 00000001801cd134 f   libucrt:locale_refcounting.obj
 0001:001cc15c       __acrt_locale_free_lc_time_if_unreferenced 00000001801cd15c f   libucrt:locale_refcounting.obj
 0001:001cc194       __acrt_locale_release_lc_time_reference 00000001801cd194 f   libucrt:locale_refcounting.obj
 0001:001cc1bc       __acrt_release_locale_ref  00000001801cd1bc f   libucrt:locale_refcounting.obj
 0001:001cc264       __acrt_update_thread_locale_data 00000001801cd264 f   libucrt:locale_refcounting.obj
 0001:001cc2d4       _updatetlocinfoEx_nolock   00000001801cd2d4 f   libucrt:locale_refcounting.obj
 0001:001cc33c       __acrt_fp_strflt_to_string 00000001801cd33c f   libucrt:_fptostr.obj
 0001:001cc4c0       ?divide@__crt_strtox@@YA_KAEAUbig_integer@1@AEBU21@@Z 00000001801cd4c0 f i libucrt:cfout.obj
 0001:001cc94c       __acrt_fltout              00000001801cd94c f   libucrt:cfout.obj
 0001:001cdc14       fegetround                 00000001801cec14 f   libucrt:fegetround.obj
 0001:001cdc28       ?__c32rtomb_utf8@__crt_mbstring@@YA_KPEAD_UPEAU_Mbstatet@@AEAV__crt_cached_ptd_host@@@Z 00000001801cec28 f   libucrt:c32rtomb.obj
 0001:001cdccc       ?__mbrtowc_utf8@__crt_mbstring@@YA_KPEA_WPEBD_KPEAU_Mbstatet@@AEAV__crt_cached_ptd_host@@@Z 00000001801ceccc f   libucrt:mbrtowc.obj
 0001:001cdd10       ?__mbsrtowcs_utf8@__crt_mbstring@@YA_KPEA_WPEAPEBD_KPEAU_Mbstatet@@AEAV__crt_cached_ptd_host@@@Z 00000001801ced10 f   libucrt:mbrtowc.obj
 0001:001ce028       __acrt_stdio_flush_and_write_narrow_nolock 00000001801cf028 f   libucrt:_flsbuf.obj
 0001:001ce0ec       _isatty                    00000001801cf0ec f   libucrt:isatty.obj
 0001:001ce14c       __acrt_locale_free_monetary 00000001801cf14c f   libucrt:initmon.obj
 0001:001ce258       __acrt_locale_free_numeric 00000001801cf258 f   libucrt:initnum.obj
 0001:001ce2f8       __acrt_locale_free_time    00000001801cf2f8 f   libucrt:inittime.obj
 0001:001ce400       __acrt_GetStringTypeA      00000001801cf400 f   libucrt:getstringtypea.obj
 0001:001ce59c       _raise_exc                 00000001801cf59c f   libucrt:fpexcept.obj
 0001:001ce5c4       _raise_exc_ex              00000001801cf5c4 f   libucrt:fpexcept.obj
 0001:001ce8d4       _raise_excf                00000001801cf8d4 f   libucrt:fpexcept.obj
 0001:001ce900       _set_errno_from_matherr    00000001801cf900 f   libucrt:fpexcept.obj
 0001:001ce930       qsort                      00000001801cf930 f   libucrt:qsort.obj
 0001:001ced40       strncpy_s                  00000001801cfd40 f   libucrt:strncpy_s.obj
 0001:001ceed0       strpbrk                    00000001801cfed0 f   libucrt:strpbrk.obj
 0001:001cf298       _mbsdec                    00000001801d0298 f   libucrt:mbsdec.obj
 0001:001cf2a0       _mbsdec_l                  00000001801d02a0 f   libucrt:mbsdec.obj
 0001:001cf654       __acrt_LCMapStringA        00000001801d0654 f   libucrt:lcmapstringa.obj
 0001:001cf704       _msize_base                00000001801d0704 f   libucrt:msize.obj
 0001:001cf740       _realloc_base              00000001801d0740 f   libucrt:realloc_base.obj
 0001:001cf7bc       __ascii_wcsnicmp           00000001801d07bc f   libucrt:wcsnicmp.obj
 0001:001cf880       _close_internal            00000001801d0880 f   libucrt:close.obj
 0001:001cf944       _close_nolock_internal     00000001801d0944 f   libucrt:close.obj
 0001:001cfa14       ?__acrt_stdio_free_stream@@YAXV__crt_stdio_stream@@@Z 00000001801d0a14 f   libucrt:stream.obj
 0001:001cfc04       _lseeki64                  00000001801d0c04 f   libucrt:lseek.obj
 0001:001cfca0       _lseeki64_nolock_internal  00000001801d0ca0 f   libucrt:lseek.obj
 0001:001cfca8       _putwch_nolock             00000001801d0ca8 f   libucrt:putwch.obj
 0001:001cfce4       _query_app_type            00000001801d0ce4 f   libucrt:report_runtime_error.obj
 0001:001cfcec       _controlfp_s               00000001801d0cec f   libucrt:contrlfp.obj
 0001:001cfd50       fegetenv                   00000001801d0d50 f   libucrt:fegetenv.obj
 0001:001cfd70       fesetenv                   00000001801d0d70 f   libucrt:fesetenv.obj
 0001:001cfdbc       feholdexcept               00000001801d0dbc f   libucrt:feholdexcept.obj
 0001:001cfe0c       ceil                       00000001801d0e0c f   libucrt:ceil.obj
 0001:001cfed0       log10                      00000001801d0ed0 f   libucrt:log10.obj
 0001:001d047c       __acrt_fenv_get_common_round_control 00000001801d147c f   libucrt:_fenvutils.obj
 0001:001d0488       __acrt_fenv_get_control    00000001801d1488 f   libucrt:_fenvutils.obj
 0001:001d056c       __acrt_fenv_get_status     00000001801d156c f   libucrt:_fenvutils.obj
 0001:001d05c4       __acrt_fenv_set_control    00000001801d15c4 f   libucrt:_fenvutils.obj
 0001:001d0700       __acrt_fenv_set_status     00000001801d1700 f   libucrt:_fenvutils.obj
 0001:001d0774       ?reset_and_return@__crt_mbstring@@YA_K_KPEAU_Mbstatet@@@Z 00000001801d1774 f   libucrt:common_utf8.obj
 0001:001d077c       ?return_illegal_sequence@__crt_mbstring@@YA_KPEAU_Mbstatet@@AEAV__crt_cached_ptd_host@@@Z 00000001801d177c f   libucrt:common_utf8.obj
 0001:001d0790       ?__mbrtoc32_utf8@__crt_mbstring@@YA_KPEA_UPEBD_KPEAU_Mbstatet@@AEAV__crt_cached_ptd_host@@@Z 00000001801d1790 f   libucrt:mbrtoc32.obj
 0001:001d096c       __acrt_stdio_allocate_buffer_nolock 00000001801d196c f   libucrt:_getbuf.obj
 0001:001d09d8       __strncnt                  00000001801d19d8 f   libucrt:strncnt.obj
 0001:001d09f0       __dcrt_lowio_ensure_console_output_initialized 00000001801d19f0 f   libucrt:initcon.obj
 0001:001d0a44       __dcrt_terminate_console_output 00000001801d1a44 f   libucrt:initcon.obj
 0001:001d0a60       __dcrt_write_console       00000001801d1a60 f   libucrt:initcon.obj
 0001:001d0b20       _clearfp                   00000001801d1b20 f   libucrt:ieee.obj
 0001:001d0b90       _control87                 00000001801d1b90 f   libucrt:ieee.obj
 0001:001d0e60       _log10_special             00000001801d1e60 f   libucrt:log_special.obj
 0001:001d0f20       _FindPESection             00000001801d1f20 f   LIBCMT:pesect.obj
 0001:001d0f70       _IsNonwritableInCurrentImage 00000001801d1f70 f   LIBCMT:pesect.obj
 0001:001d0fc0       _ValidateImageBase         00000001801d1fc0 f   LIBCMT:pesect.obj
 0001:001d0fec       __GSHandlerCheck           00000001801d1fec f   LIBCMT:gshandler.obj
 0001:001d100c       __GSHandlerCheckCommon     00000001801d200c f   LIBCMT:gshandler.obj
 0001:001d1080       __security_check_cookie    00000001801d2080 f   LIBCMT:amdsecgs.obj
 0001:001d10a0       __GSHandlerCheck_SEH       00000001801d20a0 f   LIBCMT:gshandlerseh.obj
 0001:001d1128       __raise_securityfailure    00000001801d2128 f   LIBCMT:gs_report.obj
 0001:001d115c       __report_gsfailure         00000001801d215c f   LIBCMT:gs_report.obj
 0001:001d1230       __report_rangecheckfailure 00000001801d2230 f   LIBCMT:gs_report.obj
 0001:001d1244       __report_securityfailure   00000001801d2244 f   LIBCMT:gs_report.obj
 0001:001d13c4       __GSHandlerCheck_EH        00000001801d23c4 f   LIBCMT:gshandlereh.obj
 0001:001d1444       __C_specific_handler_noexcept 00000001801d2444 f   libvcruntime:chandler_noexcept.obj
 0001:001d1490       strrchr                    00000001801d2490 f   libvcruntime:strrchr.obj
 0001:001d15e0       memcmp                     00000001801d25e0 f   libvcruntime:memcmp.obj
 0001:001d16c0       _guard_dispatch_icall_nop  00000001801d26c0 f   LIBCMT:guard_dispatch.obj
 0001:001d16e0       _guard_xfg_dispatch_icall_nop 00000001801d26e0 f   LIBCMT:guard_xfg_dispatch.obj
 0002:00000000       __imp_GetLastError         00000001801d3000     kernel32:KERNEL32.dll
 0002:00000008       __imp_FreeLibrary          00000001801d3008     kernel32:KERNEL32.dll
 0002:00000010       __imp_GetProcAddress       00000001801d3010     kernel32:KERNEL32.dll
 0002:00000018       __imp_LoadLibraryA         00000001801d3018     kernel32:KERNEL32.dll
 0002:00000020       __imp_WriteConsoleW        00000001801d3020     kernel32:KERNEL32.dll
 0002:00000028       __imp_RaiseException       00000001801d3028     kernel32:KERNEL32.dll
 0002:00000030       __imp_GetSystemInfo        00000001801d3030     kernel32:KERNEL32.dll
 0002:00000038       __imp_VirtualProtect       00000001801d3038     kernel32:KERNEL32.dll
 0002:00000040       __imp_VirtualQuery         00000001801d3040     kernel32:KERNEL32.dll
 0002:00000048       __imp_GetModuleHandleW     00000001801d3048     kernel32:KERNEL32.dll
 0002:00000050       __imp_LoadLibraryExA       00000001801d3050     kernel32:KERNEL32.dll
 0002:00000058       __imp_InitializeSListHead  00000001801d3058     kernel32:KERNEL32.dll
 0002:00000060       __imp_RtlCaptureContext    00000001801d3060     kernel32:KERNEL32.dll
 0002:00000068       __imp_RtlLookupFunctionEntry 00000001801d3068     kernel32:KERNEL32.dll
 0002:00000070       __imp_RtlVirtualUnwind     00000001801d3070     kernel32:KERNEL32.dll
 0002:00000078       __imp_IsDebuggerPresent    00000001801d3078     kernel32:KERNEL32.dll
 0002:00000080       __imp_UnhandledExceptionFilter 00000001801d3080     kernel32:KERNEL32.dll
 0002:00000088       __imp_SetUnhandledExceptionFilter 00000001801d3088     kernel32:KERNEL32.dll
 0002:00000090       __imp_GetStartupInfoW      00000001801d3090     kernel32:KERNEL32.dll
 0002:00000098       __imp_IsProcessorFeaturePresent 00000001801d3098     kernel32:KERNEL32.dll
 0002:000000a0       __imp_QueryPerformanceCounter 00000001801d30a0     kernel32:KERNEL32.dll
 0002:000000a8       __imp_GetCurrentProcessId  00000001801d30a8     kernel32:KERNEL32.dll
 0002:000000b0       __imp_GetCurrentThreadId   00000001801d30b0     kernel32:KERNEL32.dll
 0002:000000b8       __imp_GetSystemTimeAsFileTime 00000001801d30b8     kernel32:KERNEL32.dll
 0002:000000c0       __imp_InterlockedPushEntrySList 00000001801d30c0     kernel32:KERNEL32.dll
 0002:000000c8       __imp_InterlockedFlushSList 00000001801d30c8     kernel32:KERNEL32.dll
 0002:000000d0       __imp_RtlUnwindEx          00000001801d30d0     kernel32:KERNEL32.dll
 0002:000000d8       __imp_SetLastError         00000001801d30d8     kernel32:KERNEL32.dll
 0002:000000e0       __imp_EnterCriticalSection 00000001801d30e0     kernel32:KERNEL32.dll
 0002:000000e8       __imp_LeaveCriticalSection 00000001801d30e8     kernel32:KERNEL32.dll
 0002:000000f0       __imp_DeleteCriticalSection 00000001801d30f0     kernel32:KERNEL32.dll
 0002:000000f8       __imp_InitializeCriticalSectionAndSpinCount 00000001801d30f8     kernel32:KERNEL32.dll
 0002:00000100       __imp_TlsAlloc             00000001801d3100     kernel32:KERNEL32.dll
 0002:00000108       __imp_TlsGetValue          00000001801d3108     kernel32:KERNEL32.dll
 0002:00000110       __imp_TlsSetValue          00000001801d3110     kernel32:KERNEL32.dll
 0002:00000118       __imp_TlsFree              00000001801d3118     kernel32:KERNEL32.dll
 0002:00000120       __imp_LoadLibraryExW       00000001801d3120     kernel32:KERNEL32.dll
 0002:00000128       __imp_EncodePointer        00000001801d3128     kernel32:KERNEL32.dll
 0002:00000130       __imp_RtlPcToFileHeader    00000001801d3130     kernel32:KERNEL32.dll
 0002:00000138       __imp_RtlUnwind            00000001801d3138     kernel32:KERNEL32.dll
 0002:00000140       __imp_GetCurrentProcess    00000001801d3140     kernel32:KERNEL32.dll
 0002:00000148       __imp_ExitProcess          00000001801d3148     kernel32:KERNEL32.dll
 0002:00000150       __imp_TerminateProcess     00000001801d3150     kernel32:KERNEL32.dll
 0002:00000158       __imp_GetModuleHandleExW   00000001801d3158     kernel32:KERNEL32.dll
 0002:00000160       __imp_GetModuleFileNameW   00000001801d3160     kernel32:KERNEL32.dll
 0002:00000168       __imp_HeapAlloc            00000001801d3168     kernel32:KERNEL32.dll
 0002:00000170       __imp_HeapFree             00000001801d3170     kernel32:KERNEL32.dll
 0002:00000178       __imp_FlsAlloc             00000001801d3178     kernel32:KERNEL32.dll
 0002:00000180       __imp_FlsGetValue          00000001801d3180     kernel32:KERNEL32.dll
 0002:00000188       __imp_FlsSetValue          00000001801d3188     kernel32:KERNEL32.dll
 0002:00000190       __imp_FlsFree              00000001801d3190     kernel32:KERNEL32.dll
 0002:00000198       __imp_LCMapStringW         00000001801d3198     kernel32:KERNEL32.dll
 0002:000001a0       __imp_GetStdHandle         00000001801d31a0     kernel32:KERNEL32.dll
 0002:000001a8       __imp_GetFileType          00000001801d31a8     kernel32:KERNEL32.dll
 0002:000001b0       __imp_FindClose            00000001801d31b0     kernel32:KERNEL32.dll
 0002:000001b8       __imp_FindFirstFileExW     00000001801d31b8     kernel32:KERNEL32.dll
 0002:000001c0       __imp_FindNextFileW        00000001801d31c0     kernel32:KERNEL32.dll
 0002:000001c8       __imp_IsValidCodePage      00000001801d31c8     kernel32:KERNEL32.dll
 0002:000001d0       __imp_GetACP               00000001801d31d0     kernel32:KERNEL32.dll
 0002:000001d8       __imp_GetOEMCP             00000001801d31d8     kernel32:KERNEL32.dll
 0002:000001e0       __imp_GetCPInfo            00000001801d31e0     kernel32:KERNEL32.dll
 0002:000001e8       __imp_GetCommandLineA      00000001801d31e8     kernel32:KERNEL32.dll
 0002:000001f0       __imp_GetCommandLineW      00000001801d31f0     kernel32:KERNEL32.dll
 0002:000001f8       __imp_MultiByteToWideChar  00000001801d31f8     kernel32:KERNEL32.dll
 0002:00000200       __imp_WideCharToMultiByte  00000001801d3200     kernel32:KERNEL32.dll
 0002:00000208       __imp_GetEnvironmentStringsW 00000001801d3208     kernel32:KERNEL32.dll
 0002:00000210       __imp_FreeEnvironmentStringsW 00000001801d3210     kernel32:KERNEL32.dll
 0002:00000218       __imp_GetProcessHeap       00000001801d3218     kernel32:KERNEL32.dll
 0002:00000220       __imp_FlushFileBuffers     00000001801d3220     kernel32:KERNEL32.dll
 0002:00000228       __imp_WriteFile            00000001801d3228     kernel32:KERNEL32.dll
 0002:00000230       __imp_GetConsoleOutputCP   00000001801d3230     kernel32:KERNEL32.dll
 0002:00000238       __imp_GetConsoleMode       00000001801d3238     kernel32:KERNEL32.dll
 0002:00000240       __imp_SetStdHandle         00000001801d3240     kernel32:KERNEL32.dll
 0002:00000248       __imp_GetFileSizeEx        00000001801d3248     kernel32:KERNEL32.dll
 0002:00000250       __imp_SetFilePointerEx     00000001801d3250     kernel32:KERNEL32.dll
 0002:00000258       __imp_GetStringTypeW       00000001801d3258     kernel32:KERNEL32.dll
 0002:00000260       __imp_HeapSize             00000001801d3260     kernel32:KERNEL32.dll
 0002:00000268       __imp_HeapReAlloc          00000001801d3268     kernel32:KERNEL32.dll
 0002:00000270       __imp_CloseHandle          00000001801d3270     kernel32:KERNEL32.dll
 0002:00000278       __imp_CreateFileW          00000001801d3278     kernel32:KERNEL32.dll
 0002:00000280       \177KERNEL32_NULL_THUNK_DATA 00000001801d3280     kernel32:KERNEL32.dll
 0002:00000288       __guard_check_icall_fptr   00000001801d3288     LIBCMT:guard_support.obj
 0002:00000290       __guard_xfg_check_icall_fptr 00000001801d3290     LIBCMT:guard_support.obj
 0002:00000298       __guard_dispatch_icall_fptr 00000001801d3298     LIBCMT:guard_support.obj
 0002:000002a0       __guard_xfg_dispatch_icall_fptr 00000001801d32a0     LIBCMT:guard_support.obj
 0002:000002a8       __guard_xfg_table_dispatch_icall_fptr 00000001801d32a8     LIBCMT:guard_support.obj
 0002:000002b0       __castguard_check_failure_os_handled_fptr 00000001801d32b0     LIBCMT:guard_support.obj
 0002:000002b8       __guard_memcpy_fptr        00000001801d32b8     libvcruntime:softmemtag.obj
 0002:000002c0       __xc_a                     00000001801d32c0     LIBCMT:initializers.obj
 0002:00001b78       __xc_z                     00000001801d4b78     LIBCMT:initializers.obj
 0002:00001b80       __xi_a                     00000001801d4b80     LIBCMT:initializers.obj
 0002:00001b88       __acrt_stdio_initializer   00000001801d4b88     libucrt:stdio_initializer.obj
 0002:00001b90       __acrt_tran_fma3_initializer 00000001801d4b90     libucrt:fma3_initializer.obj
 0002:00001b98       __acrt_multibyte_initializer 00000001801d4b98     libucrt:multibyte_initializer.obj
 0002:00001ba0       __xi_z                     00000001801d4ba0     LIBCMT:initializers.obj
 0002:00001ba8       __xp_a                     00000001801d4ba8     LIBCMT:initializers.obj
 0002:00001bb0       __acrt_locale_terminator   00000001801d4bb0     libucrt:locale_initializer.obj
 0002:00001bb8       __dcrt_console_output_terminator 00000001801d4bb8     libucrt:console_output_initializer.obj
 0002:00001bc0       __acrt_stdio_terminator    00000001801d4bc0     libucrt:stdio_initializer.obj
 0002:00001bc8       __xp_z                     00000001801d4bc8     LIBCMT:initializers.obj
 0002:00001bd0       __xt_a                     00000001801d4bd0     LIBCMT:initializers.obj
 0002:00001bd8       __xt_z                     00000001801d4bd8     LIBCMT:initializers.obj
 0002:00001be0       ??_C@_08MDGMHCHN@PtrTable@ 00000001801d4be0     CmPtrTable.obj
 0002:00001bec       ??_C@_04GKJNKENE@void@     00000001801d4bec     CmPtrTable.obj
 0002:00001bf8       ??_C@_07DFEBJDHE@mSingle@  00000001801d4bf8     CmPtrTable.obj
 0002:00001c00       ??_C@_05NLHHBMOH@PxU16@    00000001801d4c00     CmPtrTable.obj
 0002:00001c08       ??_C@_06EPKHJPIM@mCount@   00000001801d4c08     CmPtrTable.obj
 0002:00001c10       ??_C@_04DDKJGDCM@bool@     00000001801d4c10     CmPtrTable.obj
 0002:00001c18       ??_C@_0M@DAGELID@mOwnsMemory@ 00000001801d4c18     CmPtrTable.obj
 0002:00001c28       ??_C@_0M@MMPOMMLP@mBufferUsed@ 00000001801d4c28     CmPtrTable.obj
 0002:00001c34       ??_C@_05LMJPANIN@PxU32@    00000001801d4c34     CmPtrTable.obj
 0002:00001c40       ??_C@_09PMLNMEMN@mFreeSlot@ 00000001801d4c40     CmPtrTable.obj
 0002:00001c50       ??_7PxCollection@physx@@6B@ 00000001801d4c50     CmCollection.obj
 0002:00001cd0       ??_C@_00CNPNBAHC@@         00000001801d4cd0     CmCollection.obj
 0002:00001cd8       ??_7Collection@Cm@physx@@6B@ 00000001801d4cd8     CmCollection.obj
 0002:00001d60       ??_C@_0GE@GBACBMOC@PxCollection?3?3add?5called?5for?5an@ 00000001801d4d60     CmCollection.obj
 0002:00001dd0       ??_C@_0FK@EFJJJPLN@D?3?2Code?2OldD3D?2DX12BasicPlaygro@ 00000001801d4dd0     CmCollection.obj
 0002:00001e30       ??_C@_0EM@OMMGDOMK@PxCollection?3?3add?5called?5with?5a@ 00000001801d4e30     CmCollection.obj
 0002:00001e80       ??_C@_0FM@KPBLGAPP@D?3?2Code?2OldD3D?2DX12BasicPlaygro@ 00000001801d4e80     CmCollection.obj
 0002:00001ee0       ??_C@_0BM@OIFKLHDN@?$DMallocation?5names?5disabled?$DO@ 00000001801d4ee0     CmCollection.obj
 0002:00001f00       ??_7RadixSort@Cm@physx@@6B@ 00000001801d4f00     CmRadixSort.obj
 0002:00001f08       ??_7RadixSortBuffered@Cm@physx@@6B@ 00000001801d4f08     CmRadixSort.obj
 0002:00001f10       ??_C@_0FJ@JOFDKKBM@D?3?2Code?2OldD3D?2DX12BasicPlaygro@ 00000001801d4f10     CmRadixSort.obj
 0002:00001f70       __xmm@00000001000000010000000100000001 00000001801d4f70     CmRadixSort.obj
 0002:00001f80       __xmm@00000003000000020000000100000000 00000001801d4f80     CmRadixSort.obj
 0002:00001f90       __real@343bbd2e            00000001801d4f90     CmVisualization.obj
 0002:00001f94       __real@3d00adfd            00000001801d4f94     CmVisualization.obj
 0002:00001f98       __real@3d4ccccd            00000001801d4f98     CmVisualization.obj
 0002:00001f9c       __real@3d80adfd            00000001801d4f9c     CmVisualization.obj
 0002:00001fa0       __real@3e19999a            00000001801d4fa0     CmVisualization.obj
 0002:00001fa4       __real@3e490fdb            00000001801d4fa4     CmVisualization.obj
 0002:00001fa8       __real@3e800000            00000001801d4fa8     CmVisualization.obj
 0002:00001fac       __real@3e99999a            00000001801d4fac     CmVisualization.obj
 0002:00001fb0       __real@3ea0d97c            00000001801d4fb0     CmVisualization.obj
 0002:00001fb4       __real@3eddb3d7            00000001801d4fb4     CmVisualization.obj
 0002:00001fb8       __real@3f3504f3            00000001801d4fb8     CmVisualization.obj
 0002:00001fbc       __real@3f800000            00000001801d4fbc     CmVisualization.obj
 0002:00001fc0       __real@3fc00000            00000001801d4fc0     CmVisualization.obj
 0002:00001fc4       __real@3fddb3d7            00000001801d4fc4     CmVisualization.obj
 0002:00001fc8       __real@40100000            00000001801d4fc8     CmVisualization.obj
 0002:00001fcc       __real@40490fdb            00000001801d4fcc     CmVisualization.obj
 0002:00001fd0       __real@40c90fdb            00000001801d4fd0     CmVisualization.obj
 0002:00001fd4       __real@b3bbbd2e            00000001801d4fd4     CmVisualization.obj
 0002:00001fd8       __real@bfddb3d7            00000001801d4fd8     CmVisualization.obj
 0002:00001fdc       __real@c0000000            00000001801d4fdc     CmVisualization.obj
 0002:00001fe0       __xmm@3f800000000000000000000000000000 00000001801d4fe0     CmVisualization.obj
 0002:00001ff0       __xmm@7fffffff7fffffff7fffffff7fffffff 00000001801d4ff0     CmVisualization.obj
 0002:00002000       __xmm@80000000800000008000000080000000 00000001801d5000     CmVisualization.obj
 0002:00002010       ??_C@_0BB@CPDDPFKD@GetUpdatedModule@ 00000001801d5010     CmWindowsModuleUpdateLoader.obj
 0002:00002030       ??_C@_0HB@HEACAOAJ@D?3?2Code?2OldD3D?2DX12BasicPlaygro@ 00000001801d5030     CmWindowsModuleUpdateLoader.obj
 0002:000020a8       ??_C@_0CP@PGOIOJOO@?$CFs?3?$CFi?3?5loadLibrary?5error?5when?5l@ 00000001801d50a8     CmWindowsModuleUpdateLoader.obj
 0002:000020d8       ??_C@_0BA@EGLNOO@PhysXFoundation@ 00000001801d50d8     CmWindowsDelayLoadHook.obj
 0002:000020e8       ??_C@_0M@ILKNCJKN@PhysXCommon@ 00000001801d50e8     CmWindowsDelayLoadHook.obj
 0002:00002120       __real@3f000000            00000001801d5120     GuBox.obj
 0002:00002124       __real@3f7ff972            00000001801d5124     GuBox.obj
 0002:00002130       __xmm@000000003a83126f3a83126f3a83126f 00000001801d5130     GuBox.obj
 0002:00002140       __xmm@00000000ba83126fba83126fba83126f 00000001801d5140     GuBox.obj
 0002:00002150       __xmm@3a83126f3a83126f3a83126f3a83126f 00000001801d5150     GuBox.obj
 0002:00002160       __xmm@ba83126fba83126fba83126fba83126f 00000001801d5160     GuBox.obj
 0002:00002190       ??_7EntityReport@Gu@physx@@6B@ 00000001801d5190     GuSweepsHF.obj
 0002:00002190       ??_7OverlapCallback@PxBVH@physx@@6B@ 00000001801d5190     GuQuerySystem.obj
 0002:00002190       ??_7OverlapReport@Gu@physx@@6B@ 00000001801d5190     GuCCTSweepTests.obj
 0002:00002190       ??_7RaycastCallback@PxBVH@physx@@6B@ 00000001801d5190     GuQuerySystem.obj
 0002:00002190       ??_7RemapCallback@RTreeCooker@physx@@6B@ 00000001801d5190     GuCookingTriangleMesh.obj
 0002:000021b0       __real@3b03126f            00000001801d51b0     GuCCTSweepTests.obj
 0002:000021b4       __real@40000000            00000001801d51b4     GuCCTSweepTests.obj
 0002:000021f0       ??_7SupportLocal@Gu@physx@@6B@ 00000001801d51f0     GuGeometryQuery.obj
 0002:00002210       ??_7?$SupportLocalImpl@VBoxV@Gu@physx@@@Gu@physx@@6B@ 00000001801d5210     GuGeometryQuery.obj
 0002:00002230       ??_7?$SupportLocalImpl@VConvexHullV@Gu@physx@@@Gu@physx@@6B@ 00000001801d5230     GuGeometryQuery.obj
 0002:00002250       ??_C@_0FE@FLIIIPNL@D?3?2Code?2OldD3D?2DX12BasicPlaygro@ 00000001801d5250     GuGeometryQuery.obj
 0002:000022a4       __real@30d1b7e9            00000001801d52a4     GuGeometryQuery.obj
 0002:000022a8       __real@322bcc77            00000001801d52a8     GuGeometryQuery.obj
 0002:000022ac       __real@358637bd            00000001801d52ac     GuGeometryQuery.obj
 0002:000022b0       __real@3a83126f            00000001801d52b0     GuGeometryQuery.obj
 0002:000022b4       __real@3ccccccd            00000001801d52b4     GuGeometryQuery.obj
 0002:000022b8       __real@3dcccccd            00000001801d52b8     GuGeometryQuery.obj
 0002:000022bc       __real@49742400            00000001801d52bc     GuGeometryQuery.obj
 0002:000022c0       __real@7f7fffff            00000001801d52c0     GuGeometryQuery.obj
 0002:000022c4       __real@bf800000            00000001801d52c4     GuGeometryQuery.obj
 0002:000022d0       __xmm@0000000000000000000000003f800000 00000001801d52d0     GuGeometryQuery.obj
 0002:000022e0       __xmm@00000000000000003f80000000000000 00000001801d52e0     GuGeometryQuery.obj
 0002:000022f0       __xmm@00000000000000003f8000003f800000 00000001801d52f0     GuGeometryQuery.obj
 0002:00002300       __xmm@000000003f8000000000000000000000 00000001801d5300     GuGeometryQuery.obj
 0002:00002310       __xmm@000000003f8000003f8000003f800000 00000001801d5310     GuGeometryQuery.obj
 0002:00002320       __xmm@00000000ffffffffffffffffffffffff 00000001801d5320     GuGeometryQuery.obj
 0002:00002330       __xmm@3d4ccccd3d4ccccd3d4ccccd3d4ccccd 00000001801d5330     GuGeometryQuery.obj
 0002:00002340       __xmm@3e19999a3e19999a3e19999a3e19999a 00000001801d5340     GuGeometryQuery.obj
 0002:00002350       __xmm@3e4ccccd3e4ccccd3e4ccccd3e4ccccd 00000001801d5350     GuGeometryQuery.obj
 0002:00002360       __xmm@3e8000003e8000003e8000003e800000 00000001801d5360     GuGeometryQuery.obj
 0002:00002370       __xmm@3f7ef9db3f7ef9db3f7ef9db3f7ef9db 00000001801d5370     GuGeometryQuery.obj
 0002:00002380       __xmm@3f7ff2e53f7ff2e53f7ff2e53f7ff2e5 00000001801d5380     GuGeometryQuery.obj
 0002:00002390       __xmm@7f7fffff7f7fffff7f7fffff7f7fffff 00000001801d5390     GuGeometryQuery.obj
 0002:000023a0       __xmm@bf000000bf000000bf000000bf000000 00000001801d53a0     GuGeometryQuery.obj
 0002:000023d0       ??_C@_0FO@FMOADBOD@D?3?2Code?2OldD3D?2DX12BasicPlaygro@ 00000001801d53d0     GuMeshFactory.obj
 0002:00002440       ??_C@_0EM@BDFDGBD@Inserting?5object?5failed?3?5Object@ 00000001801d5440     GuMeshFactory.obj
 0002:000024b0       ??_7CallbackRaycast@RTree@Gu@physx@@6B@ 00000001801d54b0     GuMidphaseRTree.obj
 0002:000024b0       ??_7CallbackRefit@RTree@Gu@physx@@6B@ 00000001801d54b0     GuTriangleMeshRTree.obj
 0002:000024b0       ??_7PxInsertionCallback@physx@@6B@ 00000001801d54b0     GuMeshFactory.obj
 0002:000024c0       ??_7PxCollisionMeshMappingData@physx@@6B@ 00000001801d54c0     GuMeshFactory.obj
 0002:000024d0       ??_7MeshFactory@Gu@physx@@6B@ 00000001801d54d0     GuMeshFactory.obj
 0002:000024d8       ??_7MeshDataBase@Gu@physx@@6B@ 00000001801d54d8     GuMeshFactory.obj
 0002:000024e0       ??_C@_0FO@LCDGDPGE@D?3?2Code?2OldD3D?2DX12BasicPlaygro@ 00000001801d54e0     GuMeshFactory.obj
 0002:00002540       ??_7TriangleMeshData@Gu@physx@@6B@ 00000001801d5540     GuMeshFactory.obj
 0002:00002548       ??_7RTreeTriangleData@Gu@physx@@6B@ 00000001801d5548     GuMeshFactory.obj
 0002:00002550       ??_7BV4TriangleData@Gu@physx@@6B@ 00000001801d5550     GuMeshFactory.obj
 0002:00002558       ??_7SoftBodyCollisionData@Gu@physx@@6B@ 00000001801d5558     GuMeshFactory.obj
 0002:00002560       ??_7CollisionMeshMappingData@Gu@physx@@6B@ 00000001801d5560     GuMeshFactory.obj
 0002:00002570       ??_7SoftBodySimulationData@Gu@physx@@6B@ 00000001801d5570     GuMeshFactory.obj
 0002:00002580       ??_C@_0GP@NHELMDAL@Loading?5triangle?5mesh?5failed?3?5D@ 00000001801d5580     GuMeshFactory.obj
 0002:000025f0       ??_C@_0BP@CDOKDACA@RTree?5binary?5image?5load?5error?4@ 00000001801d55f0     GuMeshFactory.obj
 0002:00002610       ??_C@_0BN@MJPNIELF@BV4?5binary?5image?5load?5error?4@ 00000001801d5610     GuMeshFactory.obj
 0002:00002630       ??_C@_0BO@JDPABAOF@BV32?5binary?5image?5load?5error?4@ 00000001801d5630     GuMeshFactory.obj
 0002:00002650       ??_C@_0FE@FCOFIGKC@D?3?2Code?2OldD3D?2DX12BasicPlaygro@ 00000001801d5650     GuMeshFactory.obj
 0002:000026b0       __xmm@fe7fffff7e7fffff7e7fffff7e7fffff 00000001801d56b0     GuMeshFactory.obj
 0002:000026e0       ??_C@_06EJKDJEDO@PxBase@   00000001801d56e0     GuMetaData.obj
 0002:000026e8       ??_C@_07GFCEJNGM@Valency@  00000001801d56e8     GuMetaData.obj
 0002:000026f0       ??_C@_07NHGKEEIN@mOffset@  00000001801d56f0     GuMetaData.obj
 0002:000026f8       ??_C@_0BB@BAGHBMNJ@BigConvexRawData@ 00000001801d56f8     GuMetaData.obj
 0002:00002710       ??_C@_07PBDEJAAC@mSubdiv@  00000001801d5710     GuMetaData.obj
 0002:00002718       ??_C@_0L@HNPACPGH@mNbSamples@ 00000001801d5718     GuMetaData.obj
 0002:00002724       ??_C@_04NCKNBPPK@PxU8@     00000001801d5724     GuMetaData.obj
 0002:00002730       ??_C@_08DEPEKJNI@mSamples@ 00000001801d5730     GuMetaData.obj
 0002:00002740       ??_C@_08IJDNJBMI@mNbVerts@ 00000001801d5740     GuMetaData.obj
 0002:00002750       ??_C@_0M@MMKMIJAF@mNbAdjVerts@ 00000001801d5750     GuMetaData.obj
 0002:00002760       ??_C@_0L@EOKMNILC@mValencies@ 00000001801d5760     GuMetaData.obj
 0002:00002770       ??_C@_0P@DLGEAMHJ@mAdjacentVerts@ 00000001801d5770     GuMetaData.obj
 0002:00002780       ??_C@_03NGLDENDA@SDF@      00000001801d5780     GuMetaData.obj
 0002:00002784       ??_C@_06KDGGGLIJ@PxVec3@   00000001801d5784     GuMetaData.obj
 0002:0000278c       ??_C@_06GIEBFILM@PxReal@   00000001801d578c     GuMetaData.obj
 0002:00002798       ??_C@_0O@PFOPBKAM@BigConvexData@ 00000001801d5798     GuMetaData.obj
 0002:000027a8       ??_C@_05PLKALGFN@mData@    00000001801d57a8     GuMetaData.obj
 0002:000027b0       ??_C@_08PEMCLHEM@mVBuffer@ 00000001801d57b0     GuMetaData.obj
 0002:000027c0       ??_C@_09FBMAGD@Alignment@  00000001801d57c0     GuMetaData.obj
 0002:000027d0       ??_C@_0BE@KFHIBEEA@InternalObjectsData@ 00000001801d57d0     GuMetaData.obj
 0002:000027e8       ??_C@_07NKGFFIBH@mRadius@  00000001801d57e8     GuMetaData.obj
 0002:000027f0       ??_C@_08EHFCACAE@mExtents@ 00000001801d57f0     GuMetaData.obj
 0002:00002800       ??_C@_0BA@LFMGGCBK@HullPolygonData@ 00000001801d5800     GuMetaData.obj
 0002:00002810       ??_C@_06BOHHGLB@mPlane@    00000001801d5810     GuMetaData.obj
 0002:00002818       ??_C@_06EHMLHGLN@mVRef8@   00000001801d5818     GuMetaData.obj
 0002:00002820       ??_C@_09BAHHHINI@mMinIndex@ 00000001801d5820     GuMetaData.obj
 0002:00002830       ??_C@_0P@GBLBPIPB@ConvexHullData@ 00000001801d5830     GuMetaData.obj
 0002:00002840       ??_C@_09JDCJAPKD@PxBounds3@ 00000001801d5840     GuMetaData.obj
 0002:0000284c       ??_C@_05NDNHIFA@mAABB@     00000001801d584c     GuMetaData.obj
 0002:00002858       ??_C@_0O@LNOGEMJI@mCenterOfMass@ 00000001801d5858     GuMetaData.obj
 0002:00002868       ??_C@_09CNMCBBKH@mPolygons@ 00000001801d5868     GuMetaData.obj
 0002:00002878       ??_C@_0BC@KKPDCFJC@mBigConvexRawData@ 00000001801d5878     GuMetaData.obj
 0002:00002890       ??_C@_08MPNAAJLD@mSdfData@ 00000001801d5890     GuMetaData.obj
 0002:000028a0       ??_C@_08ELDMKGKH@mNbEdges@ 00000001801d58a0     GuMetaData.obj
 0002:000028b0       ??_C@_0BA@CGLOHBAC@mNbHullVertices@ 00000001801d58b0     GuMetaData.obj
 0002:000028c0       ??_C@_0M@HGFFLLDM@mNbPolygons@ 00000001801d58c0     GuMetaData.obj
 0002:000028d0       ??_C@_09BHJEMDGO@mInternal@ 00000001801d58d0     GuMetaData.obj
 0002:000028e0       ??_C@_0L@GMFHOMKA@ConvexMesh@ 00000001801d58e0     GuMetaData.obj
 0002:000028f0       ??_C@_09ILEBDLJH@mHullData@ 00000001801d58f0     GuMetaData.obj
 0002:000028fc       ??_C@_03DKDIKGNC@mNb@      00000001801d58fc     GuMetaData.obj
 0002:00002900       ??_C@_0P@ENLHFHMD@mBigConvexData@ 00000001801d5900     GuMetaData.obj
 0002:00002910       ??_C@_05ILALLCHK@mMass@    00000001801d5910     GuMetaData.obj
 0002:00002918       ??_C@_07DBPDADGB@PxMat33@  00000001801d5918     GuMetaData.obj
 0002:00002920       ??_C@_08FNBHNDBI@mInertia@ 00000001801d5920     GuMetaData.obj
 0002:00002930       ??_C@_0O@FCKNKLMJ@GuMeshFactory@ 00000001801d5930     GuMetaData.obj
 0002:00002940       ??_C@_0N@EGBCLMAK@mMeshFactory@ 00000001801d5940     GuMetaData.obj
 0002:00002950       ??_C@_0BE@CJJAMAMK@PxHeightFieldSample@ 00000001801d5950     GuMetaData.obj
 0002:00002964       ??_C@_05MBLIPEMA@PxI16@    00000001801d5964     GuMetaData.obj
 0002:0000296c       ??_C@_06LNLHEAAG@height@   00000001801d596c     GuMetaData.obj
 0002:00002978       ??_C@_0N@HHDGHJN@PxBitAndByte@ 00000001801d5978     GuMetaData.obj
 0002:00002988       ??_C@_0P@MBBMLBO@materialIndex0@ 00000001801d5988     GuMetaData.obj
 0002:00002998       ??_C@_0P@BFAKPKFP@materialIndex1@ 00000001801d5998     GuMetaData.obj
 0002:000029a8       ??_C@_0BD@EBLPJEOE@PxHeightFieldFlags@ 00000001801d59a8     GuMetaData.obj
 0002:000029c0       ??_C@_0BK@FNNCFFCN@PxHeightFieldFormat?3?3Enum@ 00000001801d59c0     GuMetaData.obj
 0002:000029e0       ??_C@_0BA@CLNFMAAA@HeightFieldData@ 00000001801d59e0     GuMetaData.obj
 0002:000029f0       ??_C@_04IMCGAIPI@rows@     00000001801d59f0     GuMetaData.obj
 0002:000029f8       ??_C@_07HIFEPIJN@columns@  00000001801d59f8     GuMetaData.obj
 0002:00002a00       ??_C@_08MOAGOABI@rowLimit@ 00000001801d5a00     GuMetaData.obj
 0002:00002a10       ??_C@_08BAGEHOBO@colLimit@ 00000001801d5a10     GuMetaData.obj
 0002:00002a20       ??_C@_09LKDBLADF@nbColumns@ 00000001801d5a20     GuMetaData.obj
 0002:00002a30       ??_C@_07ODIFGGLK@samples@  00000001801d5a30     GuMetaData.obj
 0002:00002a38       ??_C@_0BE@POHEGOJG@convexEdgeThreshold@ 00000001801d5a38     GuMetaData.obj
 0002:00002a4c       ??_C@_05GECEPKB@flags@     00000001801d5a4c     GuMetaData.obj
 0002:00002a54       ??_C@_06DLEPGFEF@format@   00000001801d5a54     GuMetaData.obj
 0002:00002a60       ??_C@_0BF@MOGDNMPL@PxMaterialTableIndex@ 00000001801d5a60     GuMetaData.obj
 0002:00002a78       ??_C@_0M@JMJICJJO@HeightField@ 00000001801d5a78     GuMetaData.obj
 0002:00002a88       ??_C@_0O@ENGHMLJP@mSampleStride@ 00000001801d5a88     GuMetaData.obj
 0002:00002a98       ??_C@_0L@EBEEMFFB@mMinHeight@ 00000001801d5a98     GuMetaData.obj
 0002:00002aa8       ??_C@_0L@EAEIFPOF@mMaxHeight@ 00000001801d5aa8     GuMetaData.obj
 0002:00002ab8       ??_C@_0N@FEFJOKKE@mModifyCount@ 00000001801d5ab8     GuMetaData.obj
 0002:00002ac8       ??_C@_09PHDKHCK@RTreePage@ 00000001801d5ac8     GuMetaData.obj
 0002:00002ad4       ??_C@_04LLPOBGED@minx@     00000001801d5ad4     GuMetaData.obj
 0002:00002adc       ??_C@_04KCOFCHAC@miny@     00000001801d5adc     GuMetaData.obj
 0002:00002ae4       ??_C@_04IJMIHEMB@minz@     00000001801d5ae4     GuMetaData.obj
 0002:00002aec       ??_C@_04GGOBOBGO@maxx@     00000001801d5aec     GuMetaData.obj
 0002:00002af4       ??_C@_04HPPKNACP@maxy@     00000001801d5af4     GuMetaData.obj
 0002:00002afc       ??_C@_04FENHIDOM@maxz@     00000001801d5afc     GuMetaData.obj
 0002:00002b04       ??_C@_04HHDFEJON@ptrs@     00000001801d5b04     GuMetaData.obj
 0002:00002b0c       ??_C@_05FFEIGAJF@RTree@    00000001801d5b0c     GuMetaData.obj
 0002:00002b14       ??_C@_06OMCHPNEO@PxVec4@   00000001801d5b14     GuMetaData.obj
 0002:00002b20       ??_C@_0L@NBIFEFLN@mBoundsMin@ 00000001801d5b20     GuMetaData.obj
 0002:00002b30       ??_C@_0L@MDAOKBNC@mBoundsMax@ 00000001801d5b30     GuMetaData.obj
 0002:00002b40       ??_C@_0N@NJEHLCOF@mInvDiagonal@ 00000001801d5b40     GuMetaData.obj
 0002:00002b50       ??_C@_0BA@BEFIGPFG@mDiagonalScaler@ 00000001801d5b50     GuMetaData.obj
 0002:00002b60       ??_C@_09DICGGKGO@mPageSize@ 00000001801d5b60     GuMetaData.obj
 0002:00002b70       ??_C@_0O@BOFFCNOL@mNumRootPages@ 00000001801d5b70     GuMetaData.obj
 0002:00002b80       ??_C@_0L@JKLGBKAE@mNumLevels@ 00000001801d5b80     GuMetaData.obj
 0002:00002b90       ??_C@_0M@PHDOHJGK@mTotalNodes@ 00000001801d5b90     GuMetaData.obj
 0002:00002ba0       ??_C@_0M@GDGHALAO@mTotalPages@ 00000001801d5ba0     GuMetaData.obj
 0002:00002bac       ??_C@_06MHCBBJGP@mFlags@   00000001801d5bac     GuMetaData.obj
 0002:00002bb4       ??_C@_06MMNBLHOK@mPages@   00000001801d5bb4     GuMetaData.obj
 0002:00002bc0       ??_C@_0P@JNLGHJNH@SourceMeshBase@ 00000001801d5bc0     GuMetaData.obj
 0002:00002bd0       ??_C@_06JFCLJMNN@mVerts@   00000001801d5bd0     GuMetaData.obj
 0002:00002bd8       ??_C@_05GNIIDDHH@mType@    00000001801d5bd8     GuMetaData.obj
 0002:00002be0       ??_C@_06DHAAKLFK@mRemap@   00000001801d5be0     GuMetaData.obj
 0002:00002be8       ??_C@_0L@LEOGNOEC@SourceMesh@ 00000001801d5be8     GuMetaData.obj
 0002:00002bf8       ??_C@_07MPIKOOAP@mNbTris@  00000001801d5bf8     GuMetaData.obj
 0002:00002c00       ??_C@_0N@FBMOMEHF@mTriangles32@ 00000001801d5c00     GuMetaData.obj
 0002:00002c10       ??_C@_0N@DGCGNFBP@mTriangles16@ 00000001801d5c10     GuMetaData.obj
 0002:00002c20       ??_C@_0O@NLNHFNO@QuantizedAABB@ 00000001801d5c20     GuMetaData.obj
 0002:00002c30       ??_C@_0BC@OOGBEMHH@mData?$FL0?$FN?4mExtents@ 00000001801d5c30     GuMetaData.obj
 0002:00002c48       ??_C@_0BB@OCEDKIEF@mData?$FL0?$FN?4mCenter@ 00000001801d5c48     GuMetaData.obj
 0002:00002c60       ??_C@_0BC@HFMEAABI@mData?$FL1?$FN?4mExtents@ 00000001801d5c60     GuMetaData.obj
 0002:00002c78       ??_C@_0BB@CDMNHHIF@mData?$FL1?$FN?4mCenter@ 00000001801d5c78     GuMetaData.obj
 0002:00002c90       ??_C@_0BC@CFKNCOI@mData?$FL2?$FN?4mExtents@ 00000001801d5c90     GuMetaData.obj
 0002:00002ca8       ??_C@_0BB@LKCPBBIE@mData?$FL2?$FN?4mCenter@ 00000001801d5ca8     GuMetaData.obj
 0002:00002cc0       ??_C@_0O@MJJKKPFN@BVDataPackedQ@ 00000001801d5cc0     GuMetaData.obj
 0002:00002cd0       ??_C@_0O@JFMLAIPJ@CenterExtents@ 00000001801d5cd0     GuMetaData.obj
 0002:00002ce0       ??_C@_07GNKDIIKJ@mCenter@  00000001801d5ce0     GuMetaData.obj
 0002:00002ce8       ??_C@_0P@KBMJDPLO@BVDataPackedNQ@ 00000001801d5ce8     GuMetaData.obj
 0002:00002cf8       ??_C@_0M@PNCEBOG@LocalBounds@ 00000001801d5cf8     GuMetaData.obj
 0002:00002d04       ??_C@_05KNFBNCOH@float@    00000001801d5d04     GuMetaData.obj
 0002:00002d10       ??_C@_0BC@LADJKHPL@mExtentsMagnitude@ 00000001801d5d10     GuMetaData.obj
 0002:00002d28       ??_C@_07HELIOLAF@BV4Tree@  00000001801d5d28     GuMetaData.obj
 0002:00002d30       ??_C@_0P@EMMDNPMH@mMeshInterface@ 00000001801d5d30     GuMetaData.obj
 0002:00002d40       ??_C@_0N@DCKMHLCL@mLocalBounds@ 00000001801d5d40     GuMetaData.obj
 0002:00002d50       ??_C@_08EEJOMIJL@mNbNodes@ 00000001801d5d50     GuMetaData.obj
 0002:00002d5c       ??_C@_06FIIIMFIO@mNodes@   00000001801d5d5c     GuMetaData.obj
 0002:00002d68       ??_C@_09FGKNPI@mInitData@  00000001801d5d68     GuMetaData.obj
 0002:00002d78       ??_C@_0BC@CLDEHKCO@mCenterOrMinCoeff@ 00000001801d5d78     GuMetaData.obj
 0002:00002d90       ??_C@_0BD@LAOLBNJ@mExtentsOrMaxCoeff@ 00000001801d5d90     GuMetaData.obj
 0002:00002da8       ??_C@_0P@JEECKKBL@mUserAllocated@ 00000001801d5da8     GuMetaData.obj
 0002:00002db8       ??_C@_0L@GLIMNECG@mQuantized@ 00000001801d5db8     GuMetaData.obj
 0002:00002dc8       ??_C@_0L@CCOJDAID@mIsEdgeSet@ 00000001801d5dc8     GuMetaData.obj
 0002:00002dd8       ??_C@_08BNDBAGDH@mPadding@ 00000001801d5dd8     GuMetaData.obj
 0002:00002de8       ??_C@_0N@OJNNNLIB@TriangleMesh@ 00000001801d5de8     GuMetaData.obj
 0002:00002df8       ??_C@_0M@OGEDMEAL@mNbVertices@ 00000001801d5df8     GuMetaData.obj
 0002:00002e08       ??_C@_0N@MGGDNHNI@mNbTriangles@ 00000001801d5e08     GuMetaData.obj
 0002:00002e18       ??_C@_09LNNEGOJA@mVertices@ 00000001801d5e18     GuMetaData.obj
 0002:00002e28       ??_C@_0L@KBOFAKLO@mTriangles@ 00000001801d5e28     GuMetaData.obj
 0002:00002e38       ??_C@_0P@MHDFIHLD@mExtraTrigData@ 00000001801d5e38     GuMetaData.obj
 0002:00002e48       ??_C@_0N@MGIKKCI@mGeomEpsilon@ 00000001801d5e48     GuMetaData.obj
 0002:00002e58       ??_C@_0BB@IFLOOCNA@mMaterialIndices@ 00000001801d5e58     GuMetaData.obj
 0002:00002e70       ??_C@_0L@OPJMBFMI@mFaceRemap@ 00000001801d5e70     GuMetaData.obj
 0002:00002e80       ??_C@_0N@BIOECAPM@mAdjacencies@ 00000001801d5e80     GuMetaData.obj
 0002:00002e90       ??_C@_09CICJHLPI@mEdgeList@ 00000001801d5e90     GuMetaData.obj
 0002:00002ea0       ??_C@_0BD@IPKCNNIK@mLocalCenterOfMass@ 00000001801d5ea0     GuMetaData.obj
 0002:00002eb8       ??_C@_0BA@OCOIGPII@mGRB_triIndices@ 00000001801d5eb8     GuMetaData.obj
 0002:00002ec8       ??_C@_0BE@JPINNDAH@mGRB_triAdjacencies@ 00000001801d5ec8     GuMetaData.obj
 0002:00002ee0       ??_C@_0P@EDFJJHEF@mGRB_faceRemap@ 00000001801d5ee0     GuMetaData.obj
 0002:00002ef0       ??_C@_0BG@EEALPPCP@mGRB_faceRemapInverse@ 00000001801d5ef0     GuMetaData.obj
 0002:00002f08       ??_C@_0O@CKMBAIFN@mGRB_BV32Tree@ 00000001801d5f08     GuMetaData.obj
 0002:00002f18       ??_C@_0BE@MGIOIICI@mSdfData?4mMeshLower@ 00000001801d5f18     GuMetaData.obj
 0002:00002f30       ??_C@_0BC@NNEDELGI@mSdfData?4mSpacing@ 00000001801d5f30     GuMetaData.obj
 0002:00002f48       ??_C@_0BB@OHOFDAIL@mSdfData?4mDims?4x@ 00000001801d5f48     GuMetaData.obj
 0002:00002f60       ??_C@_0BB@POPOABMK@mSdfData?4mDims?4y@ 00000001801d5f60     GuMetaData.obj
 0002:00002f78       ??_C@_0BB@NFNDFCAJ@mSdfData?4mDims?4z@ 00000001801d5f78     GuMetaData.obj
 0002:00002f90       ??_C@_0BC@GMPBGGPI@mSdfData?4mNumSdfs@ 00000001801d5f90     GuMetaData.obj
 0002:00002fa8       ??_C@_0O@BCEBBLNE@mSdfData?4mSdf@ 00000001801d5fa8     GuMetaData.obj
 0002:00002fb8       ??_C@_0BG@HMHEFHIE@mSdfData?4mSubgridSize@ 00000001801d5fb8     GuMetaData.obj
 0002:00002fd0       ??_C@_0BI@OFJBKPGB@mSdfData?4mNumStartSlots@ 00000001801d5fd0     GuMetaData.obj
 0002:00002fe8       ??_C@_0BM@MGEPBEON@mSdfData?4mSubgridStartSlots@ 00000001801d5fe8     GuMetaData.obj
 0002:00003008       ??_C@_0BJ@PKKGJLNM@mSdfData?4mNumSubgridSdfs@ 00000001801d6008     GuMetaData.obj
 0002:00003028       ??_C@_0BF@HLMPGIBH@mSdfData?4mSubgridSdf@ 00000001801d6028     GuMetaData.obj
 0002:00003040       ??_C@_0CF@GMJNHGOK@mSdfData?4mSdfSubgrids3DTexBlock@ 00000001801d6040     GuMetaData.obj
 0002:00003068       ??_C@_0CF@HFIGEHKL@mSdfData?4mSdfSubgrids3DTexBlock@ 00000001801d6068     GuMetaData.obj
 0002:00003090       ??_C@_0CF@FOKLBEGI@mSdfData?4mSdfSubgrids3DTexBlock@ 00000001801d6090     GuMetaData.obj
 0002:000030b8       ??_C@_0BO@EIPCIOJH@mSdfData?4mSubgridsMinSdfValue@ 00000001801d60b8     GuMetaData.obj
 0002:000030d8       ??_C@_0BO@NIIBJOHN@mSdfData?4mSubgridsMaxSdfValue@ 00000001801d60d8     GuMetaData.obj
 0002:000030f8       ??_C@_0BO@GKGODKFG@mSdfData?4mBytesPerSparsePixel@ 00000001801d60f8     GuMetaData.obj
 0002:00003118       ??_C@_0BJ@LEBGJKBE@mAccumulatedTrianglesRef@ 00000001801d6118     GuMetaData.obj
 0002:00003138       ??_C@_0BF@OJMCNCDP@mTrianglesReferences@ 00000001801d6138     GuMetaData.obj
 0002:00003150       ??_C@_0BH@LDGPOFA@mNbTrianglesReferences@ 00000001801d6150     GuMetaData.obj
 0002:00003168       ??_C@_0BC@IFGECKF@RTreeTriangleMesh@ 00000001801d6168     GuMetaData.obj
 0002:0000317c       ??_C@_06JDIHDDGN@mRTree@   00000001801d617c     GuMetaData.obj
 0002:00003188       ??_C@_0BA@LNNFPOKA@BV4TriangleMesh@ 00000001801d6188     GuMetaData.obj
 0002:00003198       ??_C@_08FKLPEGDB@mBV4Tree@ 00000001801d6198     GuMetaData.obj
 0002:000031a8       ??_7?$SupportLocalImpl@VConvexHullNoScaleV@Gu@physx@@@Gu@physx@@6B@ 00000001801d61a8     GuMTD.obj
 0002:000031f0       ?absMask@?1??FAbs@aos@physx@@YA?AT__m128@@T4@@Z@4QBIB 00000001801d61f0     GuMTD.obj
 0002:00003200       ??_7GjkConvex@Gu@physx@@6B@ 00000001801d6200     GuMTD.obj
 0002:00003230       ??_7?$LocalConvex@VCapsuleV@Gu@physx@@@Gu@physx@@6B@ 00000001801d6230     GuMTD.obj
 0002:00003260       ??_7?$LocalConvex@VConvexHullV@Gu@physx@@@Gu@physx@@6B@ 00000001801d6260     GuMTD.obj
 0002:00003290       __real@2edbe6ff            00000001801d6290     GuMTD.obj
 0002:00003294       __real@34000000            00000001801d6294     GuMTD.obj
 0002:00003298       __real@ff7fffff            00000001801d6298     GuMTD.obj
 0002:000032a0       __xmm@34000000340000003400000034000000 00000001801d62a0     GuMTD.obj
 0002:000032b0       __xmm@358637bd358637bd358637bd358637bd 00000001801d62b0     GuMTD.obj
 0002:000032c0       __xmm@3dcccccd3dcccccd3dcccccd3dcccccd 00000001801d62c0     GuMTD.obj
 0002:000032d0       __xmm@3f7ff1413f7ff1413f7ff1413f7ff141 00000001801d62d0     GuMTD.obj
 0002:000032e0       __xmm@3f8000003f8000003f8000003f800000 00000001801d62e0     GuMTD.obj
 0002:000032f0       ??_7?$RelativeConvex@VBoxV@Gu@physx@@@Gu@physx@@6B@ 00000001801d62f0     GuOverlapTests.obj
 0002:00003340       ??_7?$RelativeConvex@VConvexHullV@Gu@physx@@@Gu@physx@@6B@ 00000001801d6340     GuOverlapTests.obj
 0002:00003370       ??_C@_0EC@MLIJOGHA@Height?5Field?5Overlap?5test?5calle@ 00000001801d6370     GuOverlapTests.obj
 0002:000033c0       ??_C@_0FP@EEEKIFEN@D?3?2Code?2OldD3D?2DX12BasicPlaygro@ 00000001801d63c0     GuOverlapTests.obj
 0002:00003420       ??_C@_0EC@GJLDADPE@Height?5Field?5Raycast?5test?5calle@ 00000001801d6420     GuRaycastTests.obj
 0002:00003470       ??_C@_0FP@LHIHPCOH@D?3?2Code?2OldD3D?2DX12BasicPlaygro@ 00000001801d6470     GuRaycastTests.obj
 0002:00003500       __real@1e3ce508            00000001801d6500     GuRaycastTests.obj
 0002:00003504       __real@28800000            00000001801d6504     GuRaycastTests.obj
 0002:00003508       __real@33d6bf95            00000001801d6508     GuRaycastTests.obj
 0002:0000350c       __real@3727c5ac            00000001801d650c     GuRaycastTests.obj
 0002:00003510       __real@38d1b717            00000001801d6510     GuRaycastTests.obj
 0002:00003514       __real@3f0147ae            00000001801d6514     GuRaycastTests.obj
 0002:00003518       __real@3f7ffffe            00000001801d6518     GuRaycastTests.obj
 0002:0000351c       __real@3f800347            00000001801d651c     GuRaycastTests.obj
 0002:00003520       __real@41200000            00000001801d6520     GuRaycastTests.obj
 0002:00003524       __real@80000000            00000001801d6524     GuRaycastTests.obj
 0002:00003528       __real@b3d6bf95            00000001801d6528     GuRaycastTests.obj
 0002:0000352c       __real@b8d1b717            00000001801d652c     GuRaycastTests.obj
 0002:00003530       __real@c1200000            00000001801d6530     GuRaycastTests.obj
 0002:00003570       ??_7?$MeshHitCallback@UPxGeomRaycastHit@physx@@@Gu@physx@@6B@ 00000001801d6570     GuSweepMTD.obj
 0002:00003580       ??_7MeshMTDGenerationCallback@@6B@ 00000001801d6580     GuSweepMTD.obj
 0002:00003590       ??_7MidPhaseQueryLocalReport@@6B@ 00000001801d6590     GuSweepMTD.obj
 0002:000035a0       __real@3f8147ae            00000001801d65a0     GuSweepMTD.obj
 0002:000035a4       __real@3f933333            00000001801d65a4     GuSweepMTD.obj
 0002:000035d0       __real@3c23d70a            00000001801d65d0     GuSweepSharedTests.obj
 0002:000035d4       __real@42c80000            00000001801d65d4     GuSweepSharedTests.obj
 0002:000035e0       __xmm@ffffffffffffffffffffffffffffffff 00000001801d65e0     GuSweepSharedTests.obj
 0002:00003610       ??_C@_0EA@GNDJNJGB@Height?5Field?5Sweep?5test?5called?5@ 00000001801d6610     GuSweepTests.obj
 0002:00003650       ??_C@_0FN@MDKMLMKG@D?3?2Code?2OldD3D?2DX12BasicPlaygro@ 00000001801d6650     GuSweepTests.obj
 0002:000036b0       ??_7?$LocalConvex@VBoxV@Gu@physx@@@Gu@physx@@6B@ 00000001801d66b0     GuSweepTests.obj
 0002:000036e0       ??_7?$LocalConvex@VTriangleV@Gu@physx@@@Gu@physx@@6B@ 00000001801d66e0     GuSweepTests.obj
 0002:00003710       __real@00000000            00000001801d6710     GuSweepTests.obj
 0002:00003720       __xmm@00000002000000020000000200000002 00000001801d6720     GuSweepTests.obj
 0002:00003730       __xmm@3eaaaa9f3eaaaa9f3eaaaa9f3eaaaa9f 00000001801d6730     GuSweepTests.obj
 0002:000037e8       ??_7PxRunnable@physx@@6B@  00000001801d67e8     GuSDF.obj
 0002:00003800       ??_C@_0FG@GOGFDDNE@D?3?2Code?2OldD3D?2DX12BasicPlaygro@ 00000001801d6800     GuSDF.obj
 0002:00003858       ??_7?$PxThreadT@V?$PxReflectionAllocator@VPxThreadImpl@physx@@@physx@@@physx@@6B@ 00000001801d6858     GuSDF.obj
 0002:00003868       ??_C@_06FJHNOCKE@thread@   00000001801d6868     GuSDF.obj
 0002:00003870       ??_C@_0FF@PMONJPNP@D?3?2Code?2OldD3D?2DX12BasicPlaygro@ 00000001801d6870     GuSDF.obj
 0002:000038c8       __real@37800080            00000001801d68c8     GuSDF.obj
 0002:000038cc       __real@3b808081            00000001801d68cc     GuSDF.obj
 0002:000038d0       __real@3eaaaaab            00000001801d68d0     GuSDF.obj
 0002:000038d4       __real@3f400000            00000001801d68d4     GuSDF.obj
 0002:000038d8       __real@3f7d70a4            00000001801d68d8     GuSDF.obj
 0002:000038dc       __real@4996b438            00000001801d68dc     GuSDF.obj
 0002:000038e0       __real@7e7fffff            00000001801d68e0     GuSDF.obj
 0002:000038e4       __real@bf000000            00000001801d68e4     GuSDF.obj
 0002:000038e8       __real@fe7fffff            00000001801d68e8     GuSDF.obj
 0002:000038f0       __xmm@00000001000000000000000000000000 00000001801d68f0     GuSDF.obj
 0002:00003900       __real@437f0000            00000001801d6900     GuCookingSDF.obj
 0002:00003904       __real@477fff00            00000001801d6904     GuCookingSDF.obj
 0002:00003930       ??_7?$RelativeConvex@UCustomConvexV@@@Gu@physx@@6B@ 00000001801d6930     GuGjkQuery.obj
 0002:00003960       ??_7?$LocalConvex@UCustomConvexV@@@Gu@physx@@6B@ 00000001801d6960     GuGjkQuery.obj
 0002:00003990       ??_7?$LocalConvex@UPointConvexV@@@Gu@physx@@6B@ 00000001801d6990     GuGjkQuery.obj
 0002:000039c0       __xmm@3f0000003f0000003f0000003f000000 00000001801d69c0     GuGjkQuery.obj
 0002:000039f0       __real@3da2f983            00000001801d69f0     GuWindingNumber.obj
 0002:000039f4       __real@3e22f983            00000001801d69f4     GuWindingNumber.obj
 0002:000039f8       __real@3f99999a            00000001801d69f8     GuWindingNumber.obj
 0002:00003a60       __real@3c343958            00000001801d6a60     GuCCDSweepConvexMesh.obj
 0002:00003a64       __real@3ca3d70a            00000001801d6a64     GuCCDSweepConvexMesh.obj
 0002:00003a68       __real@3f0ccccd            00000001801d6a68     GuCCDSweepConvexMesh.obj
 0002:00003a6c       __real@3f8ccccd            00000001801d6a6c     GuCCDSweepConvexMesh.obj
 0002:00003a70       __real@b58637bd            00000001801d6a70     GuCCDSweepConvexMesh.obj
 0002:00003aa0       ??_7?$RelativeConvex@VCapsuleV@Gu@physx@@@Gu@physx@@6B@ 00000001801d6aa0     GuCCDSweepPrimitives.obj
 0002:00003ad0       ??_7?$RelativeConvex@VTriangleV@Gu@physx@@@Gu@physx@@6B@ 00000001801d6ad0     GuCCDSweepPrimitives.obj
 0002:00003b00       __real@3ba3d70a            00000001801d6b00     GuCCDSweepPrimitives.obj
 0002:00003b04       __real@501502f9            00000001801d6b04     GuCCDSweepPrimitives.obj
 0002:00003b30       ??_C@_0GF@BGPEJDPJ@D?3?2Code?2OldD3D?2DX12BasicPlaygro@ 00000001801d6b30     GuAdjacencies.obj
 0002:00003b98       ??_C@_0DA@FMEHLBKI@Adjacencies?3?3UpdateLink?3?5invali@ 00000001801d6b98     GuAdjacencies.obj
 0002:00003bd0       ??_C@_0EA@CPHOACLK@Adjacencies?3?3CreateDatabase?3?5ca@ 00000001801d6bd0     GuAdjacencies.obj
 0002:00003c10       ??_C@_0GC@PAKPOPC@D?3?2Code?2OldD3D?2DX12BasicPlaygro@ 00000001801d6c10     GuEdgeList.obj
 0002:00003c78       ??_C@_0CO@GBNJFPN@EdgeList?3?3CreateFacesToEdges?3?5N@ 00000001801d6c78     GuEdgeList.obj
 0002:00003ca8       ??_C@_0CO@EHJBBMNK@EdgeList?3?3ComputeActiveEdges?3?5N@ 00000001801d6ca8     GuEdgeList.obj
 0002:00003cd8       ??_C@_0DI@GBHLFOFP@ActiveEdges?3?3ComputeConvexEdges@ 00000001801d6cd8     GuEdgeList.obj
 0002:00003d10       ??_C@_0DM@JOGBLHDI@ActiveEdges?3?3ComputeConvexEdges@ 00000001801d6d10     GuEdgeList.obj
 0002:00003d50       ??_C@_0ED@FEMJKPEL@ActiveEdges?3?3ComputeConvexEdges@ 00000001801d6d50     GuEdgeList.obj
 0002:00003da0       ??_C@_0EB@BFDPMFCD@ActiveEdges?3?3ComputeConvexEdges@ 00000001801d6da0     GuEdgeList.obj
 0002:00003de4       __real@bf7fbe77            00000001801d6de4     GuEdgeList.obj
 0002:00003de8       ??_7Quantizer@Gu@physx@@6B@ 00000001801d6de8     GuQuantizer.obj
 0002:00003e10       ??_7QuantizerImpl@@6B@     00000001801d6e10     GuQuantizer.obj
 0002:00003e40       ??_C@_0GD@JKFBOMCM@D?3?2Code?2OldD3D?2DX12BasicPlaygro@ 00000001801d6e40     GuQuantizer.obj
 0002:00003ea4       __real@3f0020c5            00000001801d6ea4     GuQuantizer.obj
 0002:00003ea8       __real@3f8020c5            00000001801d6ea8     GuQuantizer.obj
 0002:00003eb0       ??_C@_0GF@DDKPLOKN@D?3?2Code?2OldD3D?2DX12BasicPlaygro@ 00000001801d6eb0     GuMeshCleaner.obj
 0002:00003f20       ??_C@_0GH@OBLPDPCK@D?3?2Code?2OldD3D?2DX12BasicPlaygro@ 00000001801d6f20     GuVertexReducer.obj
 0002:00004080       __real@3f7fbe77            00000001801d7080     GuContactBoxBox.obj
 0002:000040b0       __real@3f7ff2e5            00000001801d70b0     GuContactCapsuleCapsule.obj
 0002:000040b4       __real@40800000            00000001801d70b4     GuContactCapsuleCapsule.obj
 0002:00004140       __real@358637be            00000001801d7140     GuContactCapsuleMesh.obj
 0002:00004144       __real@ba83126f            00000001801d7144     GuContactCapsuleMesh.obj
 0002:000041a0       ??_7ConvexMeshContactGenerationCallback@@6B@ 00000001801d71a0     GuContactConvexMesh.obj
 0002:00004220       __real@3ec90fdb            00000001801d7220     GuContactPolygonPolygon.obj
 0002:00004224       __real@3f490fdb            00000001801d7224     GuContactPolygonPolygon.obj
 0002:00004228       __real@3f96cbe4            00000001801d7228     GuContactPolygonPolygon.obj
 0002:0000422c       __real@3fc90fdb            00000001801d722c     GuContactPolygonPolygon.obj
 0002:00004230       __real@3ffb53d2            00000001801d7230     GuContactPolygonPolygon.obj
 0002:00004234       __real@4016cbe4            00000001801d7234     GuContactPolygonPolygon.obj
 0002:00004238       __real@402feddf            00000001801d7238     GuContactPolygonPolygon.obj
 0002:000042a0       ??_C@_0FD@PCFGMEGM@D?3?2Code?2OldD3D?2DX12BasicPlaygro@ 00000001801d72a0     GuContactSphereMesh.obj
 0002:00004300       ??_C@_0GH@LDDMFLAO@D?3?2Code?2OldD3D?2DX12BasicPlaygro@ 00000001801d7300     GuBigConvexData.obj
 0002:00004390       ??_C@_0N@CDGINLLF@PxConvexMesh@ 00000001801d7390     GuConvexMesh.obj
 0002:000043a0       ??_7PxBase@physx@@6B@      00000001801d73a0     GuConvexMesh.obj
 0002:000043c8       ??_C@_0N@OPPDBGAG@PxRefCounted@ 00000001801d73c8     GuConvexMesh.obj
 0002:000043d8       ??_7ConvexMesh@Gu@physx@@6B@ 00000001801d73d8     GuConvexMesh.obj
 0002:00004470       ??_C@_0GE@ONHOLMHD@D?3?2Code?2OldD3D?2DX12BasicPlaygro@ 00000001801d7470     GuConvexMesh.obj
 0002:000044d8       ??_C@_0DM@NEJKOFIP@Loading?5convex?5mesh?5failed?3?5Dep@ 00000001801d74d8     GuConvexMesh.obj
 0002:00004518       ??_C@_0DB@PAHEPIEL@PxConvexMesh?3?3release?3?5double?5d@ 00000001801d7518     GuConvexMesh.obj
 0002:00004550       ??_C@_0FM@FLIFCDHF@D?3?2Code?2OldD3D?2DX12BasicPlaygro@ 00000001801d7550     GuConvexMesh.obj
 0002:000045d0       __xmm@000000000000000000000000ffffffff 00000001801d75d0     GuConvexSupportTable.obj
 0002:000045e0       __xmm@0000000000000000ffffffff00000000 00000001801d75e0     GuConvexSupportTable.obj
 0002:000045f0       __xmm@0000000000000000ffffffffffffffff 00000001801d75f0     GuConvexSupportTable.obj
 0002:00004600       __xmm@00000000ffffffff0000000000000000 00000001801d7600     GuConvexSupportTable.obj
 0002:00004610       __xmm@00000000ffffffff00000000ffffffff 00000001801d7610     GuConvexSupportTable.obj
 0002:00004620       __xmm@00000000ffffffffffffffff00000000 00000001801d7620     GuConvexSupportTable.obj
 0002:000046f0       __real@2b8cbccc            00000001801d76f0     GuDistanceSegmentTriangle.obj
 0002:00004700       __xmm@3f8000013f8000013f8000013f800001 00000001801d7700     GuDistanceSegmentTriangle.obj
 0002:00004710       __xmm@b4000000b4000000b4000000b4000000 00000001801d7710     GuDistanceSegmentTriangle.obj
 0002:00004770       __xmm@38d1b71738d1b71738d1b71738d1b717 00000001801d7770     GuGJKSimplex.obj
 0002:000047a0       ??_C@_0O@PBAKPCEC@PxHeightField@ 00000001801d77a0     GuHeightField.obj
 0002:000047b0       ??_7HeightField@Gu@physx@@6B@ 00000001801d77b0     GuHeightField.obj
 0002:00004868       ??_C@_0DC@BDMMBOKH@PxHeightField?3?3release?3?5double?5@ 00000001801d7868     GuHeightField.obj
 0002:000048a0       ??_C@_0GB@JJLLBGFK@D?3?2Code?2OldD3D?2DX12BasicPlaygro@ 00000001801d78a0     GuHeightField.obj
 0002:00004908       ??_C@_0CI@DMKEKGNK@Gu?3?3HeightField?3?3load?3?5PX_ALLOC@ 00000001801d7908     GuHeightField.obj
 0002:00004930       ??_C@_0FF@LIMJNGBD@D?3?2Code?2OldD3D?2DX12BasicPlaygro@ 00000001801d7930     GuHeightField.obj
 0002:000049b0       __real@3a03126f            00000001801d79b0     GuHeightFieldUtil.obj
 0002:000049b4       __real@3f19999a            00000001801d79b4     GuHeightFieldUtil.obj
 0002:000049c0       __xmm@40000000000000000000000000000000 00000001801d79c0     GuHeightFieldUtil.obj
 0002:00004a50       ??_7HeightFieldTraceSegmentReport@@6B@ 00000001801d7a50     GuSweepsHF.obj
 0002:00004a60       ??_7CapsuleTraceSegmentReport@@6B@ 00000001801d7a60     GuSweepsHF.obj
 0002:00004a70       ??_7ConvexTraceSegmentReport@@6B@ 00000001801d7a70     GuSweepsHF.obj
 0002:00004a80       ??_7BoxTraceSegmentReport@@6B@ 00000001801d7a80     GuSweepsHF.obj
 0002:00004a90       __real@aedbe6ff            00000001801d7a90     GuSweepsHF.obj
 0002:00004ac0       __real@3089705f            00000001801d7ac0     GuIntersectionRayBox.obj
 0002:00004ac4       __real@b4000000            00000001801d7ac4     GuIntersectionRayBox.obj
 0002:00004ad0       __xmm@000000003089705f3089705f3089705f 00000001801d7ad0     GuIntersectionRayBox.obj
 0002:00004ae0       __xmm@00000000bf800000bf800000bf800000 00000001801d7ae0     GuIntersectionRayBox.obj
 0002:00004b10       __real@7fc00000            00000001801d7b10     GuIntersectionTriangleTriangle.obj
 0002:00004b20       __xmm@7fc000007fc000007fc000007fc00000 00000001801d7b20     GuIntersectionTriangleTriangle.obj
 0002:00004b50       ??_7SourceMeshBase@Gu@physx@@6B@ 00000001801d7b50     GuBV4.obj
 0002:00004b78       ??_7SourceMesh@Gu@physx@@6B@ 00000001801d7b78     GuBV4.obj
 0002:00004ba0       ??_7TetrahedronSourceMesh@Gu@physx@@6B@ 00000001801d7ba0     GuBV4.obj
 0002:00004bd0       ??_C@_0FL@GKAHCOGB@D?3?2Code?2OldD3D?2DX12BasicPlaygro@ 00000001801d7bd0     GuBV4.obj
 0002:00004c30       __xmm@ff7fffffff7fffffff7fffffff7fffff 00000001801d7c30     GuBV4.obj
 0002:00004c60       ??_C@_0GA@BGKAIFIF@D?3?2Code?2OldD3D?2DX12BasicPlaygro@ 00000001801d7c60     GuBV4Build.obj
 0002:00004cc0       __real@38000100            00000001801d7cc0     GuBV4Build.obj
 0002:00004cc4       __real@3e93cd3a            00000001801d7cc4     GuBV4Build.obj
 0002:00004cc8       __real@46fffe00            00000001801d7cc8     GuBV4Build.obj
 0002:00004ccc       __real@be93cd3a            00000001801d7ccc     GuBV4Build.obj
 0002:00004cf0       __xmm@0000ffff0000ffff0000ffff0000ffff 00000001801d7cf0     GuBV4_AABBSweep.obj
 0002:00004d00       __xmm@3089705f3089705f3089705f3089705f 00000001801d7d00     GuBV4_AABBSweep.obj
 0002:00004d10       __xmm@33d6bf9533d6bf9533d6bf9533d6bf95 00000001801d7d10     GuBV4_AABBSweep.obj
 0002:00004d20       __xmm@40000000400000004000000040000000 00000001801d7d20     GuBV4_AABBSweep.obj
 0002:00004e10       __real@4f7fffff            00000001801d7e10     GuBV4_SphereOverlap.obj
 0002:00004e60       __xmm@000000007f7fffff0000000000000000 00000001801d7e60     GuMidphaseBV4.obj
 0002:00004ed0       ??_C@_0FD@EHCCILIF@Adjacency?5information?5not?5creat@ 00000001801d7ed0     GuMeshQuery.obj
 0002:00004f30       ??_C@_0GB@JKFDOODB@D?3?2Code?2OldD3D?2DX12BasicPlaygro@ 00000001801d7f30     GuMeshQuery.obj
 0002:00004fa0       ??_C@_0FL@BKNMAHIA@PxMeshQuery?3?3findOverlapTriangl@ 00000001801d7fa0     GuMeshQuery.obj
 0002:00004ffc       __real@4cbebc20            00000001801d7ffc     GuMeshQuery.obj
 0002:00005020       ??_7Callback@RTree@Gu@physx@@6B@ 00000001801d8020     GuMidphaseRTree.obj
 0002:00005038       ??_7?$RayRTreeCallback@$00$0A@@@6BCallbackRaycast@RTree@Gu@physx@@@ 00000001801d8038     GuMidphaseRTree.obj
 0002:00005038       ??_7?$RayRTreeCallback@$0A@$0A@@@6BCallbackRaycast@RTree@Gu@physx@@@ 00000001801d8038     GuMidphaseRTree.obj
 0002:00005048       ??_7?$RayRTreeCallback@$00$0A@@@6BCallback@RTree@Gu@physx@@@ 00000001801d8048     GuMidphaseRTree.obj
 0002:00005048       ??_7?$RayRTreeCallback@$0A@$0A@@@6BCallback@RTree@Gu@physx@@@ 00000001801d8048     GuMidphaseRTree.obj
 0002:00005060       ??_7RayMeshColliderCallback@@6B@ 00000001801d8060     GuMidphaseRTree.obj
 0002:00005070       ??_C@_0EN@DPPFLBLF@Point?9mesh?5distance?5query?5not?5s@ 00000001801d8070     GuMidphaseRTree.obj
 0002:000050c0       ??_C@_0GF@FCCMHNIL@D?3?2Code?2OldD3D?2DX12BasicPlaygro@ 00000001801d80c0     GuMidphaseRTree.obj
 0002:00005128       ??_7?$RayRTreeCallback@$0A@$00@@6BCallbackRaycast@RTree@Gu@physx@@@ 00000001801d8128     GuMidphaseRTree.obj
 0002:00005138       ??_7?$RayRTreeCallback@$0A@$00@@6BCallback@RTree@Gu@physx@@@ 00000001801d8138     GuMidphaseRTree.obj
 0002:00005150       ??_7?$RayRTreeCallback@$00$00@@6BCallbackRaycast@RTree@Gu@physx@@@ 00000001801d8150     GuMidphaseRTree.obj
 0002:00005160       ??_7?$RayRTreeCallback@$00$00@@6BCallback@RTree@Gu@physx@@@ 00000001801d8160     GuMidphaseRTree.obj
 0002:000051e0       __xmm@7f7fffff000000000000000000000000 00000001801d81e0     GuMidphaseRTree.obj
 0002:00005260       ??_7?$PxReportCallback@UPxGeomIndexPair@physx@@@physx@@6B@ 00000001801d8260     GuOverlapTestsMesh.obj
 0002:00005280       ??_C@_0EP@CEFGCJKJ@PxGeometryQuery?3?3overlap?$CI?$CJ?3?5onl@ 00000001801d8280     GuOverlapTestsMesh.obj
 0002:000052d0       ??_C@_0GI@HPHDHOII@D?3?2Code?2OldD3D?2DX12BasicPlaygro@ 00000001801d82d0     GuOverlapTestsMesh.obj
 0002:00005360       ?MN@RTreePage@Gu@physx@@2MB 00000001801d8360     GuRTree.obj
 0002:00005364       ?MX@RTreePage@Gu@physx@@2MB 00000001801d8364     GuRTree.obj
 0002:00005370       ??_C@_0FN@GIIOAFMJ@D?3?2Code?2OldD3D?2DX12BasicPlaygro@ 00000001801d8370     GuRTree.obj
 0002:00005440       ??_7SweepShapeMeshHitCallback@Gu@physx@@6B@ 00000001801d8440     GuSweepsMesh.obj
 0002:00005450       ??_7SweepCapsuleMeshHitCallback@Gu@physx@@6B@ 00000001801d8450     GuSweepsMesh.obj
 0002:00005460       ??_7SweepBoxMeshHitCallback@Gu@physx@@6B@ 00000001801d8460     GuSweepsMesh.obj
 0002:00005470       ??_7SweepConvexMeshHitCallback@Gu@physx@@6B@ 00000001801d8470     GuSweepsMesh.obj
 0002:000054a0       ??_C@_0P@GGNFNHKF@PxTriangleMesh@ 00000001801d84a0     GuTriangleMesh.obj
 0002:000054b0       ??_7TriangleMesh@Gu@physx@@6B@ 00000001801d84b0     GuTriangleMesh.obj
 0002:00005588       ??_C@_0DD@LOOPMCGG@PxTriangleMesh?3?3release?3?5double@ 00000001801d8588     GuTriangleMesh.obj
 0002:000055c0       ??_C@_0FH@PMPAJDGI@PxTriangleMesh?3?3getVerticesForM@ 00000001801d85c0     GuTriangleMesh.obj
 0002:00005620       ??_C@_0GE@NDCOBDJC@D?3?2Code?2OldD3D?2DX12BasicPlaygro@ 00000001801d8620     GuTriangleMesh.obj
 0002:00005690       ??_C@_0EF@GMNFLDH@PxTriangleMesh?3?3refitBVH?$CI?$CJ?5is?5n@ 00000001801d8690     GuTriangleMesh.obj
 0002:000056e0       __xmm@38383838383838383838383838383838 00000001801d86e0     GuTriangleMesh.obj
 0002:00005710       ??_C@_0BE@CNJKIINO@PxBVH34TriangleMesh@ 00000001801d8710     GuTriangleMeshBV4.obj
 0002:00005728       ??_7BV4TriangleMesh@Gu@physx@@6B@ 00000001801d8728     GuTriangleMeshBV4.obj
 0002:00005800       ??_C@_0EF@JLFNNPLP@BVH34?5trees?3?5refit?5operation?5on@ 00000001801d8800     GuTriangleMeshBV4.obj
 0002:00005850       ??_C@_0GH@HPAGGPIK@D?3?2Code?2OldD3D?2DX12BasicPlaygro@ 00000001801d8850     GuTriangleMeshBV4.obj
 0002:000058b8       __real@3951b717            00000001801d88b8     GuTriangleMeshBV4.obj
 0002:000058e0       ??_C@_0BE@EIFHCCBO@PxBVH33TriangleMesh@ 00000001801d88e0     GuTriangleMeshRTree.obj
 0002:000058f8       ??_7RTreeTriangleMesh@Gu@physx@@6B@ 00000001801d88f8     GuTriangleMeshRTree.obj
 0002:000059d0       ??_7?$RefitCallback@G@physx@@6B@ 00000001801d89d0     GuTriangleMeshRTree.obj
 0002:000059e0       ??_7?$RefitCallback@I@physx@@6B@ 00000001801d89e0     GuTriangleMeshRTree.obj
 0002:00005a10       ??_C@_0FM@EGJMLHPB@D?3?2Code?2OldD3D?2DX12BasicPlaygro@ 00000001801d8a10     GuBV32.obj
 0002:00005a90       ??_C@_0GB@MPJJDAAE@D?3?2Code?2OldD3D?2DX12BasicPlaygro@ 00000001801d8a90     GuBV32Build.obj
 0002:00005b20       ??_C@_0BC@FDAIDHBP@PxTetrahedronMesh@ 00000001801d8b20     GuTetrahedronMesh.obj
 0002:00005b38       ??_C@_0BC@FBICGJIB@PxSoftBodyAuxData@ 00000001801d8b38     GuTetrahedronMesh.obj
 0002:00005b50       ??_C@_0P@CLLFGFAA@PxSoftBodyMesh@ 00000001801d8b50     GuTetrahedronMesh.obj
 0002:00005b60       ??_7SoftBodyAuxData@Gu@physx@@6B@ 00000001801d8b60     GuTetrahedronMesh.obj
 0002:00005ba0       ??_7TetrahedronMesh@Gu@physx@@6B@ 00000001801d8ba0     GuTetrahedronMesh.obj
 0002:00005c18       ??_7BVTetrahedronMesh@Gu@physx@@6B@ 00000001801d8c18     GuTetrahedronMesh.obj
 0002:00005c90       ??_7SoftBodyMesh@Gu@physx@@6B@ 00000001801d8c90     GuTetrahedronMesh.obj
 0002:00005d10       ??_C@_0DG@JJNMDPMD@PxTetrahedronMesh?3?3release?3?5dou@ 00000001801d8d10     GuTetrahedronMesh.obj
 0002:00005d48       ??_C@_0DD@GGFGEPII@PxSoftBodyMesh?3?3release?3?5double@ 00000001801d8d48     GuTetrahedronMesh.obj
 0002:00005d80       ??_C@_0GH@JNEFIFBO@D?3?2Code?2OldD3D?2DX12BasicPlaygro@ 00000001801d8d80     GuTetrahedronMesh.obj
 0002:00005e10       __xmm@00000000358637bd358637bd358637bd 00000001801d8e10     GuPCMContactBoxBox.obj
 0002:00005e20       __xmm@3f4ccccd3f4ccccd3f4ccccd3f4ccccd 00000001801d8e20     GuPCMContactBoxBox.obj
 0002:00005e30       __xmm@3f8003473f8003473f8003473f800347 00000001801d8e30     GuPCMContactBoxBox.obj
 0002:00005e40       __xmm@ffffffff00000000ffffffffffffffff 00000001801d8e40     GuPCMContactBoxBox.obj
 0002:00005e70       ??_7?$LocalConvex@VConvexHullNoScaleV@Gu@physx@@@Gu@physx@@6B@ 00000001801d8e70     GuPCMContactBoxConvex.obj
 0002:00005ea0       __xmm@3f3504f33f3504f33f3504f33f3504f3 00000001801d8ea0     GuPCMContactBoxConvex.obj
 0002:00005ef0       __xmm@ffffffffffffffffffffffff00000000 00000001801d8ef0     GuPCMContactCapsuleCapsule.obj
 0002:00005f20       __xmm@3fa000003fa000003fa000003fa00000 00000001801d8f20     GuPCMContactCapsuleConvex.obj
 0002:00005f50       ??_7PCMCapsuleVsHeightfieldContactGenerationCallback@@6B@ 00000001801d8f50     GuPCMContactCapsuleHeightField.obj
 0002:00005f60       __real@3f7f3b64            00000001801d8f60     GuPCMContactCapsuleHeightField.obj
 0002:00005fb0       __xmm@3f7ff9723f7ff9723f7ff9723f7ff972 00000001801d8fb0     GuPCMContactCapsuleMesh.obj
 0002:00005fc0       __xmm@3f7fffef3f7fffef3f7fffef3f7fffef 00000001801d8fc0     GuPCMContactCapsuleMesh.obj
 0002:00005fd0       __xmm@60ad78ec60ad78ec60ad78ec60ad78ec 00000001801d8fd0     GuPCMContactCapsuleMesh.obj
 0002:00006000       ??_7?$SupportLocalImpl@VTriangleV@Gu@physx@@@Gu@physx@@6B@ 00000001801d9000     GuPCMContactConvexCommon.obj
 0002:00006020       __xmm@3cf5c2803cf5c2803cf5c2803cf5c280 00000001801d9020     GuPCMContactConvexCommon.obj
 0002:00006030       __xmm@3f7851ec3f7851ec3f7851ec3f7851ec 00000001801d9030     GuPCMContactConvexCommon.obj
 0002:00006060       ??_7?$RelativeConvex@VConvexHullNoScaleV@Gu@physx@@@Gu@physx@@6B@ 00000001801d9060     GuPCMContactConvexConvex.obj
 0002:000060b0       ??_7PCMConvexVsHeightfieldContactGenerationCallback@physx@@6B@ 00000001801d90b0     GuPCMContactConvexHeightField.obj
 0002:000060c0       __xmm@3f19999a3f19999a3f19999a3f19999a 00000001801d90c0     GuPCMContactConvexHeightField.obj
 0002:00006100       ??_7PCMConvexVsMeshContactGenerationCallback@physx@@6B@ 00000001801d9100     GuPCMContactConvexMesh.obj
 0002:00006130       __xmm@3f34fdf43f34fdf43f34fdf43f34fdf4 00000001801d9130     GuPCMContactGenBoxConvex.obj
 0002:00006160       __xmm@3f80a3d73f80a3d73f80a3d73f80a3d7 00000001801d9160     GuPCMContactGenSphereCapsule.obj
 0002:00006170       __xmm@bba3d70abba3d70abba3d70abba3d70a 00000001801d9170     GuPCMContactGenSphereCapsule.obj
 0002:000061a0       __xmm@3f7ffd613f7ffd613f7ffd613f7ffd61 00000001801d91a0     GuPCMContactPlaneBox.obj
 0002:000061d0       __real@3b23d70b            00000001801d91d0     GuPCMContactPlaneCapsule.obj
 0002:000061e0       __xmm@3ca3d70a3ca3d70a3ca3d70a3ca3d70a 00000001801d91e0     GuPCMContactPlaneCapsule.obj
 0002:00006210       __xmm@3a03126f3a03126f3a03126f3a03126f 00000001801d9210     GuPCMContactPlaneConvex.obj
 0002:000062a0       ??_7PCMSphereVsHeightfieldContactGenerationCallback@physx@@6B@ 00000001801d92a0     GuPCMContactSphereHeightField.obj
 0002:000062f0       ??_C@_0FM@ENCGJDPO@D?3?2Code?2OldD3D?2DX12BasicPlaygro@ 00000001801d92f0     GuPCMContactSphereMesh.obj
 0002:00006390       __xmm@3727c5ac3727c5ac3727c5ac3727c5ac 00000001801d9390     GuPCMContactSphereSphere.obj
 0002:000063c0       __xmm@3f7f06f73f7f06f73f7f06f73f7f06f7 00000001801d93c0     GuPCMContactCustomGeometry.obj
 0002:000063d0       ?gPCMBoxPolygonData@Gu@physx@@3QBEB 00000001801d93d0     GuPCMShapeConvex.obj
 0002:00006430       ?invalidateThresholds@Gu@physx@@3QBMB 00000001801d9430     GuPersistentContactManifold.obj
 0002:00006448       ?invalidateQuatThresholds@Gu@physx@@3QBMB 00000001801d9448     GuPersistentContactManifold.obj
 0002:00006460       ?invalidateThresholds2@Gu@physx@@3QBMB 00000001801d9460     GuPersistentContactManifold.obj
 0002:00006470       ?invalidateQuatThresholds2@Gu@physx@@3QBMB 00000001801d9470     GuPersistentContactManifold.obj
 0002:000064a0       __xmm@00000000340000003400000034000000 00000001801d94a0     GuPersistentContactManifold.obj
 0002:000064b0       __xmm@000000003f8000003f80000000000000 00000001801d94b0     GuPersistentContactManifold.obj
 0002:000064c0       __xmm@00000000bf8000003f80000000000000 00000001801d94c0     GuPersistentContactManifold.obj
 0002:000064d0       __xmm@ffffffffffffffff00000000ffffffff 00000001801d94d0     GuPersistentContactManifold.obj
 0002:00006540       __real@b727c5ac            00000001801d9540     GuSweepBoxSphere.obj
 0002:000065b0       ??_C@_0GI@LNFJBLNK@D?3?2Code?2OldD3D?2DX12BasicPlaygro@ 00000001801d95b0     GuSweepCapsuleBox.obj
 0002:00006640       __real@3f7fff58            00000001801d9640     GuSweepCapsuleTriangle.obj
 0002:000066b0       ??_C@_0CH@DHJGKCPD@Gu?3?3computeBounds?3?5Unknown?5shap@ 00000001801d96b0     GuBounds.obj
 0002:000066e0       ??_C@_0FJ@DDJKMEHC@D?3?2Code?2OldD3D?2DX12BasicPlaygro@ 00000001801d96e0     GuBounds.obj
 0002:0000673c       __real@34800000            00000001801d973c     GuBounds.obj
 0002:00006740       __real@3f7fffef            00000001801d9740     GuBounds.obj
 0002:00006750       __xmm@3f8147ae3f8147ae3f8147ae3f8147ae 00000001801d9750     GuBounds.obj
 0002:00006780       ??_C@_0FL@FFHFGNAB@D?3?2Code?2OldD3D?2DX12BasicPlaygro@ 00000001801d9780     GuAABBTree.obj
 0002:000067e0       __xmm@5a60b17f5a60b17f5a60b17f5a60b17f 00000001801d97e0     GuAABBTree.obj
 0002:000067f0       __xmm@da60b17fda60b17fda60b17fda60b17f 00000001801d97f0     GuAABBTree.obj
 0002:00006860       ??_C@_0GG@MKFANBL@D?3?2Code?2OldD3D?2DX12BasicPlaygro@ 00000001801d9860     GuIncrementalAABBTree.obj
 0002:000068d0       ??_C@_0FD@MOGDPCLC@D?3?2Code?2OldD3D?2DX12BasicPlaygro@ 00000001801d98d0     GuIncrementalAABBTree.obj
 0002:00006924       __real@40400000            00000001801d9924     GuIncrementalAABBTree.obj
 0002:00006930       ??_C@_0FG@GFHHNAD@D?3?2Code?2OldD3D?2DX12BasicPlaygro@ 00000001801d9930     GuSAH.obj
 0002:000069b0       ??_7PxBVH@physx@@6B@       00000001801d99b0     GuBVH.obj
 0002:00006a40       ??_C@_05OKJNPKBM@PxBVH@    00000001801d9a40     GuBVH.obj
 0002:00006a48       ??_7RefCountable@Cm@physx@@6B@ 00000001801d9a48     GuBVH.obj
 0002:00006a58       ??_7BVH@Gu@physx@@6BPxBVH@2@@ 00000001801d9a58     GuBVH.obj
 0002:00006ae8       ??_7BVH@Gu@physx@@6BRefCountable@Cm@2@@ 00000001801d9ae8     GuBVH.obj
 0002:00006b00       ??_C@_0FG@BEDPOOPG@D?3?2Code?2OldD3D?2DX12BasicPlaygro@ 00000001801d9b00     GuBVH.obj
 0002:00006b58       ??_C@_0CK@HAIOEINI@PxBVH?3?3release?3?5double?5deletion@ 00000001801d9b58     GuBVH.obj
 0002:00006bb0       ??_C@_0GM@CNIHGNCF@D?3?2Code?2OldD3D?2DX12BasicPlaygro@ 00000001801d9bb0     GuIncrementalAABBPrunerCore.obj
 0002:00006c1c       __real@3f80a3d7            00000001801d9c1c     GuIncrementalAABBPrunerCore.obj
 0002:00006c40       ??_7BasePruner@Gu@physx@@6B@ 00000001801d9c40     GuIncrementalAABBPruner.obj
 0002:00006c58       ??_7IncrementalAABBPruner@Gu@physx@@6B@ 00000001801d9c58     GuIncrementalAABBPruner.obj
 0002:00006ce0       ??_C@_0GI@KGDDPOOH@D?3?2Code?2OldD3D?2DX12BasicPlaygro@ 00000001801d9ce0     GuIncrementalAABBPruner.obj
 0002:00006d70       ??_C@_0FO@EOHAOEKG@D?3?2Code?2OldD3D?2DX12BasicPlaygro@ 00000001801d9d70     GuPruningPool.obj
 0002:00006e10       ??_7BucketPruner@Gu@physx@@6B@ 00000001801d9e10     GuBucketPruner.obj
 0002:00006ea0       ??_C@_0FP@DFIMLGD@D?3?2Code?2OldD3D?2DX12BasicPlaygro@ 00000001801d9ea0     GuBucketPruner.obj
 0002:00006f00       __real@bf13cd3a            00000001801d9f00     GuBucketPruner.obj
 0002:00006f10       __xmm@000000007e7fffff7e7fffff7e7fffff 00000001801d9f10     GuBucketPruner.obj
 0002:00006f20       __xmm@00000000fe7ffffffe7ffffffe7fffff 00000001801d9f20     GuBucketPruner.obj
 0002:00006f30       __xmm@3f13cd3a3f13cd3a3f13cd3a3f13cd3a 00000001801d9f30     GuBucketPruner.obj
 0002:00006f40       __xmm@bf13cd3abf13cd3abf13cd3a3f13cd3a 00000001801d9f40     GuBucketPruner.obj
 0002:00006f50       __xmm@bf8000003f8000003f800000bf800000 00000001801d9f50     GuBucketPruner.obj
 0002:00006f60       __xmm@bf8000003f800000bf8000003f800000 00000001801d9f60     GuBucketPruner.obj
 0002:00006f70       __xmm@bf800000bf8000003f8000003f800000 00000001801d9f70     GuBucketPruner.obj
 0002:00006f80       __xmm@bf800000bf800000bf8000003f800000 00000001801d9f80     GuBucketPruner.obj
 0002:00006f90       ?mIndices@MaverickNode@Gu@physx@@2QBIB 00000001801d9f90     GuMaverickNode.obj
 0002:00006ff0       ??_C@_0GH@MJAPEGPD@D?3?2Code?2OldD3D?2DX12BasicPlaygro@ 00000001801d9ff0     GuExtendedBucketPruner.obj
 0002:00007080       ??_7CompanionPruner@Gu@physx@@6B@ 00000001801da080     GuSecondaryPruner.obj
 0002:00007100       ??_7CompanionPrunerBucket@@6B@ 00000001801da100     GuSecondaryPruner.obj
 0002:00007180       ??_7CompanionPrunerIncremental@@6B@ 00000001801da180     GuSecondaryPruner.obj
 0002:00007200       ??_7CompanionPrunerAABBTree@@6B@ 00000001801da200     GuSecondaryPruner.obj
 0002:00007280       ??_C@_0GC@MGFKILFB@D?3?2Code?2OldD3D?2DX12BasicPlaygro@ 00000001801da280     GuSecondaryPruner.obj
 0002:00007310       ??_7AABBPruner@Gu@physx@@6B@ 00000001801da310     GuAABBPruner.obj
 0002:000073b0       ??_C@_0FN@FLKMDMLE@D?3?2Code?2OldD3D?2DX12BasicPlaygro@ 00000001801da3b0     GuAABBPruner.obj
 0002:00007410       ??_C@_0GA@BEBHNPFG@D?3?2Code?2OldD3D?2DX12BasicPlaygro@ 00000001801da410     GuActorShapeMap.obj
 0002:00007490       ??_C@_0BF@DNABLJAF@Invalid?5pruner?5index@ 00000001801da490     GuQuerySystem.obj
 0002:000074b0       ??_C@_0FO@BABGBMCM@D?3?2Code?2OldD3D?2DX12BasicPlaygro@ 00000001801da4b0     GuQuerySystem.obj
 0002:00007560       ??_C@_0FK@NLHAJBDP@D?3?2Code?2OldD3D?2DX12BasicPlaygro@ 00000001801da560     GuFactory.obj
 0002:000075c0       ?reductionFactors@SubSortQuick@physx@@2QBMB 00000001801da5c0     GuRTreeCooking.obj
 0002:000075d0       ?stopAtTrisPerLeaf1@SubSortQuick@physx@@2QBIB 00000001801da5d0     GuRTreeCooking.obj
 0002:000076a0       ??_C@_0GH@CPNLAMAG@D?3?2Code?2OldD3D?2DX12BasicPlaygro@ 00000001801da6a0     GuRTreeCooking.obj
 0002:00007708       __real@41100000            00000001801da708     GuRTreeCooking.obj
 0002:0000770c       __real@41700000            00000001801da70c     GuRTreeCooking.obj
 0002:00007710       __real@42200000            00000001801da710     GuRTreeCooking.obj
 0002:00007720       __xmm@00000004000000030000000200000001 00000001801da720     GuRTreeCooking.obj
 0002:00007750       ??_C@_0GE@KPPAEMEE@D?3?2Code?2OldD3D?2DX12BasicPlaygro@ 00000001801da750     GuCookingHF.obj
 0002:000077c0       ??_C@_0EK@EKAIJEBL@Cooking?3?3cookConvexMesh?3?5user?9p@ 00000001801da7c0     GuCookingConvexMesh.obj
 0002:00007810       ??_C@_0FA@GFFGAPML@Cooking?3?3cookConvexMesh?3?5provid@ 00000001801da810     GuCookingConvexMesh.obj
 0002:00007860       ??_C@_0EP@PKDCPNNO@Cooking?3?3cookConvexMesh?3?5provid@ 00000001801da860     GuCookingConvexMesh.obj
 0002:000078b0       ??_C@_0EO@LKFMMDE@Cooking?3?3cookConvexMesh?3?5user?9p@ 00000001801da8b0     GuCookingConvexMesh.obj
 0002:00007900       ??_C@_0EL@KJEPJALG@Cooking?3?3cookConvexMesh?3?5user?9p@ 00000001801da900     GuCookingConvexMesh.obj
 0002:00007950       ??_C@_0FM@LHMEBKMM@Cooking?3?3cookConvexMesh?3?5GPU?9co@ 00000001801da950     GuCookingConvexMesh.obj
 0002:000079b0       ??_C@_0FJ@FHCFFABE@Cooking?3?3cookConvexMesh?3?5GPU?9co@ 00000001801da9b0     GuCookingConvexMesh.obj
 0002:00007a10       ??_C@_0GM@DDECBFDI@D?3?2Code?2OldD3D?2DX12BasicPlaygro@ 00000001801daa10     GuCookingConvexMesh.obj
 0002:00007aa0       ??_7TriangleMeshBuilder@physx@@6B@ 00000001801daaa0     GuCookingTriangleMesh.obj
 0002:00007ac8       ??_7RTreeTriangleMeshBuilder@physx@@6B@ 00000001801daac8     GuCookingTriangleMesh.obj
 0002:00007af0       ??_7BV4TriangleMeshBuilder@physx@@6B@ 00000001801daaf0     GuCookingTriangleMesh.obj
 0002:00007b20       ??_C@_0GO@PLHBIHE@D?3?2Code?2OldD3D?2DX12BasicPlaygro@ 00000001801dab20     GuCookingTriangleMesh.obj
 0002:00007b90       ??_C@_0DJ@IGODLHLP@TriangleMesh?3?5Enable?5mesh?5weldi@ 00000001801dab90     GuCookingTriangleMesh.obj
 0002:00007bd0       ??_C@_0FJ@HHJLKGDF@TriangleMesh?3?5triangles?5are?5too@ 00000001801dabd0     GuCookingTriangleMesh.obj
 0002:00007c30       ??_C@_0CN@KGPHHHLK@TriangleMesh?3?5mesh?5is?5too?5big?5f@ 00000001801dac30     GuCookingTriangleMesh.obj
 0002:00007c60       ??_C@_0DD@CMJGDCNN@TriangleMesh?3?3loadFromDesc?3?5des@ 00000001801dac60     GuCookingTriangleMesh.obj
 0002:00007ca0       ??_C@_0ED@ILJJNHIP@TriangleMesh?3?3loadFromDesc?3?5mPa@ 00000001801daca0     GuCookingTriangleMesh.obj
 0002:00007ce8       ??_C@_0BJ@BKHDBBHO@cleaning?5the?5mesh?5failed@ 00000001801dace8     GuCookingTriangleMesh.obj
 0002:00007d08       ??_C@_0BK@JIDHMMCE@BV4?5tree?5failed?5to?5build?4@ 00000001801dad08     GuCookingTriangleMesh.obj
 0002:00007d28       ??_C@_0BL@DHNECNBE@BV32?5tree?5failed?5to?5build?4@ 00000001801dad28     GuCookingTriangleMesh.obj
 0002:00007d48       ??_7RTreeCookerRemap@@6B@  00000001801dad48     GuCookingTriangleMesh.obj
 0002:00007d60       ??_C@_0FC@PJIHAFK@Cooking?3?3validateTriangleMesh?3?5@ 00000001801dad60     GuCookingTriangleMesh.obj
 0002:00007db4       __real@48742400            00000001801dadb4     GuCookingTriangleMesh.obj
 0002:00007de0       ??_7PxCollisionTetrahedronMeshData@physx@@6B@ 00000001801dade0     GuCookingTetrahedronMesh.obj
 0002:00007e10       ??_7PxSimulationTetrahedronMeshData@physx@@6B@ 00000001801dae10     GuCookingTetrahedronMesh.obj
 0002:00007e30       ??_7CollisionTetrahedronMeshData@Gu@physx@@6B@ 00000001801dae30     GuCookingTetrahedronMesh.obj
 0002:00007e60       ??_7SimulationTetrahedronMeshData@Gu@physx@@6B@ 00000001801dae60     GuCookingTetrahedronMesh.obj
 0002:00007e80       ??_C@_0HB@FKANNLPL@D?3?2Code?2OldD3D?2DX12BasicPlaygro@ 00000001801dae80     GuCookingTetrahedronMesh.obj
 0002:00007f00       ??_C@_0EG@BKGBJDHG@computeRestPoseAndPointMass?$CI?$CJ?3?5@ 00000001801daf00     GuCookingTetrahedronMesh.obj
 0002:00007f48       ??_7?$LocalConvex@VTetrahedronV@Gu@physx@@@Gu@physx@@6B@ 00000001801daf48     GuCookingTetrahedronMesh.obj
 0002:00007f78       ??_C@_0CD@OJGNHLOE@BV4_AABBTree?5tree?5failed?5to?5bui@ 00000001801daf78     GuCookingTetrahedronMesh.obj
 0002:00007fa0       ??_C@_0DG@NCNIEEHB@TetrahedronMesh?3?3loadFromDesc?3?5@ 00000001801dafa0     GuCookingTetrahedronMesh.obj
 0002:00007fe0       ??_C@_0EG@CJIFGLMC@TetrahedronMesh?3?3loadFromDesc?3?5@ 00000001801dafe0     GuCookingTetrahedronMesh.obj
 0002:00008028       __real@3e2aaaab            00000001801db028     GuCookingTetrahedronMesh.obj
 0002:0000802c       __real@be2aaaab            00000001801db02c     GuCookingTetrahedronMesh.obj
 0002:00008030       __xmm@00000003000000030000000300000003 00000001801db030     GuCookingTetrahedronMesh.obj
 0002:00008060       __real@3bc79ca10c924223    00000001801db060     GuCookingVolumeIntegration.obj
 0002:00008068       __real@3f91111111111111    00000001801db068     GuCookingVolumeIntegration.obj
 0002:00008070       __real@3fa5555555555555    00000001801db070     GuCookingVolumeIntegration.obj
 0002:00008078       __real@3fa999999999999a    00000001801db078     GuCookingVolumeIntegration.obj
 0002:00008080       __real@3fb5555555555555    00000001801db080     GuCookingVolumeIntegration.obj
 0002:00008088       __real@3fc5555555555555    00000001801db088     GuCookingVolumeIntegration.obj
 0002:00008090       __real@3fe0000000000000    00000001801db090     GuCookingVolumeIntegration.obj
 0002:00008098       __real@3ff0000000000000    00000001801db098     GuCookingVolumeIntegration.obj
 0002:000080a0       __real@4008000000000000    00000001801db0a0     GuCookingVolumeIntegration.obj
 0002:000080a8       __real@4010000000000000    00000001801db0a8     GuCookingVolumeIntegration.obj
 0002:000080b0       __real@bf91111111111111    00000001801db0b0     GuCookingVolumeIntegration.obj
 0002:000080b8       __real@bfa999999999999a    00000001801db0b8     GuCookingVolumeIntegration.obj
 0002:000080c0       __real@bfb5555555555555    00000001801db0c0     GuCookingVolumeIntegration.obj
 0002:000080c8       __real@bfc5555555555555    00000001801db0c8     GuCookingVolumeIntegration.obj
 0002:000080d0       __xmm@3c0888893c0888893c0888893c088889 00000001801db0d0     GuCookingVolumeIntegration.obj
 0002:000080e0       __xmm@3c8888893c8888893c8888893c888889 00000001801db0e0     GuCookingVolumeIntegration.obj
 0002:000080f0       __xmm@3d2aaaab3d2aaaab3d2aaaab3d2aaaab 00000001801db0f0     GuCookingVolumeIntegration.obj
 0002:00008100       __xmm@3e2aaaab3e2aaaab3e2aaaab3e2aaaab 00000001801db100     GuCookingVolumeIntegration.obj
 0002:00008110       __xmm@3f811111111111113f81111111111111 00000001801db110     GuCookingVolumeIntegration.obj
 0002:00008120       __xmm@3f811111111111113f91111111111111 00000001801db120     GuCookingVolumeIntegration.obj
 0002:00008130       __xmm@3f911111111111113f91111111111111 00000001801db130     GuCookingVolumeIntegration.obj
 0002:00008140       __xmm@3fa55555555555553fa5555555555555 00000001801db140     GuCookingVolumeIntegration.obj
 0002:00008150       __xmm@3fa55555555555553fc5555555555555 00000001801db150     GuCookingVolumeIntegration.obj
 0002:00008160       __xmm@3fd55555555555553fd5555555555555 00000001801db160     GuCookingVolumeIntegration.obj
 0002:00008170       __xmm@3fe00000000000003fe0000000000000 00000001801db170     GuCookingVolumeIntegration.obj
 0002:00008180       __xmm@7fffffffffffffff7fffffffffffffff 00000001801db180     GuCookingVolumeIntegration.obj
 0002:00008190       __xmm@80000000000000008000000000000000 00000001801db190     GuCookingVolumeIntegration.obj
 0002:000081a0       ??_7ConvexHullLib@physx@@6B@ 00000001801db1a0     GuCookingQuickHullConvexHullLib.obj
 0002:000081c0       ??_7QuickHullConvexHullLib@physx@@6B@ 00000001801db1c0     GuCookingQuickHullConvexHullLib.obj
 0002:000081e0       ??_C@_0HI@HPKLEDHE@D?3?2Code?2OldD3D?2DX12BasicPlaygro@ 00000001801db1e0     GuCookingQuickHullConvexHullLib.obj
 0002:00008260       ??_C@_0GA@EPPAEJPM@QuickHullConvexHullLib?3?3findSim@ 00000001801db260     GuCookingQuickHullConvexHullLib.obj
 0002:000082c0       ??_C@_0FB@NEBIJMML@QuickHullConvexHullLib?3?3findSim@ 00000001801db2c0     GuCookingQuickHullConvexHullLib.obj
 0002:00008320       ??_C@_0FB@CLLCBEMM@QuickHullConvexHullLib?3?3findSim@ 00000001801db320     GuCookingQuickHullConvexHullLib.obj
 0002:00008374       __real@34c00000            00000001801db374     GuCookingQuickHullConvexHullLib.obj
 0002:00008378       ??_C@_0DP@PJBJBEGF@Meshmerizer?3?3extractHullPolygon@ 00000001801db378     GuCookingConvexPolygonsBuilder.obj
 0002:000083c0       ??_C@_0HH@EOFDOEIJ@D?3?2Code?2OldD3D?2DX12BasicPlaygro@ 00000001801db3c0     GuCookingConvexPolygonsBuilder.obj
 0002:00008438       ??_C@_0DL@IAFKOCCK@ConvexHullBuilder?3?5convex?5hull?5@ 00000001801db438     GuCookingConvexPolygonsBuilder.obj
 0002:00008480       ??_C@_0GF@OJLJHAMH@ConvexHullBuilder?3?3CreateTriang@ 00000001801db480     GuCookingConvexPolygonsBuilder.obj
 0002:00008510       ??_C@_0DF@LLFJIJGM@Gu?3?3ConvexMesh?3?3loadFromDesc?3?5d@ 00000001801db510     GuCookingConvexMeshBuilder.obj
 0002:00008550       ??_C@_0HK@JOGKIEAA@Gu?3?3ConvexMesh?3?5Mesh?5has?5a?5nega@ 00000001801db550     GuCookingConvexMeshBuilder.obj
 0002:000085d0       ??_C@_0DH@NJPPHFFD@Gu?3?3ConvexMesh?3?5Error?5computing@ 00000001801db5d0     GuCookingConvexMeshBuilder.obj
 0002:00008608       ??_C@_0DJ@LJDLGLDJ@Gu?3?3ConvexMesh?3?3loadConvexHull?3@ 00000001801db608     GuCookingConvexMeshBuilder.obj
 0002:00008650       ??_C@_0HJ@KJANPPOE@ConvexMeshBuilder?3?3computeHullP@ 00000001801db650     GuCookingConvexMeshBuilder.obj
 0002:000086d0       ??_C@_0HD@BFAHKJNK@D?3?2Code?2OldD3D?2DX12BasicPlaygro@ 00000001801db6d0     GuCookingConvexMeshBuilder.obj
 0002:00008748       ??_C@_0O@JMAGMMGG@PxHullPolygon@ 00000001801db748     GuCookingConvexMeshBuilder.obj
 0002:00008758       __real@3f13cd3a            00000001801db758     GuCookingConvexMeshBuilder.obj
 0002:00008780       ??_C@_0HB@CLIKILOA@D?3?2Code?2OldD3D?2DX12BasicPlaygro@ 00000001801db780     GuCookingConvexHullUtils.obj
 0002:000087f4       __real@3e20d97c            00000001801db7f4     GuCookingConvexHullUtils.obj
 0002:00008800       ??_C@_0GP@JFNNCJPI@D?3?2Code?2OldD3D?2DX12BasicPlaygro@ 00000001801db800     GuCookingConvexHullLib.obj
 0002:00008870       ??_C@_0JE@PABBNGEL@ConvexHullLib?3?3cleanupVertices?3@ 00000001801db870     GuCookingConvexHullLib.obj
 0002:00008930       ??_C@_0HD@NLKDAJIP@D?3?2Code?2OldD3D?2DX12BasicPlaygro@ 00000001801db930     GuCookingConvexHullBuilder.obj
 0002:000089b0       ??_C@_0EB@DCEIFDGC@ConvexHullBuilder?3?3init?3?5convex@ 00000001801db9b0     GuCookingConvexHullBuilder.obj
 0002:00008a00       ??_C@_0FM@KICBLCBH@Gu?3?3ConvexMesh?3?3checkHullPolygo@ 00000001801dba00     GuCookingConvexHullBuilder.obj
 0002:00008a60       ??_C@_0GO@HBFIOGLL@Gu?3?3ConvexMesh?3?3checkHullPolygo@ 00000001801dba60     GuCookingConvexHullBuilder.obj
 0002:00008ad0       ??_C@_0HF@OLJFBIEL@ConvexHullBuilder?3?5convex?5hull?5@ 00000001801dbad0     GuCookingConvexHullBuilder.obj
 0002:00008b50       ??_C@_0OG@JNHFOIL@ConvexHullBuilder?3?5convex?5hull?5@ 00000001801dbb50     GuCookingConvexHullBuilder.obj
 0002:00008c40       ??_C@_0EJ@NIOIBAKH@Cooking?3?3cookConvexMesh?3?5non?9ma@ 00000001801dbc40     GuCookingConvexHullBuilder.obj
 0002:00008cb0       ??_C@_0HG@EHJOEMPB@D?3?2Code?2OldD3D?2DX12BasicPlaygro@ 00000001801dbcb0     GuCookingBigConvexDataBuilder.obj
 0002:00008d30       __sz_PhysXFoundation_64_dll 00000001801dbd30     PhysXFoundation_64:PhysXFoundation_64.dll
 0002:00008d48       ??_C@_1BK@DBDEIDLH@?$AAK?$AAE?$AAR?$AAN?$AAE?$AAL?$AA3?$AA2?$AA?4?$AAD?$AAL?$AAL@ 00000001801dbd48     Delayimp:delayhlp.obj
 0002:00008d68       ??_C@_0BI@OMNLIJDB@AcquireSRWLockExclusive@ 00000001801dbd68     Delayimp:delayhlp.obj
 0002:00008d80       ??_C@_0BI@HMIEPCNJ@ReleaseSRWLockExclusive@ 00000001801dbd80     Delayimp:delayhlp.obj
 0002:00008d98       __pfnDliFailureHook2       00000001801dbd98     Delayimp:delayhk1.obj
 0002:00008da8       ??_7type_info@@6B@         00000001801dbda8     LIBCMT:std_type_info_static.obj
 0002:00008e10       _pDefaultRawDllMain        00000001801dbe10     LIBCMT:dll_dllmain.obj
 0002:00008e10       _pRawDllMain               00000001801dbe10     LIBCMT:dll_dllmain.obj
 0002:00008e20       _load_config_used          00000001801dbe20     LIBCMT:loadcfg.obj
 0002:00008f60       _pDestructExceptionObject  00000001801dbf60     libvcruntime:ehhelpers.obj
 0002:00009680       ??_C@_08EHJDFFNH@__based?$CI@ 00000001801dc680     libvcruntime:undname.obj
 0002:00009690       ??_C@_07KOLFKCDI@__cdecl@  00000001801dc690     libvcruntime:undname.obj
 0002:00009698       ??_C@_08GHMPAG@__pascal@   00000001801dc698     libvcruntime:undname.obj
 0002:000096a8       ??_C@_09IFJBGAPI@__stdcall@ 00000001801dc6a8     libvcruntime:undname.obj
 0002:000096b8       ??_C@_0L@NPHFGOKO@__thiscall@ 00000001801dc6b8     libvcruntime:undname.obj
 0002:000096c8       ??_C@_0L@JMKHOMEK@__fastcall@ 00000001801dc6c8     libvcruntime:undname.obj
 0002:000096d8       ??_C@_0N@BCKKPABJ@__vectorcall@ 00000001801dc6d8     libvcruntime:undname.obj
 0002:000096e8       ??_C@_09HIJEGCPM@__clrcall@ 00000001801dc6e8     libvcruntime:undname.obj
 0002:000096f4       ??_C@_06GHPCKEAG@__eabi@   00000001801dc6f4     libvcruntime:undname.obj
 0002:00009700       ??_C@_09IOPIDJLG@__swift_1@ 00000001801dc700     libvcruntime:undname.obj
 0002:00009710       ??_C@_09KFNFGKHF@__swift_2@ 00000001801dc710     libvcruntime:undname.obj
 0002:00009720       ??_C@_09LMMOFLDE@__swift_3@ 00000001801dc720     libvcruntime:undname.obj
 0002:00009730       ??_C@_07JOMMBBKO@__ptr64@  00000001801dc730     libvcruntime:undname.obj
 0002:00009738       ??_C@_0L@PILCLIHE@__restrict@ 00000001801dc738     libvcruntime:undname.obj
 0002:00009748       ??_C@_0M@GFIIJFMG@__unaligned@ 00000001801dc748     libvcruntime:undname.obj
 0002:00009758       ??_C@_09DHDLOLLB@restrict?$CI@ 00000001801dc758     libvcruntime:undname.obj
 0002:00009764       ??_C@_04NIHEBCM@?5new@     00000001801dc764     libvcruntime:undname.obj
 0002:00009770       ??_C@_07FPCDHGMM@?5delete@ 00000001801dc770     libvcruntime:undname.obj
 0002:00009778       ??_C@_01NEMOKFLO@?$DN@     00000001801dc778     libvcruntime:undname.obj
 0002:0000977c       ??_C@_02GPIOPFAK@?$DO?$DO@ 00000001801dc77c     libvcruntime:undname.obj
 0002:00009780       ??_C@_02FODMEDOG@?$DM?$DM@ 00000001801dc780     libvcruntime:undname.obj
 0002:00009784       ??_C@_01DCLJPIOD@?$CB@     00000001801dc784     libvcruntime:undname.obj
 0002:00009788       ??_C@_02EGOFBIJA@?$DN?$DN@ 00000001801dc788     libvcruntime:undname.obj
 0002:0000978c       ??_C@_02FDNJECIE@?$CB?$DN@ 00000001801dc78c     libvcruntime:undname.obj
 0002:00009790       ??_C@_02GPECMEKF@?$FL?$FN@ 00000001801dc790     libvcruntime:undname.obj
 0002:00009798       ??_C@_08LHJFAFGD@operator@ 00000001801dc798     libvcruntime:undname.obj
 0002:000097a4       ??_C@_02HBOOOICD@?9?$DO@   00000001801dc7a4     libvcruntime:undname.obj
 0002:000097a8       ??_C@_01NBENCBCI@?$CK@     00000001801dc7a8     libvcruntime:undname.obj
 0002:000097ac       ??_C@_02ECNGHCIF@?$CL?$CL@ 00000001801dc7ac     libvcruntime:undname.obj
 0002:000097b0       ??_C@_02BAABKJLB@?9?9@     00000001801dc7b0     libvcruntime:undname.obj
 0002:000097b4       ??_C@_01JOAMLHOP@?9@       00000001801dc7b4     libvcruntime:undname.obj
 0002:000097b8       ??_C@_01MIFGBAGJ@?$CL@     00000001801dc7b8     libvcruntime:undname.obj
 0002:000097bc       ??_C@_01HNPIGOCE@?$CG@     00000001801dc7bc     libvcruntime:undname.obj
 0002:000097c0       ??_C@_03MNHNFDLC@?9?$DO?$CK@ 00000001801dc7c0     libvcruntime:undname.obj
 0002:000097c4       ??_C@_01KMDKNFGN@?1@       00000001801dc7c4     libvcruntime:undname.obj
 0002:000097c8       ??_C@_01FGNFDNOH@?$CF@     00000001801dc7c8     libvcruntime:undname.obj
 0002:000097cc       ??_C@_01MNNFJEPP@?$DM@     00000001801dc7cc     libvcruntime:undname.obj
 0002:000097d0       ??_C@_02EHCHHCKH@?$DM?$DN@ 00000001801dc7d0     libvcruntime:undname.obj
 0002:000097d4       ??_C@_01PPODPGHN@?$DO@     00000001801dc7d4     libvcruntime:undname.obj
 0002:000097d8       ??_C@_02EEKDKGMJ@?$DO?$DN@ 00000001801dc7d8     libvcruntime:undname.obj
 0002:000097dc       ??_C@_01IHBHIGKO@?0@       00000001801dc7dc     libvcruntime:undname.obj
 0002:000097e0       ??_C@_02HCKGKOFO@?$CI?$CJ@ 00000001801dc7e0     libvcruntime:undname.obj
 0002:000097e4       ??_C@_01PJKLJHI@?$HO@      00000001801dc7e4     libvcruntime:undname.obj
 0002:000097e8       ??_C@_01JKBOJNNK@?$FO@     00000001801dc7e8     libvcruntime:undname.obj
 0002:000097ec       ??_C@_01DNKMNLPK@?$HM@     00000001801dc7ec     libvcruntime:undname.obj
 0002:000097f0       ??_C@_02PPKAJPJL@?$CG?$CG@ 00000001801dc7f0     libvcruntime:undname.obj
 0002:000097f4       ??_C@_02NONPIBCD@?$HM?$HM@ 00000001801dc7f4     libvcruntime:undname.obj
 0002:000097f8       ??_C@_02FPIMKNGF@?$CK?$DN@ 00000001801dc7f8     libvcruntime:undname.obj
 0002:000097fc       ??_C@_02FOEOMHFC@?$CL?$DN@ 00000001801dc7fc     libvcruntime:undname.obj
 0002:00009800       ??_C@_02FKMDLLOA@?9?$DN@   00000001801dc800     libvcruntime:undname.obj
 0002:00009804       ??_C@_02FJEHGPIO@?1?$DN@   00000001801dc804     libvcruntime:undname.obj
 0002:00009808       ??_C@_02FENAOKFI@?$CF?$DN@ 00000001801dc808     libvcruntime:undname.obj
 0002:0000980c       ??_C@_03IKFCCPFF@?$DO?$DO?$DN@ 00000001801dc80c     libvcruntime:undname.obj
 0002:00009810       ??_C@_03CDNPDDLA@?$DM?$DM?$DN@ 00000001801dc810     libvcruntime:undname.obj
 0002:00009814       ??_C@_02FGJGFEAB@?$CG?$DN@ 00000001801dc814     libvcruntime:undname.obj
 0002:00009818       ??_C@_02DHLNPPGH@?$HM?$DN@ 00000001801dc818     libvcruntime:undname.obj
 0002:0000981c       ??_C@_02MHEGNOJ@?$FO?$DN@  00000001801dc81c     libvcruntime:undname.obj
 0002:00009820       ??_C@_09IFPLHPGF@?$GAvftable?8@ 00000001801dc820     libvcruntime:undname.obj
 0002:00009830       ??_C@_09BLBHBJP@?$GAvbtable?8@ 00000001801dc830     libvcruntime:undname.obj
 0002:00009840       ??_C@_07FEEIOKP@?$GAvcall?8@ 00000001801dc840     libvcruntime:undname.obj
 0002:00009848       ??_C@_08LLFFHHDJ@?$GAtypeof?8@ 00000001801dc848     libvcruntime:undname.obj
 0002:00009858       ??_C@_0BF@KDPPACIK@?$GAlocal?5static?5guard?8@ 00000001801dc858     libvcruntime:undname.obj
 0002:00009870       ??_C@_08OBABFOLI@?$GAstring?8@ 00000001801dc870     libvcruntime:undname.obj
 0002:00009880       ??_C@_0BD@JDLKDPAB@?$GAvbase?5destructor?8@ 00000001801dc880     libvcruntime:undname.obj
 0002:00009898       ??_C@_0BN@DEGPLNFK@?$GAvector?5deleting?5destructor?8@ 00000001801dc898     libvcruntime:undname.obj
 0002:000098b8       ??_C@_0BO@OBMKPJIG@?$GAdefault?5constructor?5closure?8@ 00000001801dc8b8     libvcruntime:undname.obj
 0002:000098d8       ??_C@_0BN@IMDCHIKM@?$GAscalar?5deleting?5destructor?8@ 00000001801dc8d8     libvcruntime:undname.obj
 0002:000098f8       ??_C@_0BO@PFGOCPJJ@?$GAvector?5constructor?5iterator?8@ 00000001801dc8f8     libvcruntime:undname.obj
 0002:00009918       ??_C@_0BN@LFPFMEDL@?$GAvector?5destructor?5iterator?8@ 00000001801dc918     libvcruntime:undname.obj
 0002:00009938       ??_C@_0CE@IKBNEHA@?$GAvector?5vbase?5constructor?5itera@ 00000001801dc938     libvcruntime:undname.obj
 0002:00009960       ??_C@_0BL@NILFHHPC@?$GAvirtual?5displacement?5map?8@ 00000001801dc960     libvcruntime:undname.obj
 0002:00009980       ??_C@_0CB@JONCMFFK@?$GAeh?5vector?5constructor?5iterator@ 00000001801dc980     libvcruntime:undname.obj
 0002:000099a8       ??_C@_0CA@GCEOPDGL@?$GAeh?5vector?5destructor?5iterator?8@ 00000001801dc9a8     libvcruntime:undname.obj
 0002:000099c8       ??_C@_0CH@OOJPLCPH@?$GAeh?5vector?5vbase?5constructor?5it@ 00000001801dc9c8     libvcruntime:undname.obj
 0002:000099f0       ??_C@_0BL@LLKPOHJI@?$GAcopy?5constructor?5closure?8@ 00000001801dc9f0     libvcruntime:undname.obj
 0002:00009a10       ??_C@_0BA@KBCDOMBN@?$GAudt?5returning?8@ 00000001801dca10     libvcruntime:undname.obj
 0002:00009a20       ??_C@_03KLGMFNMG@?$GAEH@   00000001801dca20     libvcruntime:undname.obj
 0002:00009a24       ??_C@_05KHLCHHI@?$GARTTI@  00000001801dca24     libvcruntime:undname.obj
 0002:00009a30       ??_C@_0BA@KKLDJDLB@?$GAlocal?5vftable?8@ 00000001801dca30     libvcruntime:undname.obj
 0002:00009a40       ??_C@_0CE@IIHCMGGL@?$GAlocal?5vftable?5constructor?5clos@ 00000001801dca40     libvcruntime:undname.obj
 0002:00009a64       ??_C@_06FHBGPFGH@?5new?$FL?$FN@ 00000001801dca64     libvcruntime:undname.obj
 0002:00009a70       ??_C@_09LBNFPBCA@?5delete?$FL?$FN@ 00000001801dca70     libvcruntime:undname.obj
 0002:00009a80       ??_C@_0P@HJKNJFNN@?$GAomni?5callsig?8@ 00000001801dca80     libvcruntime:undname.obj
 0002:00009a90       ??_C@_0BL@CNOONJFP@?$GAplacement?5delete?5closure?8@ 00000001801dca90     libvcruntime:undname.obj
 0002:00009ab0       ??_C@_0BN@CKNJLHMB@?$GAplacement?5delete?$FL?$FN?5closure?8@ 00000001801dcab0     libvcruntime:undname.obj
 0002:00009ad0       ??_C@_0CG@CFDHKGGD@?$GAmanaged?5vector?5constructor?5ite@ 00000001801dcad0     libvcruntime:undname.obj
 0002:00009af8       ??_C@_0CF@IMGKMJNO@?$GAmanaged?5vector?5destructor?5iter@ 00000001801dcaf8     libvcruntime:undname.obj
 0002:00009b20       ??_C@_0CG@HLDDJMAG@?$GAeh?5vector?5copy?5constructor?5ite@ 00000001801dcb20     libvcruntime:undname.obj
 0002:00009b48       ??_C@_0CM@FCBBDIGB@?$GAeh?5vector?5vbase?5copy?5construct@ 00000001801dcb48     libvcruntime:undname.obj
 0002:00009b78       ??_C@_0BL@CLIPGLGB@?$GAdynamic?5initializer?5for?5?8@ 00000001801dcb78     libvcruntime:undname.obj
 0002:00009b98       ??_C@_0CB@PDBIFEP@?$GAdynamic?5atexit?5destructor?5for?5@ 00000001801dcb98     libvcruntime:undname.obj
 0002:00009bc0       ??_C@_0CD@CGAJBKEJ@?$GAvector?5copy?5constructor?5iterat@ 00000001801dcbc0     libvcruntime:undname.obj
 0002:00009be8       ??_C@_0CJ@GJELGAMM@?$GAvector?5vbase?5copy?5constructor?5@ 00000001801dcbe8     libvcruntime:undname.obj
 0002:00009c18       ??_C@_0CL@FGIJHLCE@?$GAmanaged?5vector?5copy?5constructo@ 00000001801dcc18     libvcruntime:undname.obj
 0002:00009c48       ??_C@_0BM@PMGGMLDN@?$GAlocal?5static?5thread?5guard?8@ 00000001801dcc48     libvcruntime:undname.obj
 0002:00009c68       ??_C@_0N@BDNMDMOL@operator?5?$CC?$CC?5@ 00000001801dcc68     libvcruntime:undname.obj
 0002:00009c78       ??_C@_0BC@GGEBGALA@operator?5co_await@ 00000001801dcc78     libvcruntime:undname.obj
 0002:00009c90       ??_C@_0M@GAAIMMOH@operator?$DM?$DN?$DO@ 00000001801dcc90     libvcruntime:undname.obj
 0002:00009ca0       ??_C@_0BC@DAFEJGAK@?5Type?5Descriptor?8@ 00000001801dcca0     libvcruntime:undname.obj
 0002:00009cb8       ??_C@_0BM@LDKODKLH@?5Base?5Class?5Descriptor?5at?5?$CI@ 00000001801dccb8     libvcruntime:undname.obj
 0002:00009cd8       ??_C@_0BD@LGICGFMM@?5Base?5Class?5Array?8@ 00000001801dccd8     libvcruntime:undname.obj
 0002:00009cf0       ??_C@_0BN@MECKDCOJ@?5Class?5Hierarchy?5Descriptor?8@ 00000001801dccf0     libvcruntime:undname.obj
 0002:00009d10       ??_C@_0BK@CFCOFLF@?5Complete?5Object?5Locator?8@ 00000001801dcd10     libvcruntime:undname.obj
 0002:00009d30       ??_C@_0BG@JNJLAMPM@?$GAanonymous?5namespace?8@ 00000001801dcd30     libvcruntime:undname.obj
 0002:00009d48       ??_C@_04HEJADOOB@CV?3?5@   00000001801dcd48     libvcruntime:undname.obj
 0002:00009d50       ??_C@_02MOLJINC@?3?3@      00000001801dcd50     libvcruntime:undname.obj
 0002:00009d58       ??_C@_0BE@JAEOCHPE@template?9parameter?9@ 00000001801dcd58     libvcruntime:undname.obj
 0002:00009d70       ??_C@_0BF@LNLGBBNL@?$GAtemplate?9parameter?9@ 00000001801dcd70     libvcruntime:undname.obj
 0002:00009d88       ??_C@_0O@KHGCOMHP@generic?9type?9@ 00000001801dcd88     libvcruntime:undname.obj
 0002:00009d98       ??_C@_0P@ODDENDLM@?$GAgeneric?9type?9@ 00000001801dcd98     libvcruntime:undname.obj
 0002:00009da8       ??_C@_02OHHJMEON@?8?8@     00000001801dcda8     libvcruntime:undname.obj
 0002:00009db0       ??_C@_0BN@IBLMMFAP@?$GAnon?9type?9template?9parameter@ 00000001801dcdb0     libvcruntime:undname.obj
 0002:00009dd0       ??_C@_03DLDNIBIK@?$CFlf@   00000001801dcdd0     libvcruntime:undname.obj
 0002:00009dd4       ??_C@_04OFALKAJ@?$DP?$DP_C@ 00000001801dcdd4     libvcruntime:undname.obj
 0002:00009ddc       ??_C@_03KHICJKCI@?4?4?4@   00000001801dcddc     libvcruntime:undname.obj
 0002:00009de0       ??_C@_04HIBGFPH@NULL@      00000001801dcde0     libvcruntime:undname.obj
 0002:00009de8       ??_C@_02DPKJAMEF@?$CFd@    00000001801dcde8     libvcruntime:undname.obj
 0002:00009df0       ??_C@_0BK@IHCCFNEL@?$GAtemplate?9type?9parameter?9@ 00000001801dcdf0     libvcruntime:undname.obj
 0002:00009e10       ??_C@_0BK@OFCNNNKO@?$GAgeneric?9class?9parameter?9@ 00000001801dce10     libvcruntime:undname.obj
 0002:00009e30       ??_C@_0BL@NGJBLFIL@?$GAgeneric?9method?9parameter?9@ 00000001801dce30     libvcruntime:undname.obj
 0002:00009e50       ??_C@_07OHNGEDJK@nullptr@  00000001801dce50     libvcruntime:undname.obj
 0002:00009e58       ??_C@_06COJIGPIB@lambda@   00000001801dce58     libvcruntime:undname.obj
 0002:00009e60       ??_C@_0BE@EODMJLIF@?$GAtemplate?9parameter@ 00000001801dce60     libvcruntime:undname.obj
 0002:00009e74       ??_C@_03OPGICMGF@?$HN?8?5@ 00000001801dce74     libvcruntime:undname.obj
 0002:00009e78       ??_C@_02IGFCGPIL@?$HN?8@   00000001801dce78     libvcruntime:undname.obj
 0002:00009e80       ??_C@_0N@CBHHHENL@?$GAvtordispex?$HL@ 00000001801dce80     libvcruntime:undname.obj
 0002:00009e90       ??_C@_0L@GHPFDFH@?$GAvtordisp?$HL@ 00000001801dce90     libvcruntime:undname.obj
 0002:00009ea0       ??_C@_0L@HNGCOGAE@?$GAadjustor?$HL@ 00000001801dcea0     libvcruntime:undname.obj
 0002:00009eb0       ??_C@_0CB@KJDOOODE@?$GAlocal?5static?5destructor?5helper@ 00000001801dceb0     libvcruntime:undname.obj
 0002:00009ed8       ??_C@_0DB@ILEFOCIJ@?$GAtemplate?5static?5data?5member?5co@ 00000001801dced8     libvcruntime:undname.obj
 0002:00009f10       ??_C@_0DA@HGFJFBBE@?$GAtemplate?5static?5data?5member?5de@ 00000001801dcf10     libvcruntime:undname.obj
 0002:00009f40       ??_C@_07PGOEDBHP@static?5@ 00000001801dcf40     libvcruntime:undname.obj
 0002:00009f48       ??_C@_08NIEOINHE@virtual?5@ 00000001801dcf48     libvcruntime:undname.obj
 0002:00009f58       ??_C@_09LAPHOOG@private?3?5@ 00000001801dcf58     libvcruntime:undname.obj
 0002:00009f68       ??_C@_0M@GAIFPFIP@protected?3?5@ 00000001801dcf68     libvcruntime:undname.obj
 0002:00009f78       ??_C@_08GPDDCMKI@public?3?5@ 00000001801dcf78     libvcruntime:undname.obj
 0002:00009f88       ??_C@_08KJLFOPNE@?$FLthunk?$FN?3@ 00000001801dcf88     libvcruntime:undname.obj
 0002:00009f98       ??_C@_0M@DHNBOJMP@extern?5?$CCC?$CC?5@ 00000001801dcf98     libvcruntime:undname.obj
 0002:00009fa4       ??_C@_02KCKGHPCA@?$CJ?5@   00000001801dcfa4     libvcruntime:undname.obj
 0002:00009fa8       ??_C@_05CIHEBHNO@char?5@   00000001801dcfa8     libvcruntime:undname.obj
 0002:00009fb0       ??_C@_06EHJMALKF@short?5@  00000001801dcfb0     libvcruntime:undname.obj
 0002:00009fb8       ??_C@_04LAHKHJMA@int?5@    00000001801dcfb8     libvcruntime:undname.obj
 0002:00009fc0       ??_C@_05CJIMAING@long?5@   00000001801dcfc0     libvcruntime:undname.obj
 0002:00009fc8       ??_C@_09EBBEKKIH@unsigned?5@ 00000001801dcfc8     libvcruntime:undname.obj
 0002:00009fd4       ??_C@_05BEFAKPML@void?5@   00000001801dcfd4     libvcruntime:undname.obj
 0002:00009fe0       ??_C@_09GAIEOBLP@volatile?5@ 00000001801dcfe0     libvcruntime:undname.obj
 0002:00009ff0       ??_C@_08PABEKFH@volatile@  00000001801dcff0     libvcruntime:undname.obj
 0002:0000a000       ??_C@_0BA@LKIJLKPP@std?3?3nullptr_t?5@ 00000001801dd000     libvcruntime:undname.obj
 0002:0000a010       ??_C@_0P@GCOCNKDM@std?3?3nullptr_t@ 00000001801dd010     libvcruntime:undname.obj
 0002:0000a020       ??_C@_0L@EGPHHEKN@?$DMellipsis?$DO@ 00000001801dd020     libvcruntime:undname.obj
 0002:0000a02c       ??_C@_04EENFHACM@?0?4?4?4@ 00000001801dd02c     libvcruntime:undname.obj
 0002:0000a038       ??_C@_0M@ELJOJFFH@?0?$DMellipsis?$DO@ 00000001801dd038     libvcruntime:undname.obj
 0002:0000a048       ??_C@_09DNHFEOJI@?5noexcept@ 00000001801dd048     libvcruntime:undname.obj
 0002:0000a054       ??_C@_03PBJBJNON@cpu@      00000001801dd054     libvcruntime:undname.obj
 0002:0000a058       ??_C@_03DCBBJBAA@amp@      00000001801dd058     libvcruntime:undname.obj
 0002:0000a05c       ??_C@_02KEGNLNML@?0?5@     00000001801dd05c     libvcruntime:undname.obj
 0002:0000a060       ??_C@_04ENMBGAPA@char@     00000001801dd060     libvcruntime:undname.obj
 0002:0000a068       ??_C@_05BFKKPKCG@short@    00000001801dd068     libvcruntime:undname.obj
 0002:0000a070       ??_C@_03JBIPMCLC@int@      00000001801dd070     libvcruntime:undname.obj
 0002:0000a074       ??_C@_04GOKPGOLB@long@     00000001801dd074     libvcruntime:undname.obj
 0002:0000a07c       ??_C@_06BNJCAIGJ@double@   00000001801dd07c     libvcruntime:undname.obj
 0002:0000a084       ??_C@_06EBGKOKIG@__int8@   00000001801dd084     libvcruntime:undname.obj
 0002:0000a090       ??_C@_07ICFHOGAF@__int16@  00000001801dd090     libvcruntime:undname.obj
 0002:0000a098       ??_C@_07OFLPPHGP@__int32@  00000001801dd098     libvcruntime:undname.obj
 0002:0000a0a0       ??_C@_07LFCOJCAC@__int64@  00000001801dd0a0     libvcruntime:undname.obj
 0002:0000a0a8       ??_C@_08GAHOLHEO@__int128@ 00000001801dd0a8     libvcruntime:undname.obj
 0002:0000a0b8       ??_C@_09EEKGDCPH@?$DMunknown?$DO@ 00000001801dd0b8     libvcruntime:undname.obj
 0002:0000a0c8       ??_C@_07CFHGOPCN@char8_t@  00000001801dd0c8     libvcruntime:undname.obj
 0002:0000a0d0       ??_C@_08HBIPOFJB@char16_t@ 00000001801dd0d0     libvcruntime:undname.obj
 0002:0000a0e0       ??_C@_08IECNCBKG@char32_t@ 00000001801dd0e0     libvcruntime:undname.obj
 0002:0000a0f0       ??_C@_07CLGGIAMF@wchar_t@  00000001801dd0f0     libvcruntime:undname.obj
 0002:0000a0f8       ??_C@_04HAPDLBFF@auto@     00000001801dd0f8     libvcruntime:undname.obj
 0002:0000a100       ??_C@_0P@LHCGKIGK@decltype?$CIauto?$CJ@ 00000001801dd100     libvcruntime:undname.obj
 0002:0000a110       ??_C@_05PCNBGHCF@this?5@   00000001801dd110     libvcruntime:undname.obj
 0002:0000a118       ??_C@_06GCICPBLB@__w64?5@  00000001801dd118     libvcruntime:undname.obj
 0002:0000a120       ??_C@_07NFANNNEC@UNKNOWN@  00000001801dd120     libvcruntime:undname.obj
 0002:0000a128       ??_C@_07EDHNAJHC@signed?5@ 00000001801dd128     libvcruntime:undname.obj
 0002:0000a130       ??_C@_05BNCCCJPP@const@    00000001801dd130     libvcruntime:undname.obj
 0002:0000a138       ??_C@_09EFNPDFFP@?5volatile@ 00000001801dd138     libvcruntime:undname.obj
 0002:0000a148       ??_C@_0P@GCIFDJCJ@?$GAunknown?5ecsu?8@ 00000001801dd148     libvcruntime:undname.obj
 0002:0000a158       ??_C@_06MOJHIBMG@union?5@  00000001801dd158     libvcruntime:undname.obj
 0002:0000a160       ??_C@_07DIBCDNGL@struct?5@ 00000001801dd160     libvcruntime:undname.obj
 0002:0000a168       ??_C@_06LJBABKPM@class?5@  00000001801dd168     libvcruntime:undname.obj
 0002:0000a170       ??_C@_08KOFANOFK@coclass?5@ 00000001801dd170     libvcruntime:undname.obj
 0002:0000a180       ??_C@_0N@DLIEFKNA@cointerface?5@ 00000001801dd180     libvcruntime:undname.obj
 0002:0000a190       ??_C@_05LJGMCFOG@enum?5@   00000001801dd190     libvcruntime:undname.obj
 0002:0000a198       ??_C@_06LIJLOJAG@const?5@  00000001801dd198     libvcruntime:undname.obj
 0002:0000a1a0       ??_C@_02KJPKDIBN@?$CG?5@   00000001801dd1a0     libvcruntime:undname.obj
 0002:0000a1a4       ??_C@_03PCKGMOPB@?$CG?$CG?5@ 00000001801dd1a4     libvcruntime:undname.obj
 0002:0000a1a8       ??_C@_0M@EALIELKG@cli?3?3array?$DM@ 00000001801dd1a8     libvcruntime:undname.obj
 0002:0000a1b8       ??_C@_0O@GKABPPIF@cli?3?3pin_ptr?$DM@ 00000001801dd1b8     libvcruntime:undname.obj
 0002:0000a1c8       ??_C@_02GOGNNPBN@?$CJ?$FL@ 00000001801dd1c8     libvcruntime:undname.obj
 0002:0000a1cc       ??_C@_06EEGAIFAK@?$HLflat?$HN@ 00000001801dd1cc     libvcruntime:undname.obj
 0002:0000a1d4       ??_C@_05JIBOFOHK@?$HLfor?5@ 00000001801dd1d4     libvcruntime:undname.obj
 0002:0000a1dc       ??_C@_02MDINNEEG@s?5@      00000001801dd1dc     libvcruntime:undname.obj
 0002:0000a1e8       ??_7charNode@@6B@          00000001801dd1e8     libvcruntime:undname.obj
 0002:0000a210       ??_7pcharNode@@6B@         00000001801dd210     libvcruntime:undname.obj
 0002:0000a238       ??_7pDNameNode@@6B@        00000001801dd238     libvcruntime:undname.obj
 0002:0000a260       ??_7DNameStatusNode@@6B@   00000001801dd260     libvcruntime:undname.obj
 0002:0000a288       ??_7pairNode@@6B@          00000001801dd288     libvcruntime:undname.obj
 0002:0000a3b0       ??_C@_04OKOHEJBO@?5?$DP?$DP?5@ 00000001801dd3b0     libvcruntime:undname.obj
 0002:0000a3c0       ?nodes@?1??make@DNameStatusNode@@SAPEBV2@W4DNameStatus@@@Z@4QBV2@B 00000001801dd3c0     libvcruntime:undname.obj
 0002:0000a400       ?s_negLengthTab@FH4@@3QBCB 00000001801dd400     libvcruntime:risctrnsctrl.obj
 0002:0000a410       ?s_shiftTab@FH4@@3QBEB     00000001801dd410     libvcruntime:risctrnsctrl.obj
 0002:0000a570       ??_C@_1DM@KHCHBNEB@?$AAa?$AAp?$AAi?$AA?9?$AAm?$AAs?$AA?9?$AAw?$AAi?$AAn?$AA?9?$AAc?$AAo?$AAr?$AAe@ 00000001801dd570     libvcruntime:winapi_downlevel.obj
 0002:0000a5b0       ??_C@_1DK@LPPGFMPP@?$AAa?$AAp?$AAi?$AA?9?$AAm?$AAs?$AA?9?$AAw?$AAi?$AAn?$AA?9?$AAc?$AAo?$AAr?$AAe@ 00000001801dd5b0     libvcruntime:winapi_downlevel.obj
 0002:0000a5f0       ??_C@_1BC@GDMECMAK@?$AAk?$AAe?$AAr?$AAn?$AAe?$AAl?$AA3?$AA2@ 00000001801dd5f0     libvcruntime:winapi_downlevel.obj
 0002:0000a608       ??_C@_1BA@PFFKHIOG@?$AAa?$AAp?$AAi?$AA?9?$AAm?$AAs?$AA?9@ 00000001801dd608     libvcruntime:winapi_downlevel.obj
 0002:0000a620       ??_C@_08KNHFBNJ@FlsAlloc@  00000001801dd620     libvcruntime:winapi_downlevel.obj
 0002:0000a638       ??_C@_07PEJMOBNF@FlsFree@  00000001801dd638     libvcruntime:winapi_downlevel.obj
 0002:0000a648       ??_C@_0M@GDNOONDI@FlsGetValue@ 00000001801dd648     libvcruntime:winapi_downlevel.obj
 0002:0000a660       ??_C@_0M@JCPCPOEF@FlsSetValue@ 00000001801dd660     libvcruntime:winapi_downlevel.obj
 0002:0000a678       ??_C@_0BM@HCFOFFN@InitializeCriticalSectionEx@ 00000001801dd678     libvcruntime:winapi_downlevel.obj
 0002:0000a6a0       ??_7exception@std@@6B@     00000001801dd6a0     libvcruntime:frame.obj
 0002:0000a6b0       ??_C@_0BC@EOODALEL@Unknown?5exception@ 00000001801dd6b0     libvcruntime:frame.obj
 0002:0000a6d0       ??_7bad_exception@std@@6B@ 00000001801dd6d0     libvcruntime:frame.obj
 0002:0000a6e0       ??_C@_0O@DPKOEFFH@bad?5exception@ 00000001801dd6e0     libvcruntime:frame.obj
 0002:0000aa30       ?standard_lookup_table_spectre@__crt_stdio_output@@3V?$spectre_mitigated_lookup_table@Ustate_transition_pair@__crt_stdio_output@@$0IA@@1@B 00000001801dda30     libucrt:output.obj
 0002:0000ab30       ?format_validation_lookup_table_spectre@__crt_stdio_output@@3V?$spectre_mitigated_lookup_table@Ustate_transition_pair@__crt_stdio_output@@$0IA@@1@B 00000001801ddb30     libucrt:output.obj
 0002:0000ac30       ??_C@_1O@CEDCILHN@?$AA?$CI?$AAn?$AAu?$AAl?$AAl?$AA?$CJ@ 00000001801ddc30     libucrt:output.obj
 0002:0000ac40       ??_C@_06OJHGLDPL@?$CInull?$CJ@ 00000001801ddc40     libucrt:output.obj
 0002:0000bcd8       __real@3f1a36e2eb1c432d    00000001801decd8     libucrt:atan2f.obj
 0002:0000bce0       __real@3fb0000000000000    00000001801dece0     libucrt:atan2f.obj
 0002:0000bce8       __real@3fc2492482bd6be1    00000001801dece8     libucrt:atan2f.obj
 0002:0000bcf0       __real@3fc99999999643a3    00000001801decf0     libucrt:atan2f.obj
 0002:0000bcf8       __real@3fd5555555550877    00000001801decf8     libucrt:atan2f.obj
 0002:0000bd00       __real@3fd5555555555538    00000001801ded00     libucrt:atan2f.obj
 0002:0000bd08       __real@3ff921fb54442d18    00000001801ded08     libucrt:atan2f.obj
 0002:0000bd10       __real@400921fb54442d18    00000001801ded10     libucrt:atan2f.obj
 0002:0000bd18       __real@4070000000000000    00000001801ded18     libucrt:atan2f.obj
 0002:0000bd20       __real@bf490fdb            00000001801ded20     libucrt:atan2f.obj
 0002:0000bd24       __real@bfc90fdb            00000001801ded24     libucrt:atan2f.obj
 0002:0000bd28       __real@c016cbe4            00000001801ded28     libucrt:atan2f.obj
 0002:0000bd2c       __real@c0490fdb            00000001801ded2c     libucrt:atan2f.obj
 0002:0000bd30       ??_C@_05FFFCHCED@acosf@    00000001801ded30     libucrt:acosf.obj
 0002:0000bd38       __real@3b81ce6b            00000001801ded38     libucrt:acosf.obj
 0002:0000bd40       __real@3c91a62633145c07    00000001801ded40     libucrt:acosf.obj
 0002:0000bd48       __real@3d678bdd            00000001801ded48     libucrt:acosf.obj
 0002:0000bd4c       __real@3e3c94dc            00000001801ded4c     libucrt:acosf.obj
 0002:0000bd50       __real@3f561f0d            00000001801ded50     libucrt:acosf.obj
 0002:0000bd54       __real@3f8d6fa5            00000001801ded54     libucrt:acosf.obj
 0002:0000bd58       __real@bc5b3fe1            00000001801ded58     libucrt:acosf.obj
 0002:0000bd60       __acrt_exception_action_table 00000001801ded60     libucrt:exception_filter.obj
 0002:0000be20       __acrt_signal_action_table_count 00000001801dee20     libucrt:exception_filter.obj
 0002:0000be28       __acrt_signal_action_first_fpe_index 00000001801dee28     libucrt:exception_filter.obj
 0002:0000be30       __acrt_signal_action_fpe_count 00000001801dee30     libucrt:exception_filter.obj
 0002:0000be88       ??_C@_1BI@BGOHAHKC@?$AAm?$AAs?$AAc?$AAo?$AAr?$AAe?$AAe?$AA?4?$AAd?$AAl?$AAl@ 00000001801dee88     libucrt:exit.obj
 0002:0000bea0       ??_C@_0P@MIGLKIOC@CorExitProcess@ 00000001801deea0     libucrt:exit.obj
 0002:0000c170       ??_C@_04LAGPAAHP@sinf@     00000001801df170     libucrt:sincos_special.obj
 0002:0000c178       ??_C@_04OBBKPIAC@cosf@     00000001801df178     libucrt:sincos_special.obj
 0002:0000c180       ??_C@_04MHPLPEIA@tanf@     00000001801df180     libucrt:sincos_special.obj
 0002:0000c190       __Lcosfarray               00000001801df190     libucrt:lsincosf_array.obj
 0002:0000c1c0       __Lsinfarray               00000001801df1c0     libucrt:lsincosf_array.obj
 0002:0000c1e0       __L_2_by_pi_bits           00000001801df1e0     libucrt:l2_by_pi_bits.obj
 0002:0000c540       ??_C@_1EA@JGEFHKEI@?$AAa?$AAp?$AAi?$AA?9?$AAm?$AAs?$AA?9?$AAw?$AAi?$AAn?$AA?9?$AAc?$AAo?$AAr?$AAe@ 00000001801df540     libucrt:winapi_thunks.obj
 0002:0000c580       ??_C@_1DI@IJCEHOCB@?$AAa?$AAp?$AAi?$AA?9?$AAm?$AAs?$AA?9?$AAw?$AAi?$AAn?$AA?9?$AAc?$AAo?$AAr?$AAe@ 00000001801df580     libucrt:winapi_thunks.obj
 0002:0000c5c0       ??_C@_1EI@MPIAOHOC@?$AAa?$AAp?$AAi?$AA?9?$AAm?$AAs?$AA?9?$AAw?$AAi?$AAn?$AA?9?$AAc?$AAo?$AAr?$AAe@ 00000001801df5c0     libucrt:winapi_thunks.obj
 0002:0000c610       ??_C@_1FK@FPHCKFIE@?$AAa?$AAp?$AAi?$AA?9?$AAm?$AAs?$AA?9?$AAw?$AAi?$AAn?$AA?9?$AAc?$AAo?$AAr?$AAe@ 00000001801df610     libucrt:winapi_thunks.obj
 0002:0000c670       ??_C@_1EM@DILCGIIO@?$AAa?$AAp?$AAi?$AA?9?$AAm?$AAs?$AA?9?$AAw?$AAi?$AAn?$AA?9?$AAc?$AAo?$AAr?$AAe@ 00000001801df670     libucrt:winapi_thunks.obj
 0002:0000c6c0       ??_C@_1DM@LNCGDDPN@?$AAa?$AAp?$AAi?$AA?9?$AAm?$AAs?$AA?9?$AAw?$AAi?$AAn?$AA?9?$AAc?$AAo?$AAr?$AAe@ 00000001801df6c0     libucrt:winapi_thunks.obj
 0002:0000c700       ??_C@_1DO@FPAPJEMD@?$AAa?$AAp?$AAi?$AA?9?$AAm?$AAs?$AA?9?$AAw?$AAi?$AAn?$AA?9?$AAc?$AAo?$AAr?$AAe@ 00000001801df700     libucrt:winapi_thunks.obj
 0002:0000c740       ??_C@_1DK@NDHNAHIO@?$AAa?$AAp?$AAi?$AA?9?$AAm?$AAs?$AA?9?$AAw?$AAi?$AAn?$AA?9?$AAc?$AAo?$AAr?$AAe@ 00000001801df740     libucrt:winapi_thunks.obj
 0002:0000c780       ??_C@_1DM@KGHDGBCM@?$AAa?$AAp?$AAi?$AA?9?$AAm?$AAs?$AA?9?$AAw?$AAi?$AAn?$AA?9?$AAc?$AAo?$AAr?$AAe@ 00000001801df780     libucrt:winapi_thunks.obj
 0002:0000c7c0       ??_C@_1EO@IJIOEFOH@?$AAa?$AAp?$AAi?$AA?9?$AAm?$AAs?$AA?9?$AAw?$AAi?$AAn?$AA?9?$AAr?$AAt?$AAc?$AAo@ 00000001801df7c0     libucrt:winapi_thunks.obj
 0002:0000c810       ??_C@_1FG@HHGEKANL@?$AAa?$AAp?$AAi?$AA?9?$AAm?$AAs?$AA?9?$AAw?$AAi?$AAn?$AA?9?$AAs?$AAe?$AAc?$AAu@ 00000001801df810     libucrt:winapi_thunks.obj
 0002:0000c870       ??_C@_1EG@DBIOJECG@?$AAe?$AAx?$AAt?$AA?9?$AAm?$AAs?$AA?9?$AAw?$AAi?$AAn?$AA?9?$AAn?$AAt?$AAu?$AAs@ 00000001801df870     libucrt:winapi_thunks.obj
 0002:0000c8c0       ??_C@_1EO@FIHMJCLF@?$AAe?$AAx?$AAt?$AA?9?$AAm?$AAs?$AA?9?$AAw?$AAi?$AAn?$AA?9?$AAn?$AAt?$AAu?$AAs@ 00000001801df8c0     libucrt:winapi_thunks.obj
 0002:0000c910       ??_C@_1BC@DNHGCMLG@?$AAa?$AAd?$AAv?$AAa?$AAp?$AAi?$AA3?$AA2@ 00000001801df910     libucrt:winapi_thunks.obj
 0002:0000c928       ??_C@_1M@OAIMIKLP@?$AAn?$AAt?$AAd?$AAl?$AAl@ 00000001801df928     libucrt:winapi_thunks.obj
 0002:0000c940       ??_C@_1EG@DPGNFKGC@?$AAa?$AAp?$AAi?$AA?9?$AAm?$AAs?$AA?9?$AAw?$AAi?$AAn?$AA?9?$AAa?$AAp?$AAp?$AAm@ 00000001801df940     libucrt:winapi_thunks.obj
 0002:0000c988       ??_C@_1O@BCCLBEOE@?$AAu?$AAs?$AAe?$AAr?$AA3?$AA2@ 00000001801df988     libucrt:winapi_thunks.obj
 0002:0000c998       ??_C@_1BA@IAIFMGEF@?$AAe?$AAx?$AAt?$AA?9?$AAm?$AAs?$AA?9@ 00000001801df998     libucrt:winapi_thunks.obj
 0002:0000c9b0       ??_C@_0BA@FHFNEAED@AreFileApisANSI@ 00000001801df9b0     libucrt:winapi_thunks.obj
 0002:0000c9d0       ??_C@_0O@KKBNKAPF@LCMapStringEx@ 00000001801df9d0     libucrt:winapi_thunks.obj
